TN:
SF:/home/xronia/workspace/PBase/String/astring.h
FN:147,_ZN6String7astringILi64EEC2EPKc
FN:152,_ZN6String7astringILi64EEC2ERKNSt7__cxx1112basic_stringIcSt11char_traitsIcESaIcEEE
FN:200,_ZN6String7astringILi64EED2Ev
FN:254,_ZN6String7astringILi64EE3setEPKc
FN:271,_ZN6String7astringILi64EE3setERKNSt7__cxx1112basic_stringIcSt11char_traitsIcESaIcEEE
FN:292,_ZN6String7astringILi64EE5clearEv
FNDA:0,_ZN6String7astringILi64EEC2EPKc
FNDA:118,_ZN6String7astringILi64EEC2ERKNSt7__cxx1112basic_stringIcSt11char_traitsIcESaIcEEE
FNDA:0,_ZN6String7astringILi64EED2Ev
FNDA:0,_ZN6String7astringILi64EE3setEPKc
FNDA:288,_ZN6String7astringILi64EE3setERKNSt7__cxx1112basic_stringIcSt11char_traitsIcESaIcEEE
FNDA:0,_ZN6String7astringILi64EE5clearEv
FNF:6
FNH:2
DA:147,0
DA:148,0
DA:149,0
DA:152,118
DA:153,118
DA:154,118
DA:200,0
DA:201,0
DA:202,0
DA:203,0
DA:254,0
DA:255,0
DA:256,0
DA:257,0
DA:258,0
DA:260,0
DA:261,0
DA:264,0
DA:271,288
DA:272,288
DA:273,288
DA:292,0
DA:293,0
DA:294,0
LF:24
LH:6
end_of_record
SF:/usr/include/c++/7/bits/alloc_traits.h
FN:435,_ZNSt16allocator_traitsISaISt13_Rb_tree_nodeISt4pairIKNSt7__cxx1112basic_stringIcSt11char_traitsIcESaIcEEEN6Entity6ColumnEEEEE8allocateERSD_m
FN:461,_ZNSt16allocator_traitsISaISt13_Rb_tree_nodeISt4pairIKNSt7__cxx1112basic_stringIcSt11char_traitsIcESaIcEEEN6Entity6ColumnEEEEE10deallocateERSD_PSC_m
FN:474,_ZNSt16allocator_traitsISaISt13_Rb_tree_nodeISt4pairIKNSt7__cxx1112basic_stringIcSt11char_traitsIcESaIcEEEN6Entity6ColumnEEEEE9constructISB_JRKSB_EEEvRSD_PT_DpOT0_
FN:486,_ZNSt16allocator_traitsISaISt13_Rb_tree_nodeISt4pairIKNSt7__cxx1112basic_stringIcSt11char_traitsIcESaIcEEEN6Entity6ColumnEEEEE7destroyISB_EEvRSD_PT_
FNDA:0,_ZNSt16allocator_traitsISaISt13_Rb_tree_nodeISt4pairIKNSt7__cxx1112basic_stringIcSt11char_traitsIcESaIcEEEN6Entity6ColumnEEEEE8allocateERSD_m
FNDA:0,_ZNSt16allocator_traitsISaISt13_Rb_tree_nodeISt4pairIKNSt7__cxx1112basic_stringIcSt11char_traitsIcESaIcEEEN6Entity6ColumnEEEEE10deallocateERSD_PSC_m
FNDA:0,_ZNSt16allocator_traitsISaISt13_Rb_tree_nodeISt4pairIKNSt7__cxx1112basic_stringIcSt11char_traitsIcESaIcEEEN6Entity6ColumnEEEEE9constructISB_JRKSB_EEEvRSD_PT_DpOT0_
FNDA:0,_ZNSt16allocator_traitsISaISt13_Rb_tree_nodeISt4pairIKNSt7__cxx1112basic_stringIcSt11char_traitsIcESaIcEEEN6Entity6ColumnEEEEE7destroyISB_EEvRSD_PT_
FNF:4
FNH:0
DA:435,0
DA:436,0
DA:461,0
DA:462,0
DA:474,0
DA:475,0
DA:486,0
DA:487,0
LF:8
LH:0
end_of_record
SF:/usr/include/c++/7/bits/allocator.h
FN:131,_ZNSaISt4pairIKNSt7__cxx1112basic_stringIcSt11char_traitsIcESaIcEEEN6Entity6ColumnEEEC2Ev
FN:133,_ZNSaISt4pairIKNSt7__cxx1112basic_stringIcSt11char_traitsIcESaIcEEEN6Entity6ColumnEEEC2ERKSA_
FN:133,_ZNSaISt13_Rb_tree_nodeISt4pairIKNSt7__cxx1112basic_stringIcSt11char_traitsIcESaIcEEEN6Entity6ColumnEEEEC2ERKSC_
FN:137,_ZNSaISt13_Rb_tree_nodeISt4pairIKNSt7__cxx1112basic_stringIcSt11char_traitsIcESaIcEEEN6Entity6ColumnEEEEC2ISA_EERKSaIT_E
FN:139,_ZNSaISt13_Rb_tree_nodeISt4pairIKNSt7__cxx1112basic_stringIcSt11char_traitsIcESaIcEEEN6Entity6ColumnEEEED2Ev
FN:139,_ZNSaISt4pairIKNSt7__cxx1112basic_stringIcSt11char_traitsIcESaIcEEEN6Entity6ColumnEEED2Ev
FNDA:0,_ZNSaISt4pairIKNSt7__cxx1112basic_stringIcSt11char_traitsIcESaIcEEEN6Entity6ColumnEEEC2Ev
FNDA:0,_ZNSaISt13_Rb_tree_nodeISt4pairIKNSt7__cxx1112basic_stringIcSt11char_traitsIcESaIcEEEN6Entity6ColumnEEEEC2ERKSC_
FNDA:0,_ZNSaISt4pairIKNSt7__cxx1112basic_stringIcSt11char_traitsIcESaIcEEEN6Entity6ColumnEEEC2ERKSA_
FNDA:0,_ZNSaISt13_Rb_tree_nodeISt4pairIKNSt7__cxx1112basic_stringIcSt11char_traitsIcESaIcEEEN6Entity6ColumnEEEEC2ISA_EERKSaIT_E
FNDA:0,_ZNSaISt13_Rb_tree_nodeISt4pairIKNSt7__cxx1112basic_stringIcSt11char_traitsIcESaIcEEEN6Entity6ColumnEEEED2Ev
FNDA:0,_ZNSaISt4pairIKNSt7__cxx1112basic_stringIcSt11char_traitsIcESaIcEEEN6Entity6ColumnEEED2Ev
FNF:6
FNH:0
DA:131,0
DA:133,0
DA:134,0
DA:137,0
DA:139,0
LF:5
LH:0
end_of_record
SF:/usr/include/c++/7/bits/basic_string.h
FN:6082,_ZStltIcSt11char_traitsIcESaIcEEbRKNSt7__cxx1112basic_stringIT_T0_T1_EESA_
FNDA:0,_ZStltIcSt11char_traitsIcESaIcEEbRKNSt7__cxx1112basic_stringIT_T0_T1_EESA_
FNF:1
FNH:0
DA:6082,0
DA:6085,0
LF:2
LH:0
end_of_record
SF:/usr/include/c++/7/bits/move.h
FN:73,_ZSt7forwardIRKSt4pairIKNSt7__cxx1112basic_stringIcSt11char_traitsIcESaIcEEEN6Entity6ColumnEEEOT_RNSt16remove_referenceISD_E4typeE
FN:73,_ZSt7forwardIRA5_KcEOT_RNSt16remove_referenceIS3_E4typeE
FN:73,_ZSt7forwardIRPSt18_Rb_tree_node_baseEOT_RNSt16remove_referenceIS3_E4typeE
FN:73,_ZSt7forwardIRPSt13_Rb_tree_nodeISt4pairIKNSt7__cxx1112basic_stringIcSt11char_traitsIcESaIcEEEN6Entity6ColumnEEEEOT_RNSt16remove_referenceISF_E4typeE
FN:98,_ZSt4moveIRSaISt13_Rb_tree_nodeISt4pairIKNSt7__cxx1112basic_stringIcSt11char_traitsIcESaIcEEEN6Entity6ColumnEEEEEONSt16remove_referenceIT_E4typeEOSG_
FNDA:0,_ZSt7forwardIRPSt13_Rb_tree_nodeISt4pairIKNSt7__cxx1112basic_stringIcSt11char_traitsIcESaIcEEEN6Entity6ColumnEEEEOT_RNSt16remove_referenceISF_E4typeE
FNDA:0,_ZSt7forwardIRPSt18_Rb_tree_node_baseEOT_RNSt16remove_referenceIS3_E4typeE
FNDA:0,_ZSt7forwardIRKSt4pairIKNSt7__cxx1112basic_stringIcSt11char_traitsIcESaIcEEEN6Entity6ColumnEEEOT_RNSt16remove_referenceISD_E4typeE
FNDA:192,_ZSt7forwardIRA5_KcEOT_RNSt16remove_referenceIS3_E4typeE
FNDA:0,_ZSt4moveIRSaISt13_Rb_tree_nodeISt4pairIKNSt7__cxx1112basic_stringIcSt11char_traitsIcESaIcEEEN6Entity6ColumnEEEEEONSt16remove_referenceIT_E4typeEOSG_
FNF:5
FNH:1
DA:73,192
DA:74,192
DA:98,0
DA:99,0
LF:4
LH:2
end_of_record
SF:/usr/include/c++/7/bits/stl_function.h
FN:385,_ZNKSt4lessINSt7__cxx1112basic_stringIcSt11char_traitsIcESaIcEEEEclERKS5_S8_
FN:890,_ZNKSt10_Select1stISt4pairIKNSt7__cxx1112basic_stringIcSt11char_traitsIcESaIcEEEN6Entity6ColumnEEEclERKSA_
FNDA:0,_ZNKSt4lessINSt7__cxx1112basic_stringIcSt11char_traitsIcESaIcEEEEclERKS5_S8_
FNDA:0,_ZNKSt10_Select1stISt4pairIKNSt7__cxx1112basic_stringIcSt11char_traitsIcESaIcEEEN6Entity6ColumnEEEclERKSA_
FNF:2
FNH:0
DA:385,0
DA:386,0
DA:890,0
DA:891,0
LF:4
LH:0
end_of_record
SF:/usr/include/c++/7/bits/stl_map.h
FN:220,_ZNSt3mapINSt7__cxx1112basic_stringIcSt11char_traitsIcESaIcEEEN6Entity6ColumnESt4lessIS5_ESaISt4pairIKS5_S7_EEEC2ESt16initializer_listISC_ERKS9_RKSD_
FN:294,_ZNSt3mapINSt7__cxx1112basic_stringIcSt11char_traitsIcESaIcEEEN6Entity6ColumnESt4lessIS5_ESaISt4pairIKS5_S7_EEED2Ev
FNDA:0,_ZNSt3mapINSt7__cxx1112basic_stringIcSt11char_traitsIcESaIcEEEN6Entity6ColumnESt4lessIS5_ESaISt4pairIKS5_S7_EEEC2ESt16initializer_listISC_ERKS9_RKSD_
FNDA:0,_ZNSt3mapINSt7__cxx1112basic_stringIcSt11char_traitsIcESaIcEEEN6Entity6ColumnESt4lessIS5_ESaISt4pairIKS5_S7_EEED2Ev
FNF:2
FNH:0
DA:220,0
DA:223,0
DA:224,0
DA:294,0
LF:4
LH:0
end_of_record
SF:/usr/include/c++/7/bits/stl_pair.h
FN:198,_ZNSt4pairIKNSt7__cxx1112basic_stringIcSt11char_traitsIcESaIcEEEN6Entity6ColumnEED2Ev
FN:292,_ZNSt4pairIKNSt7__cxx1112basic_stringIcSt11char_traitsIcESaIcEEEN6Entity6ColumnEEC2ERKS9_
FN:300,_ZNSt4pairIPSt18_Rb_tree_node_baseS1_EC2IRS1_Lb1EEEOT_RKS1_
FN:300,_ZNSt4pairIKNSt7__cxx1112basic_stringIcSt11char_traitsIcESaIcEEEN6Entity6ColumnEEC2IRA5_KcLb1EEEOT_RKS8_
FN:314,_ZNSt4pairIPSt18_Rb_tree_node_baseS1_EC2IRS1_Lb1EEERKS1_OT_
FN:330,_ZNSt4pairIPSt18_Rb_tree_node_baseS1_EC2IRS1_S4_Lb1EEEOT_OT0_
FN:330,_ZNSt4pairIPSt18_Rb_tree_node_baseS1_EC2IRPSt13_Rb_tree_nodeIS_IKNSt7__cxx1112basic_stringIcSt11char_traitsIcESaIcEEEN6Entity6ColumnEEERS1_Lb1EEEOT_OT0_
FNDA:0,_ZNSt4pairIKNSt7__cxx1112basic_stringIcSt11char_traitsIcESaIcEEEN6Entity6ColumnEED2Ev
FNDA:0,_ZNSt4pairIKNSt7__cxx1112basic_stringIcSt11char_traitsIcESaIcEEEN6Entity6ColumnEEC2ERKS9_
FNDA:0,_ZNSt4pairIPSt18_Rb_tree_node_baseS1_EC2IRS1_Lb1EEEOT_RKS1_
FNDA:198,_ZNSt4pairIKNSt7__cxx1112basic_stringIcSt11char_traitsIcESaIcEEEN6Entity6ColumnEEC2IRA5_KcLb1EEEOT_RKS8_
FNDA:0,_ZNSt4pairIPSt18_Rb_tree_node_baseS1_EC2IRS1_Lb1EEERKS1_OT_
FNDA:0,_ZNSt4pairIPSt18_Rb_tree_node_baseS1_EC2IRPSt13_Rb_tree_nodeIS_IKNSt7__cxx1112basic_stringIcSt11char_traitsIcESaIcEEEN6Entity6ColumnEEERS1_Lb1EEEOT_OT0_
FNDA:0,_ZNSt4pairIPSt18_Rb_tree_node_baseS1_EC2IRS1_S4_Lb1EEEOT_OT0_
FNF:7
FNH:1
DA:198,0
DA:292,0
DA:300,198
DA:301,198
DA:314,0
DA:315,0
DA:330,0
DA:331,0
LF:8
LH:2
end_of_record
SF:/usr/include/c++/7/bits/stl_tree.h
FN:152,_ZNSt20_Rb_tree_key_compareISt4lessINSt7__cxx1112basic_stringIcSt11char_traitsIcESaIcEEEEEC2ERKS7_
FN:173,_ZNSt15_Rb_tree_headerC2Ev
FN:206,_ZNSt15_Rb_tree_header8_M_resetEv
FN:234,_ZNSt13_Rb_tree_nodeISt4pairIKNSt7__cxx1112basic_stringIcSt11char_traitsIcESaIcEEEN6Entity6ColumnEEE9_M_valptrEv
FN:238,_ZNKSt13_Rb_tree_nodeISt4pairIKNSt7__cxx1112basic_stringIcSt11char_traitsIcESaIcEEEN6Entity6ColumnEEE9_M_valptrEv
FN:273,_ZNSt17_Rb_tree_iteratorISt4pairIKNSt7__cxx1112basic_stringIcSt11char_traitsIcESaIcEEEN6Entity6ColumnEEEC2EPSt18_Rb_tree_node_base
FN:285,_ZNSt17_Rb_tree_iteratorISt4pairIKNSt7__cxx1112basic_stringIcSt11char_traitsIcESaIcEEEN6Entity6ColumnEEEppEv
FN:300,_ZNSt17_Rb_tree_iteratorISt4pairIKNSt7__cxx1112basic_stringIcSt11char_traitsIcESaIcEEEN6Entity6ColumnEEEmmEv
FN:315,_ZNKSt17_Rb_tree_iteratorISt4pairIKNSt7__cxx1112basic_stringIcSt11char_traitsIcESaIcEEEN6Entity6ColumnEEEeqERKSB_
FN:348,_ZNSt23_Rb_tree_const_iteratorISt4pairIKNSt7__cxx1112basic_stringIcSt11char_traitsIcESaIcEEEN6Entity6ColumnEEEC2ERKSt17_Rb_tree_iteratorISA_E
FN:352,_ZNKSt23_Rb_tree_const_iteratorISt4pairIKNSt7__cxx1112basic_stringIcSt11char_traitsIcESaIcEEEN6Entity6ColumnEEE13_M_const_castEv
FN:546,_ZNSt8_Rb_treeINSt7__cxx1112basic_stringIcSt11char_traitsIcESaIcEEESt4pairIKS5_N6Entity6ColumnEESt10_Select1stISA_ESt4lessIS5_ESaISA_EE11_Alloc_nodeC2ERSG_
FN:554,_ZNKSt8_Rb_treeINSt7__cxx1112basic_stringIcSt11char_traitsIcESaIcEEESt4pairIKS5_N6Entity6ColumnEESt10_Select1stISA_ESt4lessIS5_ESaISA_EE11_Alloc_nodeclIRKSA_EEPSt13_Rb_tree_nodeISA_EOT_
FN:574,_ZNSt8_Rb_treeINSt7__cxx1112basic_stringIcSt11char_traitsIcESaIcEEESt4pairIKS5_N6Entity6ColumnEESt10_Select1stISA_ESt4lessIS5_ESaISA_EE21_M_get_Node_allocatorEv
FN:587,_ZNSt8_Rb_treeINSt7__cxx1112basic_stringIcSt11char_traitsIcESaIcEEESt4pairIKS5_N6Entity6ColumnEESt10_Select1stISA_ESt4lessIS5_ESaISA_EE11_M_get_nodeEv
FN:591,_ZNSt8_Rb_treeINSt7__cxx1112basic_stringIcSt11char_traitsIcESaIcEEESt4pairIKS5_N6Entity6ColumnEESt10_Select1stISA_ESt4lessIS5_ESaISA_EE11_M_put_nodeEPSt13_Rb_tree_nodeISA_E
FN:621,_ZNSt8_Rb_treeINSt7__cxx1112basic_stringIcSt11char_traitsIcESaIcEEESt4pairIKS5_N6Entity6ColumnEESt10_Select1stISA_ESt4lessIS5_ESaISA_EE17_M_construct_nodeIJRKSA_EEEvPSt13_Rb_tree_nodeISA_EDpOT_
FN:640,_ZNSt8_Rb_treeINSt7__cxx1112basic_stringIcSt11char_traitsIcESaIcEEESt4pairIKS5_N6Entity6ColumnEESt10_Select1stISA_ESt4lessIS5_ESaISA_EE14_M_create_nodeIJRKSA_EEEPSt13_Rb_tree_nodeISA_EDpOT_
FN:648,_ZNSt8_Rb_treeINSt7__cxx1112basic_stringIcSt11char_traitsIcESaIcEEESt4pairIKS5_N6Entity6ColumnEESt10_Select1stISA_ESt4lessIS5_ESaISA_EE15_M_destroy_nodeEPSt13_Rb_tree_nodeISA_E
FN:656,_ZNSt8_Rb_treeINSt7__cxx1112basic_stringIcSt11char_traitsIcESaIcEEESt4pairIKS5_N6Entity6ColumnEESt10_Select1stISA_ESt4lessIS5_ESaISA_EE12_M_drop_nodeEPSt13_Rb_tree_nodeISA_E
FN:677,_ZNSt8_Rb_treeINSt7__cxx1112basic_stringIcSt11char_traitsIcESaIcEEESt4pairIKS5_N6Entity6ColumnEESt10_Select1stISA_ESt4lessIS5_ESaISA_EE13_Rb_tree_implISE_Lb1EED2Ev
FN:702,_ZNSt8_Rb_treeINSt7__cxx1112basic_stringIcSt11char_traitsIcESaIcEEESt4pairIKS5_N6Entity6ColumnEESt10_Select1stISA_ESt4lessIS5_ESaISA_EE13_Rb_tree_implISE_Lb1EEC2ERKSE_OSaISt13_Rb_tree_nodeISA_EE
FN:720,_ZNSt8_Rb_treeINSt7__cxx1112basic_stringIcSt11char_traitsIcESaIcEEESt4pairIKS5_N6Entity6ColumnEESt10_Select1stISA_ESt4lessIS5_ESaISA_EE11_M_leftmostEv
FN:728,_ZNSt8_Rb_treeINSt7__cxx1112basic_stringIcSt11char_traitsIcESaIcEEESt4pairIKS5_N6Entity6ColumnEESt10_Select1stISA_ESt4lessIS5_ESaISA_EE12_M_rightmostEv
FN:736,_ZNSt8_Rb_treeINSt7__cxx1112basic_stringIcSt11char_traitsIcESaIcEEESt4pairIKS5_N6Entity6ColumnEESt10_Select1stISA_ESt4lessIS5_ESaISA_EE8_M_beginEv
FN:747,_ZNSt8_Rb_treeINSt7__cxx1112basic_stringIcSt11char_traitsIcESaIcEEESt4pairIKS5_N6Entity6ColumnEESt10_Select1stISA_ESt4lessIS5_ESaISA_EE6_M_endEv
FN:755,_ZNSt8_Rb_treeINSt7__cxx1112basic_stringIcSt11char_traitsIcESaIcEEESt4pairIKS5_N6Entity6ColumnEESt10_Select1stISA_ESt4lessIS5_ESaISA_EE8_S_valueEPKSt13_Rb_tree_nodeISA_E
FN:759,_ZNSt8_Rb_treeINSt7__cxx1112basic_stringIcSt11char_traitsIcESaIcEEESt4pairIKS5_N6Entity6ColumnEESt10_Select1stISA_ESt4lessIS5_ESaISA_EE6_S_keyEPKSt13_Rb_tree_nodeISA_E
FN:763,_ZNSt8_Rb_treeINSt7__cxx1112basic_stringIcSt11char_traitsIcESaIcEEESt4pairIKS5_N6Entity6ColumnEESt10_Select1stISA_ESt4lessIS5_ESaISA_EE7_S_leftEPSt18_Rb_tree_node_base
FN:771,_ZNSt8_Rb_treeINSt7__cxx1112basic_stringIcSt11char_traitsIcESaIcEEESt4pairIKS5_N6Entity6ColumnEESt10_Select1stISA_ESt4lessIS5_ESaISA_EE8_S_rightEPSt18_Rb_tree_node_base
FN:779,_ZNSt8_Rb_treeINSt7__cxx1112basic_stringIcSt11char_traitsIcESaIcEEESt4pairIKS5_N6Entity6ColumnEESt10_Select1stISA_ESt4lessIS5_ESaISA_EE8_S_valueEPKSt18_Rb_tree_node_base
FN:783,_ZNSt8_Rb_treeINSt7__cxx1112basic_stringIcSt11char_traitsIcESaIcEEESt4pairIKS5_N6Entity6ColumnEESt10_Select1stISA_ESt4lessIS5_ESaISA_EE6_S_keyEPKSt18_Rb_tree_node_base
FN:916,_ZNSt8_Rb_treeINSt7__cxx1112basic_stringIcSt11char_traitsIcESaIcEEESt4pairIKS5_N6Entity6ColumnEESt10_Select1stISA_ESt4lessIS5_ESaISA_EEC2ERKSE_RKSF_
FN:948,_ZNSt8_Rb_treeINSt7__cxx1112basic_stringIcSt11char_traitsIcESaIcEEESt4pairIKS5_N6Entity6ColumnEESt10_Select1stISA_ESt4lessIS5_ESaISA_EED2Ev
FN:960,_ZNSt8_Rb_treeINSt7__cxx1112basic_stringIcSt11char_traitsIcESaIcEEESt4pairIKS5_N6Entity6ColumnEESt10_Select1stISA_ESt4lessIS5_ESaISA_EE5beginEv
FN:968,_ZNSt8_Rb_treeINSt7__cxx1112basic_stringIcSt11char_traitsIcESaIcEEESt4pairIKS5_N6Entity6ColumnEESt10_Select1stISA_ESt4lessIS5_ESaISA_EE3endEv
FN:996,_ZNKSt8_Rb_treeINSt7__cxx1112basic_stringIcSt11char_traitsIcESaIcEEESt4pairIKS5_N6Entity6ColumnEESt10_Select1stISA_ESt4lessIS5_ESaISA_EE4sizeEv
FN:1740,_ZNSt8_Rb_treeINSt7__cxx1112basic_stringIcSt11char_traitsIcESaIcEEESt4pairIKS5_N6Entity6ColumnEESt10_Select1stISA_ESt4lessIS5_ESaISA_EE10_M_insert_IRKSA_NSG_11_Alloc_nodeEEESt17_Rb_tree_iteratorISA_EPSt18_Rb_tree_node_baseSO_OT_RT0_
FN:1850,_ZNSt8_Rb_treeINSt7__cxx1112basic_stringIcSt11char_traitsIcESaIcEEESt4pairIKS5_N6Entity6ColumnEESt10_Select1stISA_ESt4lessIS5_ESaISA_EE8_M_eraseEPSt13_Rb_tree_nodeISA_E
FN:2028,_ZNSt8_Rb_treeINSt7__cxx1112basic_stringIcSt11char_traitsIcESaIcEEESt4pairIKS5_N6Entity6ColumnEESt10_Select1stISA_ESt4lessIS5_ESaISA_EE24_M_get_insert_unique_posERS7_
FN:2130,_ZNSt8_Rb_treeINSt7__cxx1112basic_stringIcSt11char_traitsIcESaIcEEESt4pairIKS5_N6Entity6ColumnEESt10_Select1stISA_ESt4lessIS5_ESaISA_EE29_M_get_insert_hint_unique_posESt23_Rb_tree_const_iteratorISA_ERS7_
FN:2191,_ZNSt8_Rb_treeINSt7__cxx1112basic_stringIcSt11char_traitsIcESaIcEEESt4pairIKS5_N6Entity6ColumnEESt10_Select1stISA_ESt4lessIS5_ESaISA_EE17_M_insert_unique_IRKSA_NSG_11_Alloc_nodeEEESt17_Rb_tree_iteratorISA_ESt23_Rb_tree_const_iteratorISA_EOT_RT0_
FN:2447,_ZNSt8_Rb_treeINSt7__cxx1112basic_stringIcSt11char_traitsIcESaIcEEESt4pairIKS5_N6Entity6ColumnEESt10_Select1stISA_ESt4lessIS5_ESaISA_EE16_M_insert_uniqueIPKSA_EEvT_SK_
FNDA:0,_ZNSt20_Rb_tree_key_compareISt4lessINSt7__cxx1112basic_stringIcSt11char_traitsIcESaIcEEEEEC2ERKS7_
FNDA:0,_ZNSt15_Rb_tree_headerC2Ev
FNDA:0,_ZNSt15_Rb_tree_header8_M_resetEv
FNDA:0,_ZNSt13_Rb_tree_nodeISt4pairIKNSt7__cxx1112basic_stringIcSt11char_traitsIcESaIcEEEN6Entity6ColumnEEE9_M_valptrEv
FNDA:0,_ZNKSt13_Rb_tree_nodeISt4pairIKNSt7__cxx1112basic_stringIcSt11char_traitsIcESaIcEEEN6Entity6ColumnEEE9_M_valptrEv
FNDA:0,_ZNSt17_Rb_tree_iteratorISt4pairIKNSt7__cxx1112basic_stringIcSt11char_traitsIcESaIcEEEN6Entity6ColumnEEEC2EPSt18_Rb_tree_node_base
FNDA:0,_ZNSt17_Rb_tree_iteratorISt4pairIKNSt7__cxx1112basic_stringIcSt11char_traitsIcESaIcEEEN6Entity6ColumnEEEppEv
FNDA:0,_ZNSt17_Rb_tree_iteratorISt4pairIKNSt7__cxx1112basic_stringIcSt11char_traitsIcESaIcEEEN6Entity6ColumnEEEmmEv
FNDA:0,_ZNKSt17_Rb_tree_iteratorISt4pairIKNSt7__cxx1112basic_stringIcSt11char_traitsIcESaIcEEEN6Entity6ColumnEEEeqERKSB_
FNDA:0,_ZNSt23_Rb_tree_const_iteratorISt4pairIKNSt7__cxx1112basic_stringIcSt11char_traitsIcESaIcEEEN6Entity6ColumnEEEC2ERKSt17_Rb_tree_iteratorISA_E
FNDA:0,_ZNKSt23_Rb_tree_const_iteratorISt4pairIKNSt7__cxx1112basic_stringIcSt11char_traitsIcESaIcEEEN6Entity6ColumnEEE13_M_const_castEv
FNDA:0,_ZNSt8_Rb_treeINSt7__cxx1112basic_stringIcSt11char_traitsIcESaIcEEESt4pairIKS5_N6Entity6ColumnEESt10_Select1stISA_ESt4lessIS5_ESaISA_EE11_Alloc_nodeC2ERSG_
FNDA:0,_ZNKSt8_Rb_treeINSt7__cxx1112basic_stringIcSt11char_traitsIcESaIcEEESt4pairIKS5_N6Entity6ColumnEESt10_Select1stISA_ESt4lessIS5_ESaISA_EE11_Alloc_nodeclIRKSA_EEPSt13_Rb_tree_nodeISA_EOT_
FNDA:0,_ZNSt8_Rb_treeINSt7__cxx1112basic_stringIcSt11char_traitsIcESaIcEEESt4pairIKS5_N6Entity6ColumnEESt10_Select1stISA_ESt4lessIS5_ESaISA_EE21_M_get_Node_allocatorEv
FNDA:0,_ZNSt8_Rb_treeINSt7__cxx1112basic_stringIcSt11char_traitsIcESaIcEEESt4pairIKS5_N6Entity6ColumnEESt10_Select1stISA_ESt4lessIS5_ESaISA_EE11_M_get_nodeEv
FNDA:0,_ZNSt8_Rb_treeINSt7__cxx1112basic_stringIcSt11char_traitsIcESaIcEEESt4pairIKS5_N6Entity6ColumnEESt10_Select1stISA_ESt4lessIS5_ESaISA_EE11_M_put_nodeEPSt13_Rb_tree_nodeISA_E
FNDA:0,_ZNSt8_Rb_treeINSt7__cxx1112basic_stringIcSt11char_traitsIcESaIcEEESt4pairIKS5_N6Entity6ColumnEESt10_Select1stISA_ESt4lessIS5_ESaISA_EE17_M_construct_nodeIJRKSA_EEEvPSt13_Rb_tree_nodeISA_EDpOT_
FNDA:0,_ZNSt8_Rb_treeINSt7__cxx1112basic_stringIcSt11char_traitsIcESaIcEEESt4pairIKS5_N6Entity6ColumnEESt10_Select1stISA_ESt4lessIS5_ESaISA_EE14_M_create_nodeIJRKSA_EEEPSt13_Rb_tree_nodeISA_EDpOT_
FNDA:0,_ZNSt8_Rb_treeINSt7__cxx1112basic_stringIcSt11char_traitsIcESaIcEEESt4pairIKS5_N6Entity6ColumnEESt10_Select1stISA_ESt4lessIS5_ESaISA_EE15_M_destroy_nodeEPSt13_Rb_tree_nodeISA_E
FNDA:0,_ZNSt8_Rb_treeINSt7__cxx1112basic_stringIcSt11char_traitsIcESaIcEEESt4pairIKS5_N6Entity6ColumnEESt10_Select1stISA_ESt4lessIS5_ESaISA_EE12_M_drop_nodeEPSt13_Rb_tree_nodeISA_E
FNDA:0,_ZNSt8_Rb_treeINSt7__cxx1112basic_stringIcSt11char_traitsIcESaIcEEESt4pairIKS5_N6Entity6ColumnEESt10_Select1stISA_ESt4lessIS5_ESaISA_EE13_Rb_tree_implISE_Lb1EED2Ev
FNDA:0,_ZNSt8_Rb_treeINSt7__cxx1112basic_stringIcSt11char_traitsIcESaIcEEESt4pairIKS5_N6Entity6ColumnEESt10_Select1stISA_ESt4lessIS5_ESaISA_EE13_Rb_tree_implISE_Lb1EEC2ERKSE_OSaISt13_Rb_tree_nodeISA_EE
FNDA:0,_ZNSt8_Rb_treeINSt7__cxx1112basic_stringIcSt11char_traitsIcESaIcEEESt4pairIKS5_N6Entity6ColumnEESt10_Select1stISA_ESt4lessIS5_ESaISA_EE11_M_leftmostEv
FNDA:0,_ZNSt8_Rb_treeINSt7__cxx1112basic_stringIcSt11char_traitsIcESaIcEEESt4pairIKS5_N6Entity6ColumnEESt10_Select1stISA_ESt4lessIS5_ESaISA_EE12_M_rightmostEv
FNDA:0,_ZNSt8_Rb_treeINSt7__cxx1112basic_stringIcSt11char_traitsIcESaIcEEESt4pairIKS5_N6Entity6ColumnEESt10_Select1stISA_ESt4lessIS5_ESaISA_EE8_M_beginEv
FNDA:0,_ZNSt8_Rb_treeINSt7__cxx1112basic_stringIcSt11char_traitsIcESaIcEEESt4pairIKS5_N6Entity6ColumnEESt10_Select1stISA_ESt4lessIS5_ESaISA_EE6_M_endEv
FNDA:0,_ZNSt8_Rb_treeINSt7__cxx1112basic_stringIcSt11char_traitsIcESaIcEEESt4pairIKS5_N6Entity6ColumnEESt10_Select1stISA_ESt4lessIS5_ESaISA_EE8_S_valueEPKSt13_Rb_tree_nodeISA_E
FNDA:0,_ZNSt8_Rb_treeINSt7__cxx1112basic_stringIcSt11char_traitsIcESaIcEEESt4pairIKS5_N6Entity6ColumnEESt10_Select1stISA_ESt4lessIS5_ESaISA_EE6_S_keyEPKSt13_Rb_tree_nodeISA_E
FNDA:0,_ZNSt8_Rb_treeINSt7__cxx1112basic_stringIcSt11char_traitsIcESaIcEEESt4pairIKS5_N6Entity6ColumnEESt10_Select1stISA_ESt4lessIS5_ESaISA_EE7_S_leftEPSt18_Rb_tree_node_base
FNDA:0,_ZNSt8_Rb_treeINSt7__cxx1112basic_stringIcSt11char_traitsIcESaIcEEESt4pairIKS5_N6Entity6ColumnEESt10_Select1stISA_ESt4lessIS5_ESaISA_EE8_S_rightEPSt18_Rb_tree_node_base
FNDA:0,_ZNSt8_Rb_treeINSt7__cxx1112basic_stringIcSt11char_traitsIcESaIcEEESt4pairIKS5_N6Entity6ColumnEESt10_Select1stISA_ESt4lessIS5_ESaISA_EE8_S_valueEPKSt18_Rb_tree_node_base
FNDA:0,_ZNSt8_Rb_treeINSt7__cxx1112basic_stringIcSt11char_traitsIcESaIcEEESt4pairIKS5_N6Entity6ColumnEESt10_Select1stISA_ESt4lessIS5_ESaISA_EE6_S_keyEPKSt18_Rb_tree_node_base
FNDA:0,_ZNSt8_Rb_treeINSt7__cxx1112basic_stringIcSt11char_traitsIcESaIcEEESt4pairIKS5_N6Entity6ColumnEESt10_Select1stISA_ESt4lessIS5_ESaISA_EEC2ERKSE_RKSF_
FNDA:0,_ZNSt8_Rb_treeINSt7__cxx1112basic_stringIcSt11char_traitsIcESaIcEEESt4pairIKS5_N6Entity6ColumnEESt10_Select1stISA_ESt4lessIS5_ESaISA_EED2Ev
FNDA:0,_ZNSt8_Rb_treeINSt7__cxx1112basic_stringIcSt11char_traitsIcESaIcEEESt4pairIKS5_N6Entity6ColumnEESt10_Select1stISA_ESt4lessIS5_ESaISA_EE5beginEv
FNDA:0,_ZNSt8_Rb_treeINSt7__cxx1112basic_stringIcSt11char_traitsIcESaIcEEESt4pairIKS5_N6Entity6ColumnEESt10_Select1stISA_ESt4lessIS5_ESaISA_EE3endEv
FNDA:0,_ZNKSt8_Rb_treeINSt7__cxx1112basic_stringIcSt11char_traitsIcESaIcEEESt4pairIKS5_N6Entity6ColumnEESt10_Select1stISA_ESt4lessIS5_ESaISA_EE4sizeEv
FNDA:0,_ZNSt8_Rb_treeINSt7__cxx1112basic_stringIcSt11char_traitsIcESaIcEEESt4pairIKS5_N6Entity6ColumnEESt10_Select1stISA_ESt4lessIS5_ESaISA_EE10_M_insert_IRKSA_NSG_11_Alloc_nodeEEESt17_Rb_tree_iteratorISA_EPSt18_Rb_tree_node_baseSO_OT_RT0_
FNDA:0,_ZNSt8_Rb_treeINSt7__cxx1112basic_stringIcSt11char_traitsIcESaIcEEESt4pairIKS5_N6Entity6ColumnEESt10_Select1stISA_ESt4lessIS5_ESaISA_EE8_M_eraseEPSt13_Rb_tree_nodeISA_E
FNDA:0,_ZNSt8_Rb_treeINSt7__cxx1112basic_stringIcSt11char_traitsIcESaIcEEESt4pairIKS5_N6Entity6ColumnEESt10_Select1stISA_ESt4lessIS5_ESaISA_EE24_M_get_insert_unique_posERS7_
FNDA:0,_ZNSt8_Rb_treeINSt7__cxx1112basic_stringIcSt11char_traitsIcESaIcEEESt4pairIKS5_N6Entity6ColumnEESt10_Select1stISA_ESt4lessIS5_ESaISA_EE29_M_get_insert_hint_unique_posESt23_Rb_tree_const_iteratorISA_ERS7_
FNDA:0,_ZNSt8_Rb_treeINSt7__cxx1112basic_stringIcSt11char_traitsIcESaIcEEESt4pairIKS5_N6Entity6ColumnEESt10_Select1stISA_ESt4lessIS5_ESaISA_EE17_M_insert_unique_IRKSA_NSG_11_Alloc_nodeEEESt17_Rb_tree_iteratorISA_ESt23_Rb_tree_const_iteratorISA_EOT_RT0_
FNDA:0,_ZNSt8_Rb_treeINSt7__cxx1112basic_stringIcSt11char_traitsIcESaIcEEESt4pairIKS5_N6Entity6ColumnEESt10_Select1stISA_ESt4lessIS5_ESaISA_EE16_M_insert_uniqueIPKSA_EEvT_SK_
FNF:43
FNH:0
DA:152,0
DA:154,0
DA:173,0
DA:174,0
DA:175,0
DA:176,0
DA:177,0
DA:206,0
DA:208,0
DA:209,0
DA:210,0
DA:211,0
DA:212,0
DA:234,0
DA:235,0
DA:238,0
DA:239,0
DA:273,0
DA:274,0
DA:285,0
DA:287,0
DA:288,0
DA:300,0
DA:302,0
DA:303,0
DA:315,0
DA:316,0
DA:348,0
DA:349,0
DA:352,0
DA:353,0
DA:546,0
DA:547,0
DA:554,0
DA:556,0
DA:574,0
DA:575,0
DA:587,0
DA:588,0
DA:591,0
DA:592,0
DA:621,0
DA:625,0
DA:626,0
DA:630,0
DA:633,0
DA:634,0
DA:636,0
DA:640,0
DA:642,0
DA:643,0
DA:644,0
DA:648,0
DA:650,0
DA:652,0
DA:656,0
DA:658,0
DA:659,0
DA:660,0
DA:677,0
DA:702,0
DA:703,0
DA:704,0
DA:720,0
DA:721,0
DA:728,0
DA:729,0
DA:736,0
DA:737,0
DA:747,0
DA:748,0
DA:755,0
DA:756,0
DA:759,0
DA:760,0
DA:763,0
DA:764,0
DA:771,0
DA:772,0
DA:779,0
DA:780,0
DA:783,0
DA:784,0
DA:916,0
DA:918,0
DA:948,0
DA:949,0
DA:960,0
DA:961,0
DA:968,0
DA:969,0
DA:996,0
DA:997,0
DA:1740,0
DA:1749,0
DA:1750,0
DA:1753,0
DA:1755,0
DA:1757,0
DA:1758,0
DA:1850,0
DA:1854,0
DA:1856,0
DA:1857,0
DA:1858,0
DA:1859,0
DA:1861,0
DA:2028,0
DA:2032,0
DA:2033,0
DA:2034,0
DA:2035,0
DA:2037,0
DA:2038,0
DA:2039,0
DA:2041,0
DA:2042,0
DA:2044,0
DA:2045,0
DA:2047,0
DA:2049,0
DA:2050,0
DA:2051,0
DA:2130,0
DA:2134,0
DA:2138,0
DA:2140,0
DA:2141,0
DA:2142,0
DA:2144,0
DA:2146,0
DA:2149,0
DA:2150,0
DA:2151,0
DA:2152,0
DA:2154,0
DA:2155,0
DA:2157,0
DA:2160,0
DA:2162,0
DA:2165,0
DA:2166,0
DA:2167,0
DA:2168,0
DA:2170,0
DA:2171,0
DA:2173,0
DA:2176,0
DA:2180,0
DA:2191,0
DA:2200,0
DA:2201,0
DA:2203,0
DA:2204,0
DA:2206,0
DA:2207,0
DA:2447,0
DA:2450,0
DA:2451,0
DA:2452,0
DA:2453,0
LF:161
LH:0
end_of_record
SF:/usr/include/c++/7/ext/aligned_buffer.h
FN:62,_ZN9__gnu_cxx16__aligned_membufISt4pairIKNSt7__cxx1112basic_stringIcSt11char_traitsIcESaIcEEEN6Entity6ColumnEEE7_M_addrEv
FN:66,_ZNK9__gnu_cxx16__aligned_membufISt4pairIKNSt7__cxx1112basic_stringIcSt11char_traitsIcESaIcEEEN6Entity6ColumnEEE7_M_addrEv
FN:70,_ZN9__gnu_cxx16__aligned_membufISt4pairIKNSt7__cxx1112basic_stringIcSt11char_traitsIcESaIcEEEN6Entity6ColumnEEE6_M_ptrEv
FN:74,_ZNK9__gnu_cxx16__aligned_membufISt4pairIKNSt7__cxx1112basic_stringIcSt11char_traitsIcESaIcEEEN6Entity6ColumnEEE6_M_ptrEv
FNDA:0,_ZN9__gnu_cxx16__aligned_membufISt4pairIKNSt7__cxx1112basic_stringIcSt11char_traitsIcESaIcEEEN6Entity6ColumnEEE7_M_addrEv
FNDA:0,_ZNK9__gnu_cxx16__aligned_membufISt4pairIKNSt7__cxx1112basic_stringIcSt11char_traitsIcESaIcEEEN6Entity6ColumnEEE7_M_addrEv
FNDA:0,_ZN9__gnu_cxx16__aligned_membufISt4pairIKNSt7__cxx1112basic_stringIcSt11char_traitsIcESaIcEEEN6Entity6ColumnEEE6_M_ptrEv
FNDA:0,_ZNK9__gnu_cxx16__aligned_membufISt4pairIKNSt7__cxx1112basic_stringIcSt11char_traitsIcESaIcEEEN6Entity6ColumnEEE6_M_ptrEv
FNF:4
FNH:0
DA:62,0
DA:63,0
DA:66,0
DA:67,0
DA:70,0
DA:71,0
DA:74,0
DA:75,0
LF:8
LH:0
end_of_record
SF:/usr/include/c++/7/ext/new_allocator.h
FN:79,_ZN9__gnu_cxx13new_allocatorISt13_Rb_tree_nodeISt4pairIKNSt7__cxx1112basic_stringIcSt11char_traitsIcESaIcEEEN6Entity6ColumnEEEEC2Ev
FN:79,_ZN9__gnu_cxx13new_allocatorISt4pairIKNSt7__cxx1112basic_stringIcSt11char_traitsIcESaIcEEEN6Entity6ColumnEEEC2Ev
FN:81,_ZN9__gnu_cxx13new_allocatorISt13_Rb_tree_nodeISt4pairIKNSt7__cxx1112basic_stringIcSt11char_traitsIcESaIcEEEN6Entity6ColumnEEEEC2ERKSE_
FN:81,_ZN9__gnu_cxx13new_allocatorISt4pairIKNSt7__cxx1112basic_stringIcSt11char_traitsIcESaIcEEEN6Entity6ColumnEEEC2ERKSC_
FN:86,_ZN9__gnu_cxx13new_allocatorISt4pairIKNSt7__cxx1112basic_stringIcSt11char_traitsIcESaIcEEEN6Entity6ColumnEEED2Ev
FN:86,_ZN9__gnu_cxx13new_allocatorISt13_Rb_tree_nodeISt4pairIKNSt7__cxx1112basic_stringIcSt11char_traitsIcESaIcEEEN6Entity6ColumnEEEED2Ev
FN:99,_ZN9__gnu_cxx13new_allocatorISt13_Rb_tree_nodeISt4pairIKNSt7__cxx1112basic_stringIcSt11char_traitsIcESaIcEEEN6Entity6ColumnEEEE8allocateEmPKv
FN:116,_ZN9__gnu_cxx13new_allocatorISt13_Rb_tree_nodeISt4pairIKNSt7__cxx1112basic_stringIcSt11char_traitsIcESaIcEEEN6Entity6ColumnEEEE10deallocateEPSD_m
FN:129,_ZNK9__gnu_cxx13new_allocatorISt13_Rb_tree_nodeISt4pairIKNSt7__cxx1112basic_stringIcSt11char_traitsIcESaIcEEEN6Entity6ColumnEEEE8max_sizeEv
FN:135,_ZN9__gnu_cxx13new_allocatorISt13_Rb_tree_nodeISt4pairIKNSt7__cxx1112basic_stringIcSt11char_traitsIcESaIcEEEN6Entity6ColumnEEEE9constructISC_JRKSC_EEEvPT_DpOT0_
FN:140,_ZN9__gnu_cxx13new_allocatorISt13_Rb_tree_nodeISt4pairIKNSt7__cxx1112basic_stringIcSt11char_traitsIcESaIcEEEN6Entity6ColumnEEEE7destroyISC_EEvPT_
FNDA:0,_ZN9__gnu_cxx13new_allocatorISt13_Rb_tree_nodeISt4pairIKNSt7__cxx1112basic_stringIcSt11char_traitsIcESaIcEEEN6Entity6ColumnEEEEC2Ev
FNDA:0,_ZN9__gnu_cxx13new_allocatorISt4pairIKNSt7__cxx1112basic_stringIcSt11char_traitsIcESaIcEEEN6Entity6ColumnEEEC2Ev
FNDA:0,_ZN9__gnu_cxx13new_allocatorISt13_Rb_tree_nodeISt4pairIKNSt7__cxx1112basic_stringIcSt11char_traitsIcESaIcEEEN6Entity6ColumnEEEEC2ERKSE_
FNDA:0,_ZN9__gnu_cxx13new_allocatorISt4pairIKNSt7__cxx1112basic_stringIcSt11char_traitsIcESaIcEEEN6Entity6ColumnEEEC2ERKSC_
FNDA:0,_ZN9__gnu_cxx13new_allocatorISt13_Rb_tree_nodeISt4pairIKNSt7__cxx1112basic_stringIcSt11char_traitsIcESaIcEEEN6Entity6ColumnEEEED2Ev
FNDA:0,_ZN9__gnu_cxx13new_allocatorISt4pairIKNSt7__cxx1112basic_stringIcSt11char_traitsIcESaIcEEEN6Entity6ColumnEEED2Ev
FNDA:0,_ZN9__gnu_cxx13new_allocatorISt13_Rb_tree_nodeISt4pairIKNSt7__cxx1112basic_stringIcSt11char_traitsIcESaIcEEEN6Entity6ColumnEEEE8allocateEmPKv
FNDA:0,_ZN9__gnu_cxx13new_allocatorISt13_Rb_tree_nodeISt4pairIKNSt7__cxx1112basic_stringIcSt11char_traitsIcESaIcEEEN6Entity6ColumnEEEE10deallocateEPSD_m
FNDA:0,_ZNK9__gnu_cxx13new_allocatorISt13_Rb_tree_nodeISt4pairIKNSt7__cxx1112basic_stringIcSt11char_traitsIcESaIcEEEN6Entity6ColumnEEEE8max_sizeEv
FNDA:0,_ZN9__gnu_cxx13new_allocatorISt13_Rb_tree_nodeISt4pairIKNSt7__cxx1112basic_stringIcSt11char_traitsIcESaIcEEEN6Entity6ColumnEEEE9constructISC_JRKSC_EEEvPT_DpOT0_
FNDA:0,_ZN9__gnu_cxx13new_allocatorISt13_Rb_tree_nodeISt4pairIKNSt7__cxx1112basic_stringIcSt11char_traitsIcESaIcEEEN6Entity6ColumnEEEE7destroyISC_EEvPT_
FNF:11
FNH:0
DA:79,0
DA:81,0
DA:86,0
DA:99,0
DA:101,0
DA:102,0
DA:111,0
DA:116,0
DA:125,0
DA:126,0
DA:129,0
DA:130,0
DA:135,0
DA:136,0
DA:140,0
LF:15
LH:0
end_of_record
SF:/usr/include/c++/7/initializer_list
FN:71,_ZNKSt16initializer_listISt4pairIKNSt7__cxx1112basic_stringIcSt11char_traitsIcESaIcEEEN6Entity6ColumnEEE4sizeEv
FN:75,_ZNKSt16initializer_listISt4pairIKNSt7__cxx1112basic_stringIcSt11char_traitsIcESaIcEEEN6Entity6ColumnEEE5beginEv
FN:79,_ZNKSt16initializer_listISt4pairIKNSt7__cxx1112basic_stringIcSt11char_traitsIcESaIcEEEN6Entity6ColumnEEE3endEv
FNDA:0,_ZNKSt16initializer_listISt4pairIKNSt7__cxx1112basic_stringIcSt11char_traitsIcESaIcEEEN6Entity6ColumnEEE4sizeEv
FNDA:0,_ZNKSt16initializer_listISt4pairIKNSt7__cxx1112basic_stringIcSt11char_traitsIcESaIcEEEN6Entity6ColumnEEE5beginEv
FNDA:0,_ZNKSt16initializer_listISt4pairIKNSt7__cxx1112basic_stringIcSt11char_traitsIcESaIcEEEN6Entity6ColumnEEE3endEv
FNF:3
FNH:0
DA:71,0
DA:75,0
DA:79,0
LF:3
LH:0
end_of_record
SF:/usr/include/c++/7/new
FN:168,_ZnwmPv
FN:174,_ZdlPvS_
FNDA:0,_ZnwmPv
FNDA:0,_ZdlPvS_
FNF:2
FNH:0
DA:168,0
DA:169,0
DA:174,0
LF:3
LH:0
end_of_record
SF:/home/xronia/workspace/PBase/Entity/NameMaster.cc
FN:15,_ZN6Entity10NameMasterC2Ev
FN:19,_ZN6Entity10NameMasterC2ERKNSt7__cxx1112basic_stringIcSt11char_traitsIcESaIcEEE
FN:23,_ZN6Entity10NameMasterD2Ev
FN:33,_GLOBAL__sub_I_NameMaster.cc
FN:33,_Z41__static_initialization_and_destruction_0ii
FNDA:32,_ZN6Entity10NameMasterC2Ev
FNDA:62,_ZN6Entity10NameMasterC2ERKNSt7__cxx1112basic_stringIcSt11char_traitsIcESaIcEEE
FNDA:94,_ZN6Entity10NameMasterD2Ev
FNDA:33,_GLOBAL__sub_I_NameMaster.cc
FNDA:33,_Z41__static_initialization_and_destruction_0ii
FNF:5
FNH:5
DA:13,33
DA:15,32
DA:17,32
DA:19,62
DA:21,62
DA:23,94
DA:25,94
DA:27,33
DA:29,33
DA:33,99
LF:10
LH:10
end_of_record
TN:
SF:/home/xronia/workspace/PBase/Entity/EntityDef.h
FN:59,_ZN6Entity9EntityDefC2ERKS0_
FNDA:4,_ZN6Entity9EntityDefC2ERKS0_
FNF:1
FNH:1
DA:59,4
LF:1
LH:1
end_of_record
SF:/usr/include/c++/7/bits/alloc_traits.h
FN:435,_ZNSt16allocator_traitsISaISt13_Rb_tree_nodeISt4pairIKNSt7__cxx1112basic_stringIcSt11char_traitsIcESaIcEEEN6Entity6ColumnEEEEE8allocateERSD_m
FN:435,_ZNSt16allocator_traitsISaISt13_Rb_tree_nodeISt4pairIKNSt7__cxx1112basic_stringIcSt11char_traitsIcESaIcEEEN6Entity9EntityDefEEEEE8allocateERSD_m
FN:461,_ZNSt16allocator_traitsISaISt13_Rb_tree_nodeISt4pairIKNSt7__cxx1112basic_stringIcSt11char_traitsIcESaIcEEEN6Entity9EntityDefEEEEE10deallocateERSD_PSC_m
FN:461,_ZNSt16allocator_traitsISaISt13_Rb_tree_nodeISt4pairIKNSt7__cxx1112basic_stringIcSt11char_traitsIcESaIcEEEN6Entity6ColumnEEEEE10deallocateERSD_PSC_m
FN:474,_ZNSt16allocator_traitsISaISt13_Rb_tree_nodeISt4pairIKNSt7__cxx1112basic_stringIcSt11char_traitsIcESaIcEEEN6Entity9EntityDefEEEEE9constructISB_JRS8_RKSA_EEEvRSD_PT_DpOT0_
FN:474,_ZNSt16allocator_traitsISaISt13_Rb_tree_nodeISt4pairIKNSt7__cxx1112basic_stringIcSt11char_traitsIcESaIcEEEN6Entity6ColumnEEEEE9constructISB_JRKSB_EEEvRSD_PT_DpOT0_
FN:486,_ZNSt16allocator_traitsISaISt13_Rb_tree_nodeISt4pairIKNSt7__cxx1112basic_stringIcSt11char_traitsIcESaIcEEEN6Entity9EntityDefEEEEE7destroyISB_EEvRSD_PT_
FN:486,_ZNSt16allocator_traitsISaISt13_Rb_tree_nodeISt4pairIKNSt7__cxx1112basic_stringIcSt11char_traitsIcESaIcEEEN6Entity6ColumnEEEEE7destroyISB_EEvRSD_PT_
FN:504,_ZNSt16allocator_traitsISaISt13_Rb_tree_nodeISt4pairIKNSt7__cxx1112basic_stringIcSt11char_traitsIcESaIcEEEN6Entity6ColumnEEEEE37select_on_container_copy_constructionERKSD_
FNDA:105,_ZNSt16allocator_traitsISaISt13_Rb_tree_nodeISt4pairIKNSt7__cxx1112basic_stringIcSt11char_traitsIcESaIcEEEN6Entity6ColumnEEEEE8allocateERSD_m
FNDA:164,_ZNSt16allocator_traitsISaISt13_Rb_tree_nodeISt4pairIKNSt7__cxx1112basic_stringIcSt11char_traitsIcESaIcEEEN6Entity9EntityDefEEEEE8allocateERSD_m
FNDA:105,_ZNSt16allocator_traitsISaISt13_Rb_tree_nodeISt4pairIKNSt7__cxx1112basic_stringIcSt11char_traitsIcESaIcEEEN6Entity6ColumnEEEEE10deallocateERSD_PSC_m
FNDA:164,_ZNSt16allocator_traitsISaISt13_Rb_tree_nodeISt4pairIKNSt7__cxx1112basic_stringIcSt11char_traitsIcESaIcEEEN6Entity9EntityDefEEEEE10deallocateERSD_PSC_m
FNDA:105,_ZNSt16allocator_traitsISaISt13_Rb_tree_nodeISt4pairIKNSt7__cxx1112basic_stringIcSt11char_traitsIcESaIcEEEN6Entity6ColumnEEEEE9constructISB_JRKSB_EEEvRSD_PT_DpOT0_
FNDA:164,_ZNSt16allocator_traitsISaISt13_Rb_tree_nodeISt4pairIKNSt7__cxx1112basic_stringIcSt11char_traitsIcESaIcEEEN6Entity9EntityDefEEEEE9constructISB_JRS8_RKSA_EEEvRSD_PT_DpOT0_
FNDA:105,_ZNSt16allocator_traitsISaISt13_Rb_tree_nodeISt4pairIKNSt7__cxx1112basic_stringIcSt11char_traitsIcESaIcEEEN6Entity6ColumnEEEEE7destroyISB_EEvRSD_PT_
FNDA:164,_ZNSt16allocator_traitsISaISt13_Rb_tree_nodeISt4pairIKNSt7__cxx1112basic_stringIcSt11char_traitsIcESaIcEEEN6Entity9EntityDefEEEEE7destroyISB_EEvRSD_PT_
FNDA:8,_ZNSt16allocator_traitsISaISt13_Rb_tree_nodeISt4pairIKNSt7__cxx1112basic_stringIcSt11char_traitsIcESaIcEEEN6Entity6ColumnEEEEE37select_on_container_copy_constructionERKSD_
FNF:9
FNH:9
DA:435,269
DA:436,269
DA:461,269
DA:462,269
DA:474,269
DA:475,269
DA:486,269
DA:487,269
DA:504,8
DA:505,8
LF:10
LH:10
end_of_record
SF:/usr/include/c++/7/bits/allocator.h
FN:131,_ZNSaISt13_Rb_tree_nodeISt4pairIKNSt7__cxx1112basic_stringIcSt11char_traitsIcESaIcEEEN6Entity9EntityDefEEEEC2Ev
FN:133,_ZNSaISt13_Rb_tree_nodeISt4pairIKNSt7__cxx1112basic_stringIcSt11char_traitsIcESaIcEEEN6Entity6ColumnEEEEC2ERKSC_
FN:139,_ZNSaISt13_Rb_tree_nodeISt4pairIKNSt7__cxx1112basic_stringIcSt11char_traitsIcESaIcEEEN6Entity6ColumnEEEED2Ev
FN:139,_ZNSaISt13_Rb_tree_nodeISt4pairIKNSt7__cxx1112basic_stringIcSt11char_traitsIcESaIcEEEN6Entity9EntityDefEEEED2Ev
FNDA:33,_ZNSaISt13_Rb_tree_nodeISt4pairIKNSt7__cxx1112basic_stringIcSt11char_traitsIcESaIcEEEN6Entity9EntityDefEEEEC2Ev
FNDA:12,_ZNSaISt13_Rb_tree_nodeISt4pairIKNSt7__cxx1112basic_stringIcSt11char_traitsIcESaIcEEEN6Entity6ColumnEEEEC2ERKSC_
FNDA:16,_ZNSaISt13_Rb_tree_nodeISt4pairIKNSt7__cxx1112basic_stringIcSt11char_traitsIcESaIcEEEN6Entity6ColumnEEEED2Ev
FNDA:33,_ZNSaISt13_Rb_tree_nodeISt4pairIKNSt7__cxx1112basic_stringIcSt11char_traitsIcESaIcEEEN6Entity9EntityDefEEEED2Ev
FNF:4
FNH:4
DA:131,33
DA:133,12
DA:134,12
DA:139,49
LF:4
LH:4
end_of_record
SF:/usr/include/c++/7/bits/basic_string.h
FN:6082,_ZStltIcSt11char_traitsIcESaIcEEbRKNSt7__cxx1112basic_stringIT_T0_T1_EESA_
FNDA:0,_ZStltIcSt11char_traitsIcESaIcEEbRKNSt7__cxx1112basic_stringIT_T0_T1_EESA_
FNF:1
FNH:0
DA:6082,0
DA:6085,0
LF:2
LH:0
end_of_record
SF:/usr/include/c++/7/bits/ios_base.h
FN:129,_ZStorSt13_Ios_OpenmodeS_
FNDA:0,_ZStorSt13_Ios_OpenmodeS_
FNF:1
FNH:0
DA:129,0
DA:130,0
LF:2
LH:0
end_of_record
SF:/usr/include/c++/7/bits/move.h
FN:73,_ZSt7forwardIRKN6Entity9EntityDefEEOT_RNSt16remove_referenceIS4_E4typeE
FN:73,_ZSt7forwardIRKNSt7__cxx1112basic_stringIcSt11char_traitsIcESaIcEEEEOT_RNSt16remove_referenceIS8_E4typeE
FN:73,_ZSt7forwardIbEOT_RNSt16remove_referenceIS0_E4typeE
FN:73,_ZSt7forwardIRKSt4pairIKNSt7__cxx1112basic_stringIcSt11char_traitsIcESaIcEEEN6Entity6ColumnEEEOT_RNSt16remove_referenceISD_E4typeE
FN:73,_ZSt7forwardIRPSt18_Rb_tree_node_baseEOT_RNSt16remove_referenceIS3_E4typeE
FN:73,_ZSt7forwardIRPSt13_Rb_tree_nodeISt4pairIKNSt7__cxx1112basic_stringIcSt11char_traitsIcESaIcEEEN6Entity9EntityDefEEEEOT_RNSt16remove_referenceISF_E4typeE
FN:73,_ZSt7forwardISt17_Rb_tree_iteratorISt4pairIKNSt7__cxx1112basic_stringIcSt11char_traitsIcESaIcEEEN6Entity9EntityDefEEEEOT_RNSt16remove_referenceISD_E4typeE
FNDA:595,_ZSt7forwardIRKSt4pairIKNSt7__cxx1112basic_stringIcSt11char_traitsIcESaIcEEEN6Entity6ColumnEEEOT_RNSt16remove_referenceISD_E4typeE
FNDA:40,_ZSt7forwardIbEOT_RNSt16remove_referenceIS0_E4typeE
FNDA:164,_ZSt7forwardISt17_Rb_tree_iteratorISt4pairIKNSt7__cxx1112basic_stringIcSt11char_traitsIcESaIcEEEN6Entity9EntityDefEEEEOT_RNSt16remove_referenceISD_E4typeE
FNDA:0,_ZSt7forwardIRPSt18_Rb_tree_node_baseEOT_RNSt16remove_referenceIS3_E4typeE
FNDA:164,_ZSt7forwardIRPSt13_Rb_tree_nodeISt4pairIKNSt7__cxx1112basic_stringIcSt11char_traitsIcESaIcEEEN6Entity9EntityDefEEEEOT_RNSt16remove_referenceISF_E4typeE
FNDA:984,_ZSt7forwardIRKN6Entity9EntityDefEEOT_RNSt16remove_referenceIS4_E4typeE
FNDA:0,_ZSt7forwardIRKNSt7__cxx1112basic_stringIcSt11char_traitsIcESaIcEEEEOT_RNSt16remove_referenceIS8_E4typeE
FNF:7
FNH:5
DA:73,1947
DA:74,1947
LF:2
LH:2
end_of_record
SF:/usr/include/c++/7/bits/stl_function.h
FN:385,_ZNKSt4lessINSt7__cxx1112basic_stringIcSt11char_traitsIcESaIcEEEEclERKS5_S8_
FN:890,_ZNKSt10_Select1stISt4pairIKNSt7__cxx1112basic_stringIcSt11char_traitsIcESaIcEEEN6Entity9EntityDefEEEclERKSA_
FNDA:0,_ZNKSt4lessINSt7__cxx1112basic_stringIcSt11char_traitsIcESaIcEEEEclERKS5_S8_
FNDA:3950,_ZNKSt10_Select1stISt4pairIKNSt7__cxx1112basic_stringIcSt11char_traitsIcESaIcEEEN6Entity9EntityDefEEEclERKSA_
FNF:2
FNH:1
DA:385,0
DA:386,0
DA:890,3950
DA:891,3950
LF:4
LH:2
end_of_record
SF:/usr/include/c++/7/bits/stl_map.h
FN:177,_ZNSt3mapINSt7__cxx1112basic_stringIcSt11char_traitsIcESaIcEEEN6Entity9EntityDefESt4lessIS5_ESaISt4pairIKS5_S7_EEEC2Ev
FN:199,_ZNSt3mapINSt7__cxx1112basic_stringIcSt11char_traitsIcESaIcEEEN6Entity6ColumnESt4lessIS5_ESaISt4pairIKS5_S7_EEEC2ERKSE_
FN:294,_ZNSt3mapINSt7__cxx1112basic_stringIcSt11char_traitsIcESaIcEEEN6Entity9EntityDefESt4lessIS5_ESaISt4pairIKS5_S7_EEED2Ev
FN:348,_ZNSt3mapINSt7__cxx1112basic_stringIcSt11char_traitsIcESaIcEEEN6Entity9EntityDefESt4lessIS5_ESaISt4pairIKS5_S7_EEE5beginEv
FN:366,_ZNSt3mapINSt7__cxx1112basic_stringIcSt11char_traitsIcESaIcEEEN6Entity9EntityDefESt4lessIS5_ESaISt4pairIKS5_S7_EEE3endEv
FN:568,_ZNSt3mapINSt7__cxx1112basic_stringIcSt11char_traitsIcESaIcEEEN6Entity9EntityDefESt4lessIS5_ESaISt4pairIKS5_S7_EEE7emplaceIJRSB_RKS7_EEESA_ISt17_Rb_tree_iteratorISC_EbEDpOT_
FN:1127,_ZNSt3mapINSt7__cxx1112basic_stringIcSt11char_traitsIcESaIcEEEN6Entity9EntityDefESt4lessIS5_ESaISt4pairIKS5_S7_EEE5clearEv
FN:1163,_ZNSt3mapINSt7__cxx1112basic_stringIcSt11char_traitsIcESaIcEEEN6Entity9EntityDefESt4lessIS5_ESaISt4pairIKS5_S7_EEE4findERSB_
FNDA:33,_ZNSt3mapINSt7__cxx1112basic_stringIcSt11char_traitsIcESaIcEEEN6Entity9EntityDefESt4lessIS5_ESaISt4pairIKS5_S7_EEEC2Ev
FNDA:8,_ZNSt3mapINSt7__cxx1112basic_stringIcSt11char_traitsIcESaIcEEEN6Entity6ColumnESt4lessIS5_ESaISt4pairIKS5_S7_EEEC2ERKSE_
FNDA:33,_ZNSt3mapINSt7__cxx1112basic_stringIcSt11char_traitsIcESaIcEEEN6Entity9EntityDefESt4lessIS5_ESaISt4pairIKS5_S7_EEED2Ev
FNDA:32,_ZNSt3mapINSt7__cxx1112basic_stringIcSt11char_traitsIcESaIcEEEN6Entity9EntityDefESt4lessIS5_ESaISt4pairIKS5_S7_EEE5beginEv
FNDA:1032,_ZNSt3mapINSt7__cxx1112basic_stringIcSt11char_traitsIcESaIcEEEN6Entity9EntityDefESt4lessIS5_ESaISt4pairIKS5_S7_EEE3endEv
FNDA:164,_ZNSt3mapINSt7__cxx1112basic_stringIcSt11char_traitsIcESaIcEEEN6Entity9EntityDefESt4lessIS5_ESaISt4pairIKS5_S7_EEE7emplaceIJRSB_RKS7_EEESA_ISt17_Rb_tree_iteratorISC_EbEDpOT_
FNDA:32,_ZNSt3mapINSt7__cxx1112basic_stringIcSt11char_traitsIcESaIcEEEN6Entity9EntityDefESt4lessIS5_ESaISt4pairIKS5_S7_EEE5clearEv
FNDA:840,_ZNSt3mapINSt7__cxx1112basic_stringIcSt11char_traitsIcESaIcEEEN6Entity9EntityDefESt4lessIS5_ESaISt4pairIKS5_S7_EEE4findERSB_
FNF:8
FNH:8
DA:177,33
DA:199,8
DA:294,33
DA:348,32
DA:349,32
DA:366,1032
DA:367,1032
DA:568,164
DA:569,164
DA:1127,32
DA:1128,32
DA:1163,840
DA:1164,840
LF:13
LH:13
end_of_record
SF:/usr/include/c++/7/bits/stl_pair.h
FN:198,_ZNSt4pairIKNSt7__cxx1112basic_stringIcSt11char_traitsIcESaIcEEEN6Entity6ColumnEED2Ev
FN:198,_ZNSt4pairIKNSt7__cxx1112basic_stringIcSt11char_traitsIcESaIcEEEN6Entity9EntityDefEED2Ev
FN:249,_ZNSt4pairIKNSt7__cxx1112basic_stringIcSt11char_traitsIcESaIcEEEN6Entity9EntityDefEEC2IS6_S8_Lb1EEERS6_RKS8_
FN:292,_ZNSt4pairIKNSt7__cxx1112basic_stringIcSt11char_traitsIcESaIcEEEN6Entity6ColumnEEC2ERKS9_
FN:300,_ZNSt4pairIPSt18_Rb_tree_node_baseS1_EC2IRS1_Lb1EEEOT_RKS1_
FN:330,_ZNSt4pairIPSt18_Rb_tree_node_baseS1_EC2IRPSt13_Rb_tree_nodeIS_IKNSt7__cxx1112basic_stringIcSt11char_traitsIcESaIcEEEN6Entity9EntityDefEEERS1_Lb1EEEOT_OT0_
FN:330,_ZNSt4pairISt17_Rb_tree_iteratorIS_IKNSt7__cxx1112basic_stringIcSt11char_traitsIcESaIcEEEN6Entity9EntityDefEEEbEC2ISB_bLb1EEEOT_OT0_
FNDA:140,_ZNSt4pairIKNSt7__cxx1112basic_stringIcSt11char_traitsIcESaIcEEEN6Entity6ColumnEED2Ev
FNDA:164,_ZNSt4pairIKNSt7__cxx1112basic_stringIcSt11char_traitsIcESaIcEEEN6Entity9EntityDefEED2Ev
FNDA:164,_ZNSt4pairIKNSt7__cxx1112basic_stringIcSt11char_traitsIcESaIcEEEN6Entity9EntityDefEEC2IS6_S8_Lb1EEERS6_RKS8_
FNDA:105,_ZNSt4pairIKNSt7__cxx1112basic_stringIcSt11char_traitsIcESaIcEEEN6Entity6ColumnEEC2ERKS9_
FNDA:0,_ZNSt4pairIPSt18_Rb_tree_node_baseS1_EC2IRS1_Lb1EEEOT_RKS1_
FNDA:164,_ZNSt4pairISt17_Rb_tree_iteratorIS_IKNSt7__cxx1112basic_stringIcSt11char_traitsIcESaIcEEEN6Entity9EntityDefEEEbEC2ISB_bLb1EEEOT_OT0_
FNDA:164,_ZNSt4pairIPSt18_Rb_tree_node_baseS1_EC2IRPSt13_Rb_tree_nodeIS_IKNSt7__cxx1112basic_stringIcSt11char_traitsIcESaIcEEEN6Entity9EntityDefEEERS1_Lb1EEEOT_OT0_
FNF:7
FNH:6
DA:198,304
DA:249,164
DA:250,164
DA:292,105
DA:300,0
DA:301,0
DA:330,328
DA:331,328
LF:8
LH:6
end_of_record
SF:/usr/include/c++/7/bits/stl_tree.h
FN:112,_ZNSt18_Rb_tree_node_base10_S_minimumEPS_
FN:126,_ZNSt18_Rb_tree_node_base10_S_maximumEPS_
FN:146,_ZNSt20_Rb_tree_key_compareISt4lessINSt7__cxx1112basic_stringIcSt11char_traitsIcESaIcEEEEEC2Ev
FN:152,_ZNSt20_Rb_tree_key_compareISt4lessINSt7__cxx1112basic_stringIcSt11char_traitsIcESaIcEEEEEC2ERKS7_
FN:173,_ZNSt15_Rb_tree_headerC2Ev
FN:206,_ZNSt15_Rb_tree_header8_M_resetEv
FN:234,_ZNSt13_Rb_tree_nodeISt4pairIKNSt7__cxx1112basic_stringIcSt11char_traitsIcESaIcEEEN6Entity9EntityDefEEE9_M_valptrEv
FN:234,_ZNSt13_Rb_tree_nodeISt4pairIKNSt7__cxx1112basic_stringIcSt11char_traitsIcESaIcEEEN6Entity6ColumnEEE9_M_valptrEv
FN:238,_ZNKSt13_Rb_tree_nodeISt4pairIKNSt7__cxx1112basic_stringIcSt11char_traitsIcESaIcEEEN6Entity6ColumnEEE9_M_valptrEv
FN:238,_ZNKSt13_Rb_tree_nodeISt4pairIKNSt7__cxx1112basic_stringIcSt11char_traitsIcESaIcEEEN6Entity9EntityDefEEE9_M_valptrEv
FN:273,_ZNSt17_Rb_tree_iteratorISt4pairIKNSt7__cxx1112basic_stringIcSt11char_traitsIcESaIcEEEN6Entity9EntityDefEEEC2EPSt18_Rb_tree_node_base
FN:281,_ZNKSt17_Rb_tree_iteratorISt4pairIKNSt7__cxx1112basic_stringIcSt11char_traitsIcESaIcEEEN6Entity9EntityDefEEEptEv
FN:292,_ZNSt17_Rb_tree_iteratorISt4pairIKNSt7__cxx1112basic_stringIcSt11char_traitsIcESaIcEEEN6Entity9EntityDefEEEppEi
FN:300,_ZNSt17_Rb_tree_iteratorISt4pairIKNSt7__cxx1112basic_stringIcSt11char_traitsIcESaIcEEEN6Entity9EntityDefEEEmmEv
FN:315,_ZNKSt17_Rb_tree_iteratorISt4pairIKNSt7__cxx1112basic_stringIcSt11char_traitsIcESaIcEEEN6Entity9EntityDefEEEeqERKSB_
FN:319,_ZNKSt17_Rb_tree_iteratorISt4pairIKNSt7__cxx1112basic_stringIcSt11char_traitsIcESaIcEEEN6Entity9EntityDefEEEneERKSB_
FN:546,_ZNSt8_Rb_treeINSt7__cxx1112basic_stringIcSt11char_traitsIcESaIcEEESt4pairIKS5_N6Entity6ColumnEESt10_Select1stISA_ESt4lessIS5_ESaISA_EE11_Alloc_nodeC2ERSG_
FN:554,_ZNKSt8_Rb_treeINSt7__cxx1112basic_stringIcSt11char_traitsIcESaIcEEESt4pairIKS5_N6Entity6ColumnEESt10_Select1stISA_ESt4lessIS5_ESaISA_EE11_Alloc_nodeclIRKSA_EEPSt13_Rb_tree_nodeISA_EOT_
FN:574,_ZNSt8_Rb_treeINSt7__cxx1112basic_stringIcSt11char_traitsIcESaIcEEESt4pairIKS5_N6Entity9EntityDefEESt10_Select1stISA_ESt4lessIS5_ESaISA_EE21_M_get_Node_allocatorEv
FN:574,_ZNSt8_Rb_treeINSt7__cxx1112basic_stringIcSt11char_traitsIcESaIcEEESt4pairIKS5_N6Entity6ColumnEESt10_Select1stISA_ESt4lessIS5_ESaISA_EE21_M_get_Node_allocatorEv
FN:587,_ZNSt8_Rb_treeINSt7__cxx1112basic_stringIcSt11char_traitsIcESaIcEEESt4pairIKS5_N6Entity9EntityDefEESt10_Select1stISA_ESt4lessIS5_ESaISA_EE11_M_get_nodeEv
FN:587,_ZNSt8_Rb_treeINSt7__cxx1112basic_stringIcSt11char_traitsIcESaIcEEESt4pairIKS5_N6Entity6ColumnEESt10_Select1stISA_ESt4lessIS5_ESaISA_EE11_M_get_nodeEv
FN:591,_ZNSt8_Rb_treeINSt7__cxx1112basic_stringIcSt11char_traitsIcESaIcEEESt4pairIKS5_N6Entity9EntityDefEESt10_Select1stISA_ESt4lessIS5_ESaISA_EE11_M_put_nodeEPSt13_Rb_tree_nodeISA_E
FN:591,_ZNSt8_Rb_treeINSt7__cxx1112basic_stringIcSt11char_traitsIcESaIcEEESt4pairIKS5_N6Entity6ColumnEESt10_Select1stISA_ESt4lessIS5_ESaISA_EE11_M_put_nodeEPSt13_Rb_tree_nodeISA_E
FN:621,_ZNSt8_Rb_treeINSt7__cxx1112basic_stringIcSt11char_traitsIcESaIcEEESt4pairIKS5_N6Entity9EntityDefEESt10_Select1stISA_ESt4lessIS5_ESaISA_EE17_M_construct_nodeIJRS7_RKS9_EEEvPSt13_Rb_tree_nodeISA_EDpOT_
FN:621,_ZNSt8_Rb_treeINSt7__cxx1112basic_stringIcSt11char_traitsIcESaIcEEESt4pairIKS5_N6Entity6ColumnEESt10_Select1stISA_ESt4lessIS5_ESaISA_EE17_M_construct_nodeIJRKSA_EEEvPSt13_Rb_tree_nodeISA_EDpOT_
FN:640,_ZNSt8_Rb_treeINSt7__cxx1112basic_stringIcSt11char_traitsIcESaIcEEESt4pairIKS5_N6Entity6ColumnEESt10_Select1stISA_ESt4lessIS5_ESaISA_EE14_M_create_nodeIJRKSA_EEEPSt13_Rb_tree_nodeISA_EDpOT_
FN:640,_ZNSt8_Rb_treeINSt7__cxx1112basic_stringIcSt11char_traitsIcESaIcEEESt4pairIKS5_N6Entity9EntityDefEESt10_Select1stISA_ESt4lessIS5_ESaISA_EE14_M_create_nodeIJRS7_RKS9_EEEPSt13_Rb_tree_nodeISA_EDpOT_
FN:648,_ZNSt8_Rb_treeINSt7__cxx1112basic_stringIcSt11char_traitsIcESaIcEEESt4pairIKS5_N6Entity6ColumnEESt10_Select1stISA_ESt4lessIS5_ESaISA_EE15_M_destroy_nodeEPSt13_Rb_tree_nodeISA_E
FN:648,_ZNSt8_Rb_treeINSt7__cxx1112basic_stringIcSt11char_traitsIcESaIcEEESt4pairIKS5_N6Entity9EntityDefEESt10_Select1stISA_ESt4lessIS5_ESaISA_EE15_M_destroy_nodeEPSt13_Rb_tree_nodeISA_E
FN:656,_ZNSt8_Rb_treeINSt7__cxx1112basic_stringIcSt11char_traitsIcESaIcEEESt4pairIKS5_N6Entity6ColumnEESt10_Select1stISA_ESt4lessIS5_ESaISA_EE12_M_drop_nodeEPSt13_Rb_tree_nodeISA_E
FN:656,_ZNSt8_Rb_treeINSt7__cxx1112basic_stringIcSt11char_traitsIcESaIcEEESt4pairIKS5_N6Entity9EntityDefEESt10_Select1stISA_ESt4lessIS5_ESaISA_EE12_M_drop_nodeEPSt13_Rb_tree_nodeISA_E
FN:664,_ZNSt8_Rb_treeINSt7__cxx1112basic_stringIcSt11char_traitsIcESaIcEEESt4pairIKS5_N6Entity6ColumnEESt10_Select1stISA_ESt4lessIS5_ESaISA_EE13_M_clone_nodeINSG_11_Alloc_nodeEEEPSt13_Rb_tree_nodeISA_EPKSK_RT_
FN:677,_ZNSt8_Rb_treeINSt7__cxx1112basic_stringIcSt11char_traitsIcESaIcEEESt4pairIKS5_N6Entity9EntityDefEESt10_Select1stISA_ESt4lessIS5_ESaISA_EE13_Rb_tree_implISE_Lb1EED2Ev
FN:677,_ZNSt8_Rb_treeINSt7__cxx1112basic_stringIcSt11char_traitsIcESaIcEEESt4pairIKS5_N6Entity6ColumnEESt10_Select1stISA_ESt4lessIS5_ESaISA_EE13_Rb_tree_implISE_Lb1EED2Ev
FN:688,_ZNSt8_Rb_treeINSt7__cxx1112basic_stringIcSt11char_traitsIcESaIcEEESt4pairIKS5_N6Entity9EntityDefEESt10_Select1stISA_ESt4lessIS5_ESaISA_EE13_Rb_tree_implISE_Lb1EEC2Ev
FN:692,_ZNSt8_Rb_treeINSt7__cxx1112basic_stringIcSt11char_traitsIcESaIcEEESt4pairIKS5_N6Entity6ColumnEESt10_Select1stISA_ESt4lessIS5_ESaISA_EE13_Rb_tree_implISE_Lb1EEC2ERKSI_
FN:712,_ZNSt8_Rb_treeINSt7__cxx1112basic_stringIcSt11char_traitsIcESaIcEEESt4pairIKS5_N6Entity6ColumnEESt10_Select1stISA_ESt4lessIS5_ESaISA_EE7_M_rootEv
FN:716,_ZNKSt8_Rb_treeINSt7__cxx1112basic_stringIcSt11char_traitsIcESaIcEEESt4pairIKS5_N6Entity6ColumnEESt10_Select1stISA_ESt4lessIS5_ESaISA_EE7_M_rootEv
FN:720,_ZNSt8_Rb_treeINSt7__cxx1112basic_stringIcSt11char_traitsIcESaIcEEESt4pairIKS5_N6Entity6ColumnEESt10_Select1stISA_ESt4lessIS5_ESaISA_EE11_M_leftmostEv
FN:728,_ZNSt8_Rb_treeINSt7__cxx1112basic_stringIcSt11char_traitsIcESaIcEEESt4pairIKS5_N6Entity6ColumnEESt10_Select1stISA_ESt4lessIS5_ESaISA_EE12_M_rightmostEv
FN:736,_ZNSt8_Rb_treeINSt7__cxx1112basic_stringIcSt11char_traitsIcESaIcEEESt4pairIKS5_N6Entity9EntityDefEESt10_Select1stISA_ESt4lessIS5_ESaISA_EE8_M_beginEv
FN:740,_ZNKSt8_Rb_treeINSt7__cxx1112basic_stringIcSt11char_traitsIcESaIcEEESt4pairIKS5_N6Entity6ColumnEESt10_Select1stISA_ESt4lessIS5_ESaISA_EE8_M_beginEv
FN:747,_ZNSt8_Rb_treeINSt7__cxx1112basic_stringIcSt11char_traitsIcESaIcEEESt4pairIKS5_N6Entity9EntityDefEESt10_Select1stISA_ESt4lessIS5_ESaISA_EE6_M_endEv
FN:747,_ZNSt8_Rb_treeINSt7__cxx1112basic_stringIcSt11char_traitsIcESaIcEEESt4pairIKS5_N6Entity6ColumnEESt10_Select1stISA_ESt4lessIS5_ESaISA_EE6_M_endEv
FN:755,_ZNSt8_Rb_treeINSt7__cxx1112basic_stringIcSt11char_traitsIcESaIcEEESt4pairIKS5_N6Entity9EntityDefEESt10_Select1stISA_ESt4lessIS5_ESaISA_EE8_S_valueEPKSt13_Rb_tree_nodeISA_E
FN:759,_ZNSt8_Rb_treeINSt7__cxx1112basic_stringIcSt11char_traitsIcESaIcEEESt4pairIKS5_N6Entity9EntityDefEESt10_Select1stISA_ESt4lessIS5_ESaISA_EE6_S_keyEPKSt13_Rb_tree_nodeISA_E
FN:763,_ZNSt8_Rb_treeINSt7__cxx1112basic_stringIcSt11char_traitsIcESaIcEEESt4pairIKS5_N6Entity9EntityDefEESt10_Select1stISA_ESt4lessIS5_ESaISA_EE7_S_leftEPSt18_Rb_tree_node_base
FN:763,_ZNSt8_Rb_treeINSt7__cxx1112basic_stringIcSt11char_traitsIcESaIcEEESt4pairIKS5_N6Entity6ColumnEESt10_Select1stISA_ESt4lessIS5_ESaISA_EE7_S_leftEPSt18_Rb_tree_node_base
FN:767,_ZNSt8_Rb_treeINSt7__cxx1112basic_stringIcSt11char_traitsIcESaIcEEESt4pairIKS5_N6Entity6ColumnEESt10_Select1stISA_ESt4lessIS5_ESaISA_EE7_S_leftEPKSt18_Rb_tree_node_base
FN:771,_ZNSt8_Rb_treeINSt7__cxx1112basic_stringIcSt11char_traitsIcESaIcEEESt4pairIKS5_N6Entity6ColumnEESt10_Select1stISA_ESt4lessIS5_ESaISA_EE8_S_rightEPSt18_Rb_tree_node_base
FN:771,_ZNSt8_Rb_treeINSt7__cxx1112basic_stringIcSt11char_traitsIcESaIcEEESt4pairIKS5_N6Entity9EntityDefEESt10_Select1stISA_ESt4lessIS5_ESaISA_EE8_S_rightEPSt18_Rb_tree_node_base
FN:775,_ZNSt8_Rb_treeINSt7__cxx1112basic_stringIcSt11char_traitsIcESaIcEEESt4pairIKS5_N6Entity6ColumnEESt10_Select1stISA_ESt4lessIS5_ESaISA_EE8_S_rightEPKSt18_Rb_tree_node_base
FN:779,_ZNSt8_Rb_treeINSt7__cxx1112basic_stringIcSt11char_traitsIcESaIcEEESt4pairIKS5_N6Entity9EntityDefEESt10_Select1stISA_ESt4lessIS5_ESaISA_EE8_S_valueEPKSt18_Rb_tree_node_base
FN:783,_ZNSt8_Rb_treeINSt7__cxx1112basic_stringIcSt11char_traitsIcESaIcEEESt4pairIKS5_N6Entity9EntityDefEESt10_Select1stISA_ESt4lessIS5_ESaISA_EE6_S_keyEPKSt18_Rb_tree_node_base
FN:787,_ZNSt8_Rb_treeINSt7__cxx1112basic_stringIcSt11char_traitsIcESaIcEEESt4pairIKS5_N6Entity6ColumnEESt10_Select1stISA_ESt4lessIS5_ESaISA_EE10_S_minimumEPSt18_Rb_tree_node_base
FN:795,_ZNSt8_Rb_treeINSt7__cxx1112basic_stringIcSt11char_traitsIcESaIcEEESt4pairIKS5_N6Entity6ColumnEESt10_Select1stISA_ESt4lessIS5_ESaISA_EE10_S_maximumEPSt18_Rb_tree_node_base
FN:873,_ZNSt8_Rb_treeINSt7__cxx1112basic_stringIcSt11char_traitsIcESaIcEEESt4pairIKS5_N6Entity6ColumnEESt10_Select1stISA_ESt4lessIS5_ESaISA_EE7_M_copyINSG_11_Alloc_nodeEEEPSt13_Rb_tree_nodeISA_ERKSG_RT_
FN:883,_ZNSt8_Rb_treeINSt7__cxx1112basic_stringIcSt11char_traitsIcESaIcEEESt4pairIKS5_N6Entity6ColumnEESt10_Select1stISA_ESt4lessIS5_ESaISA_EE7_M_copyERKSG_
FN:913,_ZNSt8_Rb_treeINSt7__cxx1112basic_stringIcSt11char_traitsIcESaIcEEESt4pairIKS5_N6Entity9EntityDefEESt10_Select1stISA_ESt4lessIS5_ESaISA_EEC2Ev
FN:920,_ZNSt8_Rb_treeINSt7__cxx1112basic_stringIcSt11char_traitsIcESaIcEEESt4pairIKS5_N6Entity6ColumnEESt10_Select1stISA_ESt4lessIS5_ESaISA_EEC2ERKSG_
FN:948,_ZNSt8_Rb_treeINSt7__cxx1112basic_stringIcSt11char_traitsIcESaIcEEESt4pairIKS5_N6Entity9EntityDefEESt10_Select1stISA_ESt4lessIS5_ESaISA_EED2Ev
FN:960,_ZNSt8_Rb_treeINSt7__cxx1112basic_stringIcSt11char_traitsIcESaIcEEESt4pairIKS5_N6Entity9EntityDefEESt10_Select1stISA_ESt4lessIS5_ESaISA_EE5beginEv
FN:968,_ZNSt8_Rb_treeINSt7__cxx1112basic_stringIcSt11char_traitsIcESaIcEEESt4pairIKS5_N6Entity9EntityDefEESt10_Select1stISA_ESt4lessIS5_ESaISA_EE3endEv
FN:1169,_ZNSt8_Rb_treeINSt7__cxx1112basic_stringIcSt11char_traitsIcESaIcEEESt4pairIKS5_N6Entity9EntityDefEESt10_Select1stISA_ESt4lessIS5_ESaISA_EE5clearEv
FN:1814,_ZNSt8_Rb_treeINSt7__cxx1112basic_stringIcSt11char_traitsIcESaIcEEESt4pairIKS5_N6Entity6ColumnEESt10_Select1stISA_ESt4lessIS5_ESaISA_EE7_M_copyINSG_11_Alloc_nodeEEEPSt13_Rb_tree_nodeISA_EPKSK_PSt18_Rb_tree_node_baseRT_
FN:1850,_ZNSt8_Rb_treeINSt7__cxx1112basic_stringIcSt11char_traitsIcESaIcEEESt4pairIKS5_N6Entity6ColumnEESt10_Select1stISA_ESt4lessIS5_ESaISA_EE8_M_eraseEPSt13_Rb_tree_nodeISA_E
FN:1850,_ZNSt8_Rb_treeINSt7__cxx1112basic_stringIcSt11char_traitsIcESaIcEEESt4pairIKS5_N6Entity9EntityDefEESt10_Select1stISA_ESt4lessIS5_ESaISA_EE8_M_eraseEPSt13_Rb_tree_nodeISA_E
FN:1867,_ZNSt8_Rb_treeINSt7__cxx1112basic_stringIcSt11char_traitsIcESaIcEEESt4pairIKS5_N6Entity9EntityDefEESt10_Select1stISA_ESt4lessIS5_ESaISA_EE14_M_lower_boundEPSt13_Rb_tree_nodeISA_EPSt18_Rb_tree_node_baseRS7_
FN:2028,_ZNSt8_Rb_treeINSt7__cxx1112basic_stringIcSt11char_traitsIcESaIcEEESt4pairIKS5_N6Entity9EntityDefEESt10_Select1stISA_ESt4lessIS5_ESaISA_EE24_M_get_insert_unique_posERS7_
FN:2297,_ZNSt8_Rb_treeINSt7__cxx1112basic_stringIcSt11char_traitsIcESaIcEEESt4pairIKS5_N6Entity9EntityDefEESt10_Select1stISA_ESt4lessIS5_ESaISA_EE14_M_insert_nodeEPSt18_Rb_tree_node_baseSI_PSt13_Rb_tree_nodeISA_E
FN:2348,_ZNSt8_Rb_treeINSt7__cxx1112basic_stringIcSt11char_traitsIcESaIcEEESt4pairIKS5_N6Entity9EntityDefEESt10_Select1stISA_ESt4lessIS5_ESaISA_EE17_M_emplace_uniqueIJRS7_RKS9_EEES6_ISt17_Rb_tree_iteratorISA_EbEDpOT_
FN:2520,_ZNSt8_Rb_treeINSt7__cxx1112basic_stringIcSt11char_traitsIcESaIcEEESt4pairIKS5_N6Entity9EntityDefEESt10_Select1stISA_ESt4lessIS5_ESaISA_EE4findERS7_
FNDA:0,_ZNSt18_Rb_tree_node_base10_S_minimumEPS_
FNDA:0,_ZNSt18_Rb_tree_node_base10_S_maximumEPS_
FNDA:8,_ZNSt20_Rb_tree_key_compareISt4lessINSt7__cxx1112basic_stringIcSt11char_traitsIcESaIcEEEEEC2Ev
FNDA:0,_ZNSt20_Rb_tree_key_compareISt4lessINSt7__cxx1112basic_stringIcSt11char_traitsIcESaIcEEEEEC2ERKS7_
FNDA:0,_ZNSt15_Rb_tree_headerC2Ev
FNDA:0,_ZNSt15_Rb_tree_header8_M_resetEv
FNDA:210,_ZNSt13_Rb_tree_nodeISt4pairIKNSt7__cxx1112basic_stringIcSt11char_traitsIcESaIcEEEN6Entity6ColumnEEE9_M_valptrEv
FNDA:1231,_ZNSt13_Rb_tree_nodeISt4pairIKNSt7__cxx1112basic_stringIcSt11char_traitsIcESaIcEEEN6Entity9EntityDefEEE9_M_valptrEv
FNDA:219,_ZNKSt13_Rb_tree_nodeISt4pairIKNSt7__cxx1112basic_stringIcSt11char_traitsIcESaIcEEEN6Entity6ColumnEEE9_M_valptrEv
FNDA:3950,_ZNKSt13_Rb_tree_nodeISt4pairIKNSt7__cxx1112basic_stringIcSt11char_traitsIcESaIcEEEN6Entity9EntityDefEEE9_M_valptrEv
FNDA:3234,_ZNSt17_Rb_tree_iteratorISt4pairIKNSt7__cxx1112basic_stringIcSt11char_traitsIcESaIcEEEN6Entity9EntityDefEEEC2EPSt18_Rb_tree_node_base
FNDA:903,_ZNKSt17_Rb_tree_iteratorISt4pairIKNSt7__cxx1112basic_stringIcSt11char_traitsIcESaIcEEEN6Entity9EntityDefEEEptEv
FNDA:160,_ZNSt17_Rb_tree_iteratorISt4pairIKNSt7__cxx1112basic_stringIcSt11char_traitsIcESaIcEEEN6Entity9EntityDefEEEppEi
FNDA:32,_ZNSt17_Rb_tree_iteratorISt4pairIKNSt7__cxx1112basic_stringIcSt11char_traitsIcESaIcEEEN6Entity9EntityDefEEEmmEv
FNDA:1745,_ZNKSt17_Rb_tree_iteratorISt4pairIKNSt7__cxx1112basic_stringIcSt11char_traitsIcESaIcEEEN6Entity9EntityDefEEEeqERKSB_
FNDA:192,_ZNKSt17_Rb_tree_iteratorISt4pairIKNSt7__cxx1112basic_stringIcSt11char_traitsIcESaIcEEEN6Entity9EntityDefEEEneERKSB_
FNDA:12,_ZNSt8_Rb_treeINSt7__cxx1112basic_stringIcSt11char_traitsIcESaIcEEESt4pairIKS5_N6Entity6ColumnEESt10_Select1stISA_ESt4lessIS5_ESaISA_EE11_Alloc_nodeC2ERSG_
FNDA:105,_ZNKSt8_Rb_treeINSt7__cxx1112basic_stringIcSt11char_traitsIcESaIcEEESt4pairIKS5_N6Entity6ColumnEESt10_Select1stISA_ESt4lessIS5_ESaISA_EE11_Alloc_nodeclIRKSA_EEPSt13_Rb_tree_nodeISA_EOT_
FNDA:420,_ZNSt8_Rb_treeINSt7__cxx1112basic_stringIcSt11char_traitsIcESaIcEEESt4pairIKS5_N6Entity6ColumnEESt10_Select1stISA_ESt4lessIS5_ESaISA_EE21_M_get_Node_allocatorEv
FNDA:656,_ZNSt8_Rb_treeINSt7__cxx1112basic_stringIcSt11char_traitsIcESaIcEEESt4pairIKS5_N6Entity9EntityDefEESt10_Select1stISA_ESt4lessIS5_ESaISA_EE21_M_get_Node_allocatorEv
FNDA:105,_ZNSt8_Rb_treeINSt7__cxx1112basic_stringIcSt11char_traitsIcESaIcEEESt4pairIKS5_N6Entity6ColumnEESt10_Select1stISA_ESt4lessIS5_ESaISA_EE11_M_get_nodeEv
FNDA:164,_ZNSt8_Rb_treeINSt7__cxx1112basic_stringIcSt11char_traitsIcESaIcEEESt4pairIKS5_N6Entity9EntityDefEESt10_Select1stISA_ESt4lessIS5_ESaISA_EE11_M_get_nodeEv
FNDA:105,_ZNSt8_Rb_treeINSt7__cxx1112basic_stringIcSt11char_traitsIcESaIcEEESt4pairIKS5_N6Entity6ColumnEESt10_Select1stISA_ESt4lessIS5_ESaISA_EE11_M_put_nodeEPSt13_Rb_tree_nodeISA_E
FNDA:164,_ZNSt8_Rb_treeINSt7__cxx1112basic_stringIcSt11char_traitsIcESaIcEEESt4pairIKS5_N6Entity9EntityDefEESt10_Select1stISA_ESt4lessIS5_ESaISA_EE11_M_put_nodeEPSt13_Rb_tree_nodeISA_E
FNDA:105,_ZNSt8_Rb_treeINSt7__cxx1112basic_stringIcSt11char_traitsIcESaIcEEESt4pairIKS5_N6Entity6ColumnEESt10_Select1stISA_ESt4lessIS5_ESaISA_EE17_M_construct_nodeIJRKSA_EEEvPSt13_Rb_tree_nodeISA_EDpOT_
FNDA:164,_ZNSt8_Rb_treeINSt7__cxx1112basic_stringIcSt11char_traitsIcESaIcEEESt4pairIKS5_N6Entity9EntityDefEESt10_Select1stISA_ESt4lessIS5_ESaISA_EE17_M_construct_nodeIJRS7_RKS9_EEEvPSt13_Rb_tree_nodeISA_EDpOT_
FNDA:105,_ZNSt8_Rb_treeINSt7__cxx1112basic_stringIcSt11char_traitsIcESaIcEEESt4pairIKS5_N6Entity6ColumnEESt10_Select1stISA_ESt4lessIS5_ESaISA_EE14_M_create_nodeIJRKSA_EEEPSt13_Rb_tree_nodeISA_EDpOT_
FNDA:164,_ZNSt8_Rb_treeINSt7__cxx1112basic_stringIcSt11char_traitsIcESaIcEEESt4pairIKS5_N6Entity9EntityDefEESt10_Select1stISA_ESt4lessIS5_ESaISA_EE14_M_create_nodeIJRS7_RKS9_EEEPSt13_Rb_tree_nodeISA_EDpOT_
FNDA:105,_ZNSt8_Rb_treeINSt7__cxx1112basic_stringIcSt11char_traitsIcESaIcEEESt4pairIKS5_N6Entity6ColumnEESt10_Select1stISA_ESt4lessIS5_ESaISA_EE15_M_destroy_nodeEPSt13_Rb_tree_nodeISA_E
FNDA:164,_ZNSt8_Rb_treeINSt7__cxx1112basic_stringIcSt11char_traitsIcESaIcEEESt4pairIKS5_N6Entity9EntityDefEESt10_Select1stISA_ESt4lessIS5_ESaISA_EE15_M_destroy_nodeEPSt13_Rb_tree_nodeISA_E
FNDA:105,_ZNSt8_Rb_treeINSt7__cxx1112basic_stringIcSt11char_traitsIcESaIcEEESt4pairIKS5_N6Entity6ColumnEESt10_Select1stISA_ESt4lessIS5_ESaISA_EE12_M_drop_nodeEPSt13_Rb_tree_nodeISA_E
FNDA:164,_ZNSt8_Rb_treeINSt7__cxx1112basic_stringIcSt11char_traitsIcESaIcEEESt4pairIKS5_N6Entity9EntityDefEESt10_Select1stISA_ESt4lessIS5_ESaISA_EE12_M_drop_nodeEPSt13_Rb_tree_nodeISA_E
FNDA:70,_ZNSt8_Rb_treeINSt7__cxx1112basic_stringIcSt11char_traitsIcESaIcEEESt4pairIKS5_N6Entity6ColumnEESt10_Select1stISA_ESt4lessIS5_ESaISA_EE13_M_clone_nodeINSG_11_Alloc_nodeEEEPSt13_Rb_tree_nodeISA_EPKSK_RT_
FNDA:12,_ZNSt8_Rb_treeINSt7__cxx1112basic_stringIcSt11char_traitsIcESaIcEEESt4pairIKS5_N6Entity6ColumnEESt10_Select1stISA_ESt4lessIS5_ESaISA_EE13_Rb_tree_implISE_Lb1EED2Ev
FNDA:33,_ZNSt8_Rb_treeINSt7__cxx1112basic_stringIcSt11char_traitsIcESaIcEEESt4pairIKS5_N6Entity9EntityDefEESt10_Select1stISA_ESt4lessIS5_ESaISA_EE13_Rb_tree_implISE_Lb1EED2Ev
FNDA:33,_ZNSt8_Rb_treeINSt7__cxx1112basic_stringIcSt11char_traitsIcESaIcEEESt4pairIKS5_N6Entity9EntityDefEESt10_Select1stISA_ESt4lessIS5_ESaISA_EE13_Rb_tree_implISE_Lb1EEC2Ev
FNDA:8,_ZNSt8_Rb_treeINSt7__cxx1112basic_stringIcSt11char_traitsIcESaIcEEESt4pairIKS5_N6Entity6ColumnEESt10_Select1stISA_ESt4lessIS5_ESaISA_EE13_Rb_tree_implISE_Lb1EEC2ERKSI_
FNDA:8,_ZNSt8_Rb_treeINSt7__cxx1112basic_stringIcSt11char_traitsIcESaIcEEESt4pairIKS5_N6Entity6ColumnEESt10_Select1stISA_ESt4lessIS5_ESaISA_EE7_M_rootEv
FNDA:8,_ZNKSt8_Rb_treeINSt7__cxx1112basic_stringIcSt11char_traitsIcESaIcEEESt4pairIKS5_N6Entity6ColumnEESt10_Select1stISA_ESt4lessIS5_ESaISA_EE7_M_rootEv
FNDA:8,_ZNSt8_Rb_treeINSt7__cxx1112basic_stringIcSt11char_traitsIcESaIcEEESt4pairIKS5_N6Entity6ColumnEESt10_Select1stISA_ESt4lessIS5_ESaISA_EE11_M_leftmostEv
FNDA:48,_ZNSt8_Rb_treeINSt7__cxx1112basic_stringIcSt11char_traitsIcESaIcEEESt4pairIKS5_N6Entity6ColumnEESt10_Select1stISA_ESt4lessIS5_ESaISA_EE12_M_rightmostEv
FNDA:1069,_ZNSt8_Rb_treeINSt7__cxx1112basic_stringIcSt11char_traitsIcESaIcEEESt4pairIKS5_N6Entity9EntityDefEESt10_Select1stISA_ESt4lessIS5_ESaISA_EE8_M_beginEv
FNDA:8,_ZNKSt8_Rb_treeINSt7__cxx1112basic_stringIcSt11char_traitsIcESaIcEEESt4pairIKS5_N6Entity6ColumnEESt10_Select1stISA_ESt4lessIS5_ESaISA_EE8_M_beginEv
FNDA:104,_ZNSt8_Rb_treeINSt7__cxx1112basic_stringIcSt11char_traitsIcESaIcEEESt4pairIKS5_N6Entity6ColumnEESt10_Select1stISA_ESt4lessIS5_ESaISA_EE6_M_endEv
FNDA:1168,_ZNSt8_Rb_treeINSt7__cxx1112basic_stringIcSt11char_traitsIcESaIcEEESt4pairIKS5_N6Entity9EntityDefEESt10_Select1stISA_ESt4lessIS5_ESaISA_EE6_M_endEv
FNDA:2881,_ZNSt8_Rb_treeINSt7__cxx1112basic_stringIcSt11char_traitsIcESaIcEEESt4pairIKS5_N6Entity9EntityDefEESt10_Select1stISA_ESt4lessIS5_ESaISA_EE8_S_valueEPKSt13_Rb_tree_nodeISA_E
FNDA:2881,_ZNSt8_Rb_treeINSt7__cxx1112basic_stringIcSt11char_traitsIcESaIcEEESt4pairIKS5_N6Entity9EntityDefEESt10_Select1stISA_ESt4lessIS5_ESaISA_EE6_S_keyEPKSt13_Rb_tree_nodeISA_E
FNDA:145,_ZNSt8_Rb_treeINSt7__cxx1112basic_stringIcSt11char_traitsIcESaIcEEESt4pairIKS5_N6Entity6ColumnEESt10_Select1stISA_ESt4lessIS5_ESaISA_EE7_S_leftEPSt18_Rb_tree_node_base
FNDA:1079,_ZNSt8_Rb_treeINSt7__cxx1112basic_stringIcSt11char_traitsIcESaIcEEESt4pairIKS5_N6Entity9EntityDefEESt10_Select1stISA_ESt4lessIS5_ESaISA_EE7_S_leftEPSt18_Rb_tree_node_base
FNDA:70,_ZNSt8_Rb_treeINSt7__cxx1112basic_stringIcSt11char_traitsIcESaIcEEESt4pairIKS5_N6Entity6ColumnEESt10_Select1stISA_ESt4lessIS5_ESaISA_EE7_S_leftEPKSt18_Rb_tree_node_base
FNDA:135,_ZNSt8_Rb_treeINSt7__cxx1112basic_stringIcSt11char_traitsIcESaIcEEESt4pairIKS5_N6Entity6ColumnEESt10_Select1stISA_ESt4lessIS5_ESaISA_EE8_S_rightEPSt18_Rb_tree_node_base
FNDA:1835,_ZNSt8_Rb_treeINSt7__cxx1112basic_stringIcSt11char_traitsIcESaIcEEESt4pairIKS5_N6Entity9EntityDefEESt10_Select1stISA_ESt4lessIS5_ESaISA_EE8_S_rightEPSt18_Rb_tree_node_base
FNDA:32,_ZNSt8_Rb_treeINSt7__cxx1112basic_stringIcSt11char_traitsIcESaIcEEESt4pairIKS5_N6Entity6ColumnEESt10_Select1stISA_ESt4lessIS5_ESaISA_EE8_S_rightEPKSt18_Rb_tree_node_base
FNDA:1069,_ZNSt8_Rb_treeINSt7__cxx1112basic_stringIcSt11char_traitsIcESaIcEEESt4pairIKS5_N6Entity9EntityDefEESt10_Select1stISA_ESt4lessIS5_ESaISA_EE8_S_valueEPKSt18_Rb_tree_node_base
FNDA:1069,_ZNSt8_Rb_treeINSt7__cxx1112basic_stringIcSt11char_traitsIcESaIcEEESt4pairIKS5_N6Entity9EntityDefEESt10_Select1stISA_ESt4lessIS5_ESaISA_EE6_S_keyEPKSt18_Rb_tree_node_base
FNDA:8,_ZNSt8_Rb_treeINSt7__cxx1112basic_stringIcSt11char_traitsIcESaIcEEESt4pairIKS5_N6Entity6ColumnEESt10_Select1stISA_ESt4lessIS5_ESaISA_EE10_S_minimumEPSt18_Rb_tree_node_base
FNDA:8,_ZNSt8_Rb_treeINSt7__cxx1112basic_stringIcSt11char_traitsIcESaIcEEESt4pairIKS5_N6Entity6ColumnEESt10_Select1stISA_ESt4lessIS5_ESaISA_EE10_S_maximumEPSt18_Rb_tree_node_base
FNDA:8,_ZNSt8_Rb_treeINSt7__cxx1112basic_stringIcSt11char_traitsIcESaIcEEESt4pairIKS5_N6Entity6ColumnEESt10_Select1stISA_ESt4lessIS5_ESaISA_EE7_M_copyINSG_11_Alloc_nodeEEEPSt13_Rb_tree_nodeISA_ERKSG_RT_
FNDA:8,_ZNSt8_Rb_treeINSt7__cxx1112basic_stringIcSt11char_traitsIcESaIcEEESt4pairIKS5_N6Entity6ColumnEESt10_Select1stISA_ESt4lessIS5_ESaISA_EE7_M_copyERKSG_
FNDA:33,_ZNSt8_Rb_treeINSt7__cxx1112basic_stringIcSt11char_traitsIcESaIcEEESt4pairIKS5_N6Entity9EntityDefEESt10_Select1stISA_ESt4lessIS5_ESaISA_EEC2Ev
FNDA:8,_ZNSt8_Rb_treeINSt7__cxx1112basic_stringIcSt11char_traitsIcESaIcEEESt4pairIKS5_N6Entity6ColumnEESt10_Select1stISA_ESt4lessIS5_ESaISA_EEC2ERKSG_
FNDA:33,_ZNSt8_Rb_treeINSt7__cxx1112basic_stringIcSt11char_traitsIcESaIcEEESt4pairIKS5_N6Entity9EntityDefEESt10_Select1stISA_ESt4lessIS5_ESaISA_EED2Ev
FNDA:97,_ZNSt8_Rb_treeINSt7__cxx1112basic_stringIcSt11char_traitsIcESaIcEEESt4pairIKS5_N6Entity9EntityDefEESt10_Select1stISA_ESt4lessIS5_ESaISA_EE5beginEv
FNDA:1969,_ZNSt8_Rb_treeINSt7__cxx1112basic_stringIcSt11char_traitsIcESaIcEEESt4pairIKS5_N6Entity9EntityDefEESt10_Select1stISA_ESt4lessIS5_ESaISA_EE3endEv
FNDA:32,_ZNSt8_Rb_treeINSt7__cxx1112basic_stringIcSt11char_traitsIcESaIcEEESt4pairIKS5_N6Entity9EntityDefEESt10_Select1stISA_ESt4lessIS5_ESaISA_EE5clearEv
FNDA:40,_ZNSt8_Rb_treeINSt7__cxx1112basic_stringIcSt11char_traitsIcESaIcEEESt4pairIKS5_N6Entity6ColumnEESt10_Select1stISA_ESt4lessIS5_ESaISA_EE7_M_copyINSG_11_Alloc_nodeEEEPSt13_Rb_tree_nodeISA_EPKSK_PSt18_Rb_tree_node_baseRT_
FNDA:117,_ZNSt8_Rb_treeINSt7__cxx1112basic_stringIcSt11char_traitsIcESaIcEEESt4pairIKS5_N6Entity6ColumnEESt10_Select1stISA_ESt4lessIS5_ESaISA_EE8_M_eraseEPSt13_Rb_tree_nodeISA_E
FNDA:229,_ZNSt8_Rb_treeINSt7__cxx1112basic_stringIcSt11char_traitsIcESaIcEEESt4pairIKS5_N6Entity9EntityDefEESt10_Select1stISA_ESt4lessIS5_ESaISA_EE8_M_eraseEPSt13_Rb_tree_nodeISA_E
FNDA:840,_ZNSt8_Rb_treeINSt7__cxx1112basic_stringIcSt11char_traitsIcESaIcEEESt4pairIKS5_N6Entity9EntityDefEESt10_Select1stISA_ESt4lessIS5_ESaISA_EE14_M_lower_boundEPSt13_Rb_tree_nodeISA_EPSt18_Rb_tree_node_baseRS7_
FNDA:164,_ZNSt8_Rb_treeINSt7__cxx1112basic_stringIcSt11char_traitsIcESaIcEEESt4pairIKS5_N6Entity9EntityDefEESt10_Select1stISA_ESt4lessIS5_ESaISA_EE24_M_get_insert_unique_posERS7_
FNDA:164,_ZNSt8_Rb_treeINSt7__cxx1112basic_stringIcSt11char_traitsIcESaIcEEESt4pairIKS5_N6Entity9EntityDefEESt10_Select1stISA_ESt4lessIS5_ESaISA_EE14_M_insert_nodeEPSt18_Rb_tree_node_baseSI_PSt13_Rb_tree_nodeISA_E
FNDA:164,_ZNSt8_Rb_treeINSt7__cxx1112basic_stringIcSt11char_traitsIcESaIcEEESt4pairIKS5_N6Entity9EntityDefEESt10_Select1stISA_ESt4lessIS5_ESaISA_EE17_M_emplace_uniqueIJRS7_RKS9_EEES6_ISt17_Rb_tree_iteratorISA_EbEDpOT_
FNDA:840,_ZNSt8_Rb_treeINSt7__cxx1112basic_stringIcSt11char_traitsIcESaIcEEESt4pairIKS5_N6Entity9EntityDefEESt10_Select1stISA_ESt4lessIS5_ESaISA_EE4findERS7_
FNF:73
FNH:68
DA:112,0
DA:114,0
DA:115,0
DA:126,0
DA:128,0
DA:129,0
DA:146,8
DA:150,8
DA:152,0
DA:154,0
DA:173,0
DA:174,0
DA:175,0
DA:176,0
DA:177,0
DA:206,0
DA:208,0
DA:209,0
DA:210,0
DA:211,0
DA:212,0
DA:234,1441
DA:235,1441
DA:238,4169
DA:239,4169
DA:273,3234
DA:274,3234
DA:281,903
DA:282,903
DA:292,160
DA:294,160
DA:295,160
DA:296,160
DA:300,32
DA:302,32
DA:303,32
DA:315,1745
DA:316,1745
DA:319,192
DA:320,192
DA:546,12
DA:547,12
DA:554,105
DA:556,105
DA:574,1076
DA:575,1076
DA:587,269
DA:588,269
DA:591,269
DA:592,269
DA:621,269
DA:625,269
DA:626,269
DA:630,0
DA:633,0
DA:634,0
DA:636,269
DA:640,269
DA:642,269
DA:643,269
DA:644,269
DA:648,269
DA:650,269
DA:652,269
DA:656,269
DA:658,269
DA:659,269
DA:660,269
DA:664,70
DA:666,70
DA:667,70
DA:668,70
DA:669,70
DA:670,70
DA:677,45
DA:688,33
DA:692,8
DA:694,8
DA:695,8
DA:712,8
DA:713,8
DA:716,8
DA:717,8
DA:720,8
DA:721,8
DA:728,48
DA:729,48
DA:736,1069
DA:737,1069
DA:740,8
DA:743,8
DA:747,1272
DA:748,1272
DA:755,2881
DA:756,2881
DA:759,2881
DA:760,2881
DA:763,1224
DA:764,1224
DA:767,70
DA:768,70
DA:771,1970
DA:772,1970
DA:775,32
DA:776,32
DA:779,1069
DA:780,1069
DA:783,1069
DA:784,1069
DA:787,8
DA:788,8
DA:795,8
DA:796,8
DA:873,8
DA:875,8
DA:876,8
DA:877,8
DA:878,8
DA:879,8
DA:883,8
DA:885,8
DA:886,8
DA:913,33
DA:920,8
DA:921,8
DA:923,8
DA:924,8
DA:925,8
DA:948,33
DA:949,33
DA:960,97
DA:961,97
DA:968,1969
DA:969,1969
DA:1169,32
DA:1171,32
DA:1172,32
DA:1173,32
DA:1814,40
DA:1818,40
DA:1819,40
DA:1823,40
DA:1824,22
DA:1825,40
DA:1826,40
DA:1828,100
DA:1830,30
DA:1831,30
DA:1832,30
DA:1833,30
DA:1834,10
DA:1835,30
DA:1836,30
DA:1839,0
DA:1841,0
DA:1842,0
DA:1844,40
DA:1850,615
DA:1854,884
DA:1856,269
DA:1857,269
DA:1858,269
DA:1859,269
DA:1861,346
DA:1867,3197
DA:1871,5554
DA:1872,2357
DA:1873,883
DA:1875,1474
DA:1876,840
DA:2028,164
DA:2032,164
DA:2033,164
DA:2034,164
DA:2035,622
DA:2037,229
DA:2038,229
DA:2039,229
DA:2041,164
DA:2042,164
DA:2044,65
DA:2045,33
DA:2047,32
DA:2049,131
DA:2050,131
DA:2051,0
DA:2297,164
DA:2300,328
DA:2301,295
DA:2304,164
DA:2306,164
DA:2307,164
DA:2348,164
DA:2351,164
DA:2356,164
DA:2357,164
DA:2358,164
DA:2360,0
DA:2361,0
DA:2363,0
DA:2365,0
DA:2366,0
DA:2520,840
DA:2523,840
DA:2524,1680
DA:2525,1614
DA:2526,2584
LF:207
LH:176
end_of_record
SF:/usr/include/c++/7/ext/aligned_buffer.h
FN:62,_ZN9__gnu_cxx16__aligned_membufISt4pairIKNSt7__cxx1112basic_stringIcSt11char_traitsIcESaIcEEEN6Entity9EntityDefEEE7_M_addrEv
FN:62,_ZN9__gnu_cxx16__aligned_membufISt4pairIKNSt7__cxx1112basic_stringIcSt11char_traitsIcESaIcEEEN6Entity6ColumnEEE7_M_addrEv
FN:66,_ZNK9__gnu_cxx16__aligned_membufISt4pairIKNSt7__cxx1112basic_stringIcSt11char_traitsIcESaIcEEEN6Entity9EntityDefEEE7_M_addrEv
FN:66,_ZNK9__gnu_cxx16__aligned_membufISt4pairIKNSt7__cxx1112basic_stringIcSt11char_traitsIcESaIcEEEN6Entity6ColumnEEE7_M_addrEv
FN:70,_ZN9__gnu_cxx16__aligned_membufISt4pairIKNSt7__cxx1112basic_stringIcSt11char_traitsIcESaIcEEEN6Entity9EntityDefEEE6_M_ptrEv
FN:70,_ZN9__gnu_cxx16__aligned_membufISt4pairIKNSt7__cxx1112basic_stringIcSt11char_traitsIcESaIcEEEN6Entity6ColumnEEE6_M_ptrEv
FN:74,_ZNK9__gnu_cxx16__aligned_membufISt4pairIKNSt7__cxx1112basic_stringIcSt11char_traitsIcESaIcEEEN6Entity9EntityDefEEE6_M_ptrEv
FN:74,_ZNK9__gnu_cxx16__aligned_membufISt4pairIKNSt7__cxx1112basic_stringIcSt11char_traitsIcESaIcEEEN6Entity6ColumnEEE6_M_ptrEv
FNDA:210,_ZN9__gnu_cxx16__aligned_membufISt4pairIKNSt7__cxx1112basic_stringIcSt11char_traitsIcESaIcEEEN6Entity6ColumnEEE7_M_addrEv
FNDA:1231,_ZN9__gnu_cxx16__aligned_membufISt4pairIKNSt7__cxx1112basic_stringIcSt11char_traitsIcESaIcEEEN6Entity9EntityDefEEE7_M_addrEv
FNDA:219,_ZNK9__gnu_cxx16__aligned_membufISt4pairIKNSt7__cxx1112basic_stringIcSt11char_traitsIcESaIcEEEN6Entity6ColumnEEE7_M_addrEv
FNDA:3950,_ZNK9__gnu_cxx16__aligned_membufISt4pairIKNSt7__cxx1112basic_stringIcSt11char_traitsIcESaIcEEEN6Entity9EntityDefEEE7_M_addrEv
FNDA:210,_ZN9__gnu_cxx16__aligned_membufISt4pairIKNSt7__cxx1112basic_stringIcSt11char_traitsIcESaIcEEEN6Entity6ColumnEEE6_M_ptrEv
FNDA:1231,_ZN9__gnu_cxx16__aligned_membufISt4pairIKNSt7__cxx1112basic_stringIcSt11char_traitsIcESaIcEEEN6Entity9EntityDefEEE6_M_ptrEv
FNDA:219,_ZNK9__gnu_cxx16__aligned_membufISt4pairIKNSt7__cxx1112basic_stringIcSt11char_traitsIcESaIcEEEN6Entity6ColumnEEE6_M_ptrEv
FNDA:3950,_ZNK9__gnu_cxx16__aligned_membufISt4pairIKNSt7__cxx1112basic_stringIcSt11char_traitsIcESaIcEEEN6Entity9EntityDefEEE6_M_ptrEv
FNF:8
FNH:8
DA:62,1441
DA:63,1441
DA:66,4169
DA:67,4169
DA:70,1441
DA:71,1441
DA:74,4169
DA:75,4169
LF:8
LH:8
end_of_record
SF:/usr/include/c++/7/ext/alloc_traits.h
FN:94,_ZN9__gnu_cxx14__alloc_traitsISaISt13_Rb_tree_nodeISt4pairIKNSt7__cxx1112basic_stringIcSt11char_traitsIcESaIcEEEN6Entity6ColumnEEEEE17_S_select_on_copyERKSE_
FNDA:8,_ZN9__gnu_cxx14__alloc_traitsISaISt13_Rb_tree_nodeISt4pairIKNSt7__cxx1112basic_stringIcSt11char_traitsIcESaIcEEEN6Entity6ColumnEEEEE17_S_select_on_copyERKSE_
FNF:1
FNH:1
DA:94,8
DA:95,8
LF:2
LH:2
end_of_record
SF:/usr/include/c++/7/ext/new_allocator.h
FN:79,_ZN9__gnu_cxx13new_allocatorISt13_Rb_tree_nodeISt4pairIKNSt7__cxx1112basic_stringIcSt11char_traitsIcESaIcEEEN6Entity9EntityDefEEEEC2Ev
FN:81,_ZN9__gnu_cxx13new_allocatorISt13_Rb_tree_nodeISt4pairIKNSt7__cxx1112basic_stringIcSt11char_traitsIcESaIcEEEN6Entity6ColumnEEEEC2ERKSE_
FN:86,_ZN9__gnu_cxx13new_allocatorISt13_Rb_tree_nodeISt4pairIKNSt7__cxx1112basic_stringIcSt11char_traitsIcESaIcEEEN6Entity6ColumnEEEED2Ev
FN:86,_ZN9__gnu_cxx13new_allocatorISt13_Rb_tree_nodeISt4pairIKNSt7__cxx1112basic_stringIcSt11char_traitsIcESaIcEEEN6Entity9EntityDefEEEED2Ev
FN:99,_ZN9__gnu_cxx13new_allocatorISt13_Rb_tree_nodeISt4pairIKNSt7__cxx1112basic_stringIcSt11char_traitsIcESaIcEEEN6Entity6ColumnEEEE8allocateEmPKv
FN:99,_ZN9__gnu_cxx13new_allocatorISt13_Rb_tree_nodeISt4pairIKNSt7__cxx1112basic_stringIcSt11char_traitsIcESaIcEEEN6Entity9EntityDefEEEE8allocateEmPKv
FN:116,_ZN9__gnu_cxx13new_allocatorISt13_Rb_tree_nodeISt4pairIKNSt7__cxx1112basic_stringIcSt11char_traitsIcESaIcEEEN6Entity6ColumnEEEE10deallocateEPSD_m
FN:116,_ZN9__gnu_cxx13new_allocatorISt13_Rb_tree_nodeISt4pairIKNSt7__cxx1112basic_stringIcSt11char_traitsIcESaIcEEEN6Entity9EntityDefEEEE10deallocateEPSD_m
FN:129,_ZNK9__gnu_cxx13new_allocatorISt13_Rb_tree_nodeISt4pairIKNSt7__cxx1112basic_stringIcSt11char_traitsIcESaIcEEEN6Entity9EntityDefEEEE8max_sizeEv
FN:129,_ZNK9__gnu_cxx13new_allocatorISt13_Rb_tree_nodeISt4pairIKNSt7__cxx1112basic_stringIcSt11char_traitsIcESaIcEEEN6Entity6ColumnEEEE8max_sizeEv
FN:135,_ZN9__gnu_cxx13new_allocatorISt13_Rb_tree_nodeISt4pairIKNSt7__cxx1112basic_stringIcSt11char_traitsIcESaIcEEEN6Entity9EntityDefEEEE9constructISC_JRS9_RKSB_EEEvPT_DpOT0_
FN:135,_ZN9__gnu_cxx13new_allocatorISt13_Rb_tree_nodeISt4pairIKNSt7__cxx1112basic_stringIcSt11char_traitsIcESaIcEEEN6Entity6ColumnEEEE9constructISC_JRKSC_EEEvPT_DpOT0_
FN:140,_ZN9__gnu_cxx13new_allocatorISt13_Rb_tree_nodeISt4pairIKNSt7__cxx1112basic_stringIcSt11char_traitsIcESaIcEEEN6Entity9EntityDefEEEE7destroyISC_EEvPT_
FN:140,_ZN9__gnu_cxx13new_allocatorISt13_Rb_tree_nodeISt4pairIKNSt7__cxx1112basic_stringIcSt11char_traitsIcESaIcEEEN6Entity6ColumnEEEE7destroyISC_EEvPT_
FNDA:33,_ZN9__gnu_cxx13new_allocatorISt13_Rb_tree_nodeISt4pairIKNSt7__cxx1112basic_stringIcSt11char_traitsIcESaIcEEEN6Entity9EntityDefEEEEC2Ev
FNDA:12,_ZN9__gnu_cxx13new_allocatorISt13_Rb_tree_nodeISt4pairIKNSt7__cxx1112basic_stringIcSt11char_traitsIcESaIcEEEN6Entity6ColumnEEEEC2ERKSE_
FNDA:16,_ZN9__gnu_cxx13new_allocatorISt13_Rb_tree_nodeISt4pairIKNSt7__cxx1112basic_stringIcSt11char_traitsIcESaIcEEEN6Entity6ColumnEEEED2Ev
FNDA:33,_ZN9__gnu_cxx13new_allocatorISt13_Rb_tree_nodeISt4pairIKNSt7__cxx1112basic_stringIcSt11char_traitsIcESaIcEEEN6Entity9EntityDefEEEED2Ev
FNDA:105,_ZN9__gnu_cxx13new_allocatorISt13_Rb_tree_nodeISt4pairIKNSt7__cxx1112basic_stringIcSt11char_traitsIcESaIcEEEN6Entity6ColumnEEEE8allocateEmPKv
FNDA:164,_ZN9__gnu_cxx13new_allocatorISt13_Rb_tree_nodeISt4pairIKNSt7__cxx1112basic_stringIcSt11char_traitsIcESaIcEEEN6Entity9EntityDefEEEE8allocateEmPKv
FNDA:105,_ZN9__gnu_cxx13new_allocatorISt13_Rb_tree_nodeISt4pairIKNSt7__cxx1112basic_stringIcSt11char_traitsIcESaIcEEEN6Entity6ColumnEEEE10deallocateEPSD_m
FNDA:164,_ZN9__gnu_cxx13new_allocatorISt13_Rb_tree_nodeISt4pairIKNSt7__cxx1112basic_stringIcSt11char_traitsIcESaIcEEEN6Entity9EntityDefEEEE10deallocateEPSD_m
FNDA:105,_ZNK9__gnu_cxx13new_allocatorISt13_Rb_tree_nodeISt4pairIKNSt7__cxx1112basic_stringIcSt11char_traitsIcESaIcEEEN6Entity6ColumnEEEE8max_sizeEv
FNDA:164,_ZNK9__gnu_cxx13new_allocatorISt13_Rb_tree_nodeISt4pairIKNSt7__cxx1112basic_stringIcSt11char_traitsIcESaIcEEEN6Entity9EntityDefEEEE8max_sizeEv
FNDA:105,_ZN9__gnu_cxx13new_allocatorISt13_Rb_tree_nodeISt4pairIKNSt7__cxx1112basic_stringIcSt11char_traitsIcESaIcEEEN6Entity6ColumnEEEE9constructISC_JRKSC_EEEvPT_DpOT0_
FNDA:164,_ZN9__gnu_cxx13new_allocatorISt13_Rb_tree_nodeISt4pairIKNSt7__cxx1112basic_stringIcSt11char_traitsIcESaIcEEEN6Entity9EntityDefEEEE9constructISC_JRS9_RKSB_EEEvPT_DpOT0_
FNDA:105,_ZN9__gnu_cxx13new_allocatorISt13_Rb_tree_nodeISt4pairIKNSt7__cxx1112basic_stringIcSt11char_traitsIcESaIcEEEN6Entity6ColumnEEEE7destroyISC_EEvPT_
FNDA:164,_ZN9__gnu_cxx13new_allocatorISt13_Rb_tree_nodeISt4pairIKNSt7__cxx1112basic_stringIcSt11char_traitsIcESaIcEEEN6Entity9EntityDefEEEE7destroyISC_EEvPT_
FNF:14
FNH:14
DA:79,33
DA:81,12
DA:86,49
DA:99,269
DA:101,269
DA:102,0
DA:111,269
DA:116,269
DA:125,269
DA:126,269
DA:129,269
DA:130,269
DA:135,269
DA:136,269
DA:140,269
LF:15
LH:14
end_of_record
SF:/usr/include/c++/7/new
FN:168,_ZnwmPv
FN:174,_ZdlPvS_
FNDA:0,_ZnwmPv
FNDA:0,_ZdlPvS_
FNF:2
FNH:0
DA:168,0
DA:169,0
DA:174,0
LF:3
LH:0
end_of_record
SF:/home/xronia/workspace/PBase/Entity/EntityCache.cc
FN:38,_ZN6Entity11EntityCacheC2ERKNSt7__cxx1112basic_stringIcSt11char_traitsIcESaIcEEENS_9EntityDefE
FN:44,_ZN6Entity11EntityCacheD2Ev
FN:66,_ZN6Entity11EntityCache11getTableDefERKNSt7__cxx1112basic_stringIcSt11char_traitsIcESaIcEEE
FN:90,_ZN6Entity11EntityCache7destroyEv
FN:101,_Z41__static_initialization_and_destruction_0ii
FN:101,_GLOBAL__sub_I.00101_EntityCache.cc
FNDA:164,_ZN6Entity11EntityCacheC2ERKNSt7__cxx1112basic_stringIcSt11char_traitsIcESaIcEEENS_9EntityDefE
FNDA:164,_ZN6Entity11EntityCacheD2Ev
FNDA:840,_ZN6Entity11EntityCache11getTableDefERKNSt7__cxx1112basic_stringIcSt11char_traitsIcESaIcEEE
FNDA:32,_ZN6Entity11EntityCache7destroyEv
FNDA:33,_GLOBAL__sub_I.00101_EntityCache.cc
FNDA:33,_Z41__static_initialization_and_destruction_0ii
FNF:6
FNH:6
DA:17,33
DA:18,33
DA:38,164
DA:39,164
DA:41,164
DA:42,164
DA:44,164
DA:46,164
DA:66,840
DA:67,840
DA:68,840
DA:69,743
DA:90,32
DA:91,192
DA:94,160
DA:96,32
DA:97,32
DA:101,99
LF:18
LH:18
end_of_record
TN:
SF:/usr/include/c++/7/bits/alloc_traits.h
FN:435,_ZNSt16allocator_traitsISaISt13_Rb_tree_nodeISt4pairIKNSt7__cxx1112basic_stringIcSt11char_traitsIcESaIcEEEN6Entity6ColumnEEEEE8allocateERSD_m
FN:461,_ZNSt16allocator_traitsISaISt13_Rb_tree_nodeISt4pairIKNSt7__cxx1112basic_stringIcSt11char_traitsIcESaIcEEEN6Entity6ColumnEEEEE10deallocateERSD_PSC_m
FN:474,_ZNSt16allocator_traitsISaISt13_Rb_tree_nodeISt4pairIKNSt7__cxx1112basic_stringIcSt11char_traitsIcESaIcEEEN6Entity6ColumnEEEEE9constructISB_JRKSB_EEEvRSD_PT_DpOT0_
FN:486,_ZNSt16allocator_traitsISaISt13_Rb_tree_nodeISt4pairIKNSt7__cxx1112basic_stringIcSt11char_traitsIcESaIcEEEN6Entity6ColumnEEEEE7destroyISB_EEvRSD_PT_
FN:504,_ZNSt16allocator_traitsISaISt13_Rb_tree_nodeISt4pairIKNSt7__cxx1112basic_stringIcSt11char_traitsIcESaIcEEEN6Entity6ColumnEEEEE37select_on_container_copy_constructionERKSD_
FNDA:0,_ZNSt16allocator_traitsISaISt13_Rb_tree_nodeISt4pairIKNSt7__cxx1112basic_stringIcSt11char_traitsIcESaIcEEEN6Entity6ColumnEEEEE8allocateERSD_m
FNDA:0,_ZNSt16allocator_traitsISaISt13_Rb_tree_nodeISt4pairIKNSt7__cxx1112basic_stringIcSt11char_traitsIcESaIcEEEN6Entity6ColumnEEEEE10deallocateERSD_PSC_m
FNDA:0,_ZNSt16allocator_traitsISaISt13_Rb_tree_nodeISt4pairIKNSt7__cxx1112basic_stringIcSt11char_traitsIcESaIcEEEN6Entity6ColumnEEEEE9constructISB_JRKSB_EEEvRSD_PT_DpOT0_
FNDA:0,_ZNSt16allocator_traitsISaISt13_Rb_tree_nodeISt4pairIKNSt7__cxx1112basic_stringIcSt11char_traitsIcESaIcEEEN6Entity6ColumnEEEEE7destroyISB_EEvRSD_PT_
FNDA:0,_ZNSt16allocator_traitsISaISt13_Rb_tree_nodeISt4pairIKNSt7__cxx1112basic_stringIcSt11char_traitsIcESaIcEEEN6Entity6ColumnEEEEE37select_on_container_copy_constructionERKSD_
FNF:5
FNH:0
DA:435,0
DA:436,0
DA:461,0
DA:462,0
DA:474,0
DA:475,0
DA:486,0
DA:487,0
DA:504,0
DA:505,0
LF:10
LH:0
end_of_record
SF:/usr/include/c++/7/bits/allocator.h
FN:133,_ZNSaISt13_Rb_tree_nodeISt4pairIKNSt7__cxx1112basic_stringIcSt11char_traitsIcESaIcEEEN6Entity6ColumnEEEEC2ERKSC_
FN:139,_ZNSaISt13_Rb_tree_nodeISt4pairIKNSt7__cxx1112basic_stringIcSt11char_traitsIcESaIcEEEN6Entity6ColumnEEEED2Ev
FNDA:0,_ZNSaISt13_Rb_tree_nodeISt4pairIKNSt7__cxx1112basic_stringIcSt11char_traitsIcESaIcEEEN6Entity6ColumnEEEEC2ERKSC_
FNDA:0,_ZNSaISt13_Rb_tree_nodeISt4pairIKNSt7__cxx1112basic_stringIcSt11char_traitsIcESaIcEEEN6Entity6ColumnEEEED2Ev
FNF:2
FNH:0
DA:133,0
DA:134,0
DA:139,0
LF:3
LH:0
end_of_record
SF:/usr/include/c++/7/bits/move.h
FN:73,_ZSt7forwardIRKSt4pairIKNSt7__cxx1112basic_stringIcSt11char_traitsIcESaIcEEEN6Entity6ColumnEEEOT_RNSt16remove_referenceISD_E4typeE
FNDA:0,_ZSt7forwardIRKSt4pairIKNSt7__cxx1112basic_stringIcSt11char_traitsIcESaIcEEEN6Entity6ColumnEEEOT_RNSt16remove_referenceISD_E4typeE
FNF:1
FNH:0
DA:73,0
DA:74,0
LF:2
LH:0
end_of_record
SF:/usr/include/c++/7/bits/stl_map.h
FN:199,_ZNSt3mapINSt7__cxx1112basic_stringIcSt11char_traitsIcESaIcEEEN6Entity6ColumnESt4lessIS5_ESaISt4pairIKS5_S7_EEEC2ERKSE_
FN:294,_ZNSt3mapINSt7__cxx1112basic_stringIcSt11char_traitsIcESaIcEEEN6Entity6ColumnESt4lessIS5_ESaISt4pairIKS5_S7_EEED2Ev
FNDA:0,_ZNSt3mapINSt7__cxx1112basic_stringIcSt11char_traitsIcESaIcEEEN6Entity6ColumnESt4lessIS5_ESaISt4pairIKS5_S7_EEEC2ERKSE_
FNDA:12,_ZNSt3mapINSt7__cxx1112basic_stringIcSt11char_traitsIcESaIcEEEN6Entity6ColumnESt4lessIS5_ESaISt4pairIKS5_S7_EEED2Ev
FNF:2
FNH:1
DA:199,0
DA:294,12
LF:2
LH:1
end_of_record
SF:/usr/include/c++/7/bits/stl_pair.h
FN:198,_ZNSt4pairIKNSt7__cxx1112basic_stringIcSt11char_traitsIcESaIcEEEN6Entity6ColumnEED2Ev
FN:292,_ZNSt4pairIKNSt7__cxx1112basic_stringIcSt11char_traitsIcESaIcEEEN6Entity6ColumnEEC2ERKS9_
FNDA:0,_ZNSt4pairIKNSt7__cxx1112basic_stringIcSt11char_traitsIcESaIcEEEN6Entity6ColumnEED2Ev
FNDA:0,_ZNSt4pairIKNSt7__cxx1112basic_stringIcSt11char_traitsIcESaIcEEEN6Entity6ColumnEEC2ERKS9_
FNF:2
FNH:0
DA:198,0
DA:292,0
LF:2
LH:0
end_of_record
SF:/usr/include/c++/7/bits/stl_tree.h
FN:112,_ZNSt18_Rb_tree_node_base10_S_minimumEPS_
FN:126,_ZNSt18_Rb_tree_node_base10_S_maximumEPS_
FN:152,_ZNSt20_Rb_tree_key_compareISt4lessINSt7__cxx1112basic_stringIcSt11char_traitsIcESaIcEEEEEC2ERKS7_
FN:173,_ZNSt15_Rb_tree_headerC2Ev
FN:206,_ZNSt15_Rb_tree_header8_M_resetEv
FN:234,_ZNSt13_Rb_tree_nodeISt4pairIKNSt7__cxx1112basic_stringIcSt11char_traitsIcESaIcEEEN6Entity6ColumnEEE9_M_valptrEv
FN:238,_ZNKSt13_Rb_tree_nodeISt4pairIKNSt7__cxx1112basic_stringIcSt11char_traitsIcESaIcEEEN6Entity6ColumnEEE9_M_valptrEv
FN:546,_ZNSt8_Rb_treeINSt7__cxx1112basic_stringIcSt11char_traitsIcESaIcEEESt4pairIKS5_N6Entity6ColumnEESt10_Select1stISA_ESt4lessIS5_ESaISA_EE11_Alloc_nodeC2ERSG_
FN:554,_ZNKSt8_Rb_treeINSt7__cxx1112basic_stringIcSt11char_traitsIcESaIcEEESt4pairIKS5_N6Entity6ColumnEESt10_Select1stISA_ESt4lessIS5_ESaISA_EE11_Alloc_nodeclIRKSA_EEPSt13_Rb_tree_nodeISA_EOT_
FN:574,_ZNSt8_Rb_treeINSt7__cxx1112basic_stringIcSt11char_traitsIcESaIcEEESt4pairIKS5_N6Entity6ColumnEESt10_Select1stISA_ESt4lessIS5_ESaISA_EE21_M_get_Node_allocatorEv
FN:587,_ZNSt8_Rb_treeINSt7__cxx1112basic_stringIcSt11char_traitsIcESaIcEEESt4pairIKS5_N6Entity6ColumnEESt10_Select1stISA_ESt4lessIS5_ESaISA_EE11_M_get_nodeEv
FN:591,_ZNSt8_Rb_treeINSt7__cxx1112basic_stringIcSt11char_traitsIcESaIcEEESt4pairIKS5_N6Entity6ColumnEESt10_Select1stISA_ESt4lessIS5_ESaISA_EE11_M_put_nodeEPSt13_Rb_tree_nodeISA_E
FN:621,_ZNSt8_Rb_treeINSt7__cxx1112basic_stringIcSt11char_traitsIcESaIcEEESt4pairIKS5_N6Entity6ColumnEESt10_Select1stISA_ESt4lessIS5_ESaISA_EE17_M_construct_nodeIJRKSA_EEEvPSt13_Rb_tree_nodeISA_EDpOT_
FN:640,_ZNSt8_Rb_treeINSt7__cxx1112basic_stringIcSt11char_traitsIcESaIcEEESt4pairIKS5_N6Entity6ColumnEESt10_Select1stISA_ESt4lessIS5_ESaISA_EE14_M_create_nodeIJRKSA_EEEPSt13_Rb_tree_nodeISA_EDpOT_
FN:648,_ZNSt8_Rb_treeINSt7__cxx1112basic_stringIcSt11char_traitsIcESaIcEEESt4pairIKS5_N6Entity6ColumnEESt10_Select1stISA_ESt4lessIS5_ESaISA_EE15_M_destroy_nodeEPSt13_Rb_tree_nodeISA_E
FN:656,_ZNSt8_Rb_treeINSt7__cxx1112basic_stringIcSt11char_traitsIcESaIcEEESt4pairIKS5_N6Entity6ColumnEESt10_Select1stISA_ESt4lessIS5_ESaISA_EE12_M_drop_nodeEPSt13_Rb_tree_nodeISA_E
FN:664,_ZNSt8_Rb_treeINSt7__cxx1112basic_stringIcSt11char_traitsIcESaIcEEESt4pairIKS5_N6Entity6ColumnEESt10_Select1stISA_ESt4lessIS5_ESaISA_EE13_M_clone_nodeINSG_11_Alloc_nodeEEEPSt13_Rb_tree_nodeISA_EPKSK_RT_
FN:677,_ZNSt8_Rb_treeINSt7__cxx1112basic_stringIcSt11char_traitsIcESaIcEEESt4pairIKS5_N6Entity6ColumnEESt10_Select1stISA_ESt4lessIS5_ESaISA_EE13_Rb_tree_implISE_Lb1EED2Ev
FN:692,_ZNSt8_Rb_treeINSt7__cxx1112basic_stringIcSt11char_traitsIcESaIcEEESt4pairIKS5_N6Entity6ColumnEESt10_Select1stISA_ESt4lessIS5_ESaISA_EE13_Rb_tree_implISE_Lb1EEC2ERKSI_
FN:712,_ZNSt8_Rb_treeINSt7__cxx1112basic_stringIcSt11char_traitsIcESaIcEEESt4pairIKS5_N6Entity6ColumnEESt10_Select1stISA_ESt4lessIS5_ESaISA_EE7_M_rootEv
FN:716,_ZNKSt8_Rb_treeINSt7__cxx1112basic_stringIcSt11char_traitsIcESaIcEEESt4pairIKS5_N6Entity6ColumnEESt10_Select1stISA_ESt4lessIS5_ESaISA_EE7_M_rootEv
FN:720,_ZNSt8_Rb_treeINSt7__cxx1112basic_stringIcSt11char_traitsIcESaIcEEESt4pairIKS5_N6Entity6ColumnEESt10_Select1stISA_ESt4lessIS5_ESaISA_EE11_M_leftmostEv
FN:728,_ZNSt8_Rb_treeINSt7__cxx1112basic_stringIcSt11char_traitsIcESaIcEEESt4pairIKS5_N6Entity6ColumnEESt10_Select1stISA_ESt4lessIS5_ESaISA_EE12_M_rightmostEv
FN:736,_ZNSt8_Rb_treeINSt7__cxx1112basic_stringIcSt11char_traitsIcESaIcEEESt4pairIKS5_N6Entity6ColumnEESt10_Select1stISA_ESt4lessIS5_ESaISA_EE8_M_beginEv
FN:740,_ZNKSt8_Rb_treeINSt7__cxx1112basic_stringIcSt11char_traitsIcESaIcEEESt4pairIKS5_N6Entity6ColumnEESt10_Select1stISA_ESt4lessIS5_ESaISA_EE8_M_beginEv
FN:747,_ZNSt8_Rb_treeINSt7__cxx1112basic_stringIcSt11char_traitsIcESaIcEEESt4pairIKS5_N6Entity6ColumnEESt10_Select1stISA_ESt4lessIS5_ESaISA_EE6_M_endEv
FN:763,_ZNSt8_Rb_treeINSt7__cxx1112basic_stringIcSt11char_traitsIcESaIcEEESt4pairIKS5_N6Entity6ColumnEESt10_Select1stISA_ESt4lessIS5_ESaISA_EE7_S_leftEPSt18_Rb_tree_node_base
FN:767,_ZNSt8_Rb_treeINSt7__cxx1112basic_stringIcSt11char_traitsIcESaIcEEESt4pairIKS5_N6Entity6ColumnEESt10_Select1stISA_ESt4lessIS5_ESaISA_EE7_S_leftEPKSt18_Rb_tree_node_base
FN:771,_ZNSt8_Rb_treeINSt7__cxx1112basic_stringIcSt11char_traitsIcESaIcEEESt4pairIKS5_N6Entity6ColumnEESt10_Select1stISA_ESt4lessIS5_ESaISA_EE8_S_rightEPSt18_Rb_tree_node_base
FN:775,_ZNSt8_Rb_treeINSt7__cxx1112basic_stringIcSt11char_traitsIcESaIcEEESt4pairIKS5_N6Entity6ColumnEESt10_Select1stISA_ESt4lessIS5_ESaISA_EE8_S_rightEPKSt18_Rb_tree_node_base
FN:787,_ZNSt8_Rb_treeINSt7__cxx1112basic_stringIcSt11char_traitsIcESaIcEEESt4pairIKS5_N6Entity6ColumnEESt10_Select1stISA_ESt4lessIS5_ESaISA_EE10_S_minimumEPSt18_Rb_tree_node_base
FN:795,_ZNSt8_Rb_treeINSt7__cxx1112basic_stringIcSt11char_traitsIcESaIcEEESt4pairIKS5_N6Entity6ColumnEESt10_Select1stISA_ESt4lessIS5_ESaISA_EE10_S_maximumEPSt18_Rb_tree_node_base
FN:873,_ZNSt8_Rb_treeINSt7__cxx1112basic_stringIcSt11char_traitsIcESaIcEEESt4pairIKS5_N6Entity6ColumnEESt10_Select1stISA_ESt4lessIS5_ESaISA_EE7_M_copyINSG_11_Alloc_nodeEEEPSt13_Rb_tree_nodeISA_ERKSG_RT_
FN:883,_ZNSt8_Rb_treeINSt7__cxx1112basic_stringIcSt11char_traitsIcESaIcEEESt4pairIKS5_N6Entity6ColumnEESt10_Select1stISA_ESt4lessIS5_ESaISA_EE7_M_copyERKSG_
FN:920,_ZNSt8_Rb_treeINSt7__cxx1112basic_stringIcSt11char_traitsIcESaIcEEESt4pairIKS5_N6Entity6ColumnEESt10_Select1stISA_ESt4lessIS5_ESaISA_EEC2ERKSG_
FN:948,_ZNSt8_Rb_treeINSt7__cxx1112basic_stringIcSt11char_traitsIcESaIcEEESt4pairIKS5_N6Entity6ColumnEESt10_Select1stISA_ESt4lessIS5_ESaISA_EED2Ev
FN:1814,_ZNSt8_Rb_treeINSt7__cxx1112basic_stringIcSt11char_traitsIcESaIcEEESt4pairIKS5_N6Entity6ColumnEESt10_Select1stISA_ESt4lessIS5_ESaISA_EE7_M_copyINSG_11_Alloc_nodeEEEPSt13_Rb_tree_nodeISA_EPKSK_PSt18_Rb_tree_node_baseRT_
FN:1850,_ZNSt8_Rb_treeINSt7__cxx1112basic_stringIcSt11char_traitsIcESaIcEEESt4pairIKS5_N6Entity6ColumnEESt10_Select1stISA_ESt4lessIS5_ESaISA_EE8_M_eraseEPSt13_Rb_tree_nodeISA_E
FNDA:0,_ZNSt18_Rb_tree_node_base10_S_minimumEPS_
FNDA:0,_ZNSt18_Rb_tree_node_base10_S_maximumEPS_
FNDA:0,_ZNSt20_Rb_tree_key_compareISt4lessINSt7__cxx1112basic_stringIcSt11char_traitsIcESaIcEEEEEC2ERKS7_
FNDA:0,_ZNSt15_Rb_tree_headerC2Ev
FNDA:0,_ZNSt15_Rb_tree_header8_M_resetEv
FNDA:0,_ZNSt13_Rb_tree_nodeISt4pairIKNSt7__cxx1112basic_stringIcSt11char_traitsIcESaIcEEEN6Entity6ColumnEEE9_M_valptrEv
FNDA:0,_ZNKSt13_Rb_tree_nodeISt4pairIKNSt7__cxx1112basic_stringIcSt11char_traitsIcESaIcEEEN6Entity6ColumnEEE9_M_valptrEv
FNDA:0,_ZNSt8_Rb_treeINSt7__cxx1112basic_stringIcSt11char_traitsIcESaIcEEESt4pairIKS5_N6Entity6ColumnEESt10_Select1stISA_ESt4lessIS5_ESaISA_EE11_Alloc_nodeC2ERSG_
FNDA:0,_ZNKSt8_Rb_treeINSt7__cxx1112basic_stringIcSt11char_traitsIcESaIcEEESt4pairIKS5_N6Entity6ColumnEESt10_Select1stISA_ESt4lessIS5_ESaISA_EE11_Alloc_nodeclIRKSA_EEPSt13_Rb_tree_nodeISA_EOT_
FNDA:0,_ZNSt8_Rb_treeINSt7__cxx1112basic_stringIcSt11char_traitsIcESaIcEEESt4pairIKS5_N6Entity6ColumnEESt10_Select1stISA_ESt4lessIS5_ESaISA_EE21_M_get_Node_allocatorEv
FNDA:0,_ZNSt8_Rb_treeINSt7__cxx1112basic_stringIcSt11char_traitsIcESaIcEEESt4pairIKS5_N6Entity6ColumnEESt10_Select1stISA_ESt4lessIS5_ESaISA_EE11_M_get_nodeEv
FNDA:0,_ZNSt8_Rb_treeINSt7__cxx1112basic_stringIcSt11char_traitsIcESaIcEEESt4pairIKS5_N6Entity6ColumnEESt10_Select1stISA_ESt4lessIS5_ESaISA_EE11_M_put_nodeEPSt13_Rb_tree_nodeISA_E
FNDA:0,_ZNSt8_Rb_treeINSt7__cxx1112basic_stringIcSt11char_traitsIcESaIcEEESt4pairIKS5_N6Entity6ColumnEESt10_Select1stISA_ESt4lessIS5_ESaISA_EE17_M_construct_nodeIJRKSA_EEEvPSt13_Rb_tree_nodeISA_EDpOT_
FNDA:0,_ZNSt8_Rb_treeINSt7__cxx1112basic_stringIcSt11char_traitsIcESaIcEEESt4pairIKS5_N6Entity6ColumnEESt10_Select1stISA_ESt4lessIS5_ESaISA_EE14_M_create_nodeIJRKSA_EEEPSt13_Rb_tree_nodeISA_EDpOT_
FNDA:0,_ZNSt8_Rb_treeINSt7__cxx1112basic_stringIcSt11char_traitsIcESaIcEEESt4pairIKS5_N6Entity6ColumnEESt10_Select1stISA_ESt4lessIS5_ESaISA_EE15_M_destroy_nodeEPSt13_Rb_tree_nodeISA_E
FNDA:0,_ZNSt8_Rb_treeINSt7__cxx1112basic_stringIcSt11char_traitsIcESaIcEEESt4pairIKS5_N6Entity6ColumnEESt10_Select1stISA_ESt4lessIS5_ESaISA_EE12_M_drop_nodeEPSt13_Rb_tree_nodeISA_E
FNDA:0,_ZNSt8_Rb_treeINSt7__cxx1112basic_stringIcSt11char_traitsIcESaIcEEESt4pairIKS5_N6Entity6ColumnEESt10_Select1stISA_ESt4lessIS5_ESaISA_EE13_M_clone_nodeINSG_11_Alloc_nodeEEEPSt13_Rb_tree_nodeISA_EPKSK_RT_
FNDA:0,_ZNSt8_Rb_treeINSt7__cxx1112basic_stringIcSt11char_traitsIcESaIcEEESt4pairIKS5_N6Entity6ColumnEESt10_Select1stISA_ESt4lessIS5_ESaISA_EE13_Rb_tree_implISE_Lb1EED2Ev
FNDA:0,_ZNSt8_Rb_treeINSt7__cxx1112basic_stringIcSt11char_traitsIcESaIcEEESt4pairIKS5_N6Entity6ColumnEESt10_Select1stISA_ESt4lessIS5_ESaISA_EE13_Rb_tree_implISE_Lb1EEC2ERKSI_
FNDA:0,_ZNSt8_Rb_treeINSt7__cxx1112basic_stringIcSt11char_traitsIcESaIcEEESt4pairIKS5_N6Entity6ColumnEESt10_Select1stISA_ESt4lessIS5_ESaISA_EE7_M_rootEv
FNDA:0,_ZNKSt8_Rb_treeINSt7__cxx1112basic_stringIcSt11char_traitsIcESaIcEEESt4pairIKS5_N6Entity6ColumnEESt10_Select1stISA_ESt4lessIS5_ESaISA_EE7_M_rootEv
FNDA:0,_ZNSt8_Rb_treeINSt7__cxx1112basic_stringIcSt11char_traitsIcESaIcEEESt4pairIKS5_N6Entity6ColumnEESt10_Select1stISA_ESt4lessIS5_ESaISA_EE11_M_leftmostEv
FNDA:0,_ZNSt8_Rb_treeINSt7__cxx1112basic_stringIcSt11char_traitsIcESaIcEEESt4pairIKS5_N6Entity6ColumnEESt10_Select1stISA_ESt4lessIS5_ESaISA_EE12_M_rightmostEv
FNDA:38,_ZNSt8_Rb_treeINSt7__cxx1112basic_stringIcSt11char_traitsIcESaIcEEESt4pairIKS5_N6Entity6ColumnEESt10_Select1stISA_ESt4lessIS5_ESaISA_EE8_M_beginEv
FNDA:0,_ZNKSt8_Rb_treeINSt7__cxx1112basic_stringIcSt11char_traitsIcESaIcEEESt4pairIKS5_N6Entity6ColumnEESt10_Select1stISA_ESt4lessIS5_ESaISA_EE8_M_beginEv
FNDA:0,_ZNSt8_Rb_treeINSt7__cxx1112basic_stringIcSt11char_traitsIcESaIcEEESt4pairIKS5_N6Entity6ColumnEESt10_Select1stISA_ESt4lessIS5_ESaISA_EE6_M_endEv
FNDA:0,_ZNSt8_Rb_treeINSt7__cxx1112basic_stringIcSt11char_traitsIcESaIcEEESt4pairIKS5_N6Entity6ColumnEESt10_Select1stISA_ESt4lessIS5_ESaISA_EE7_S_leftEPSt18_Rb_tree_node_base
FNDA:0,_ZNSt8_Rb_treeINSt7__cxx1112basic_stringIcSt11char_traitsIcESaIcEEESt4pairIKS5_N6Entity6ColumnEESt10_Select1stISA_ESt4lessIS5_ESaISA_EE7_S_leftEPKSt18_Rb_tree_node_base
FNDA:0,_ZNSt8_Rb_treeINSt7__cxx1112basic_stringIcSt11char_traitsIcESaIcEEESt4pairIKS5_N6Entity6ColumnEESt10_Select1stISA_ESt4lessIS5_ESaISA_EE8_S_rightEPSt18_Rb_tree_node_base
FNDA:0,_ZNSt8_Rb_treeINSt7__cxx1112basic_stringIcSt11char_traitsIcESaIcEEESt4pairIKS5_N6Entity6ColumnEESt10_Select1stISA_ESt4lessIS5_ESaISA_EE8_S_rightEPKSt18_Rb_tree_node_base
FNDA:0,_ZNSt8_Rb_treeINSt7__cxx1112basic_stringIcSt11char_traitsIcESaIcEEESt4pairIKS5_N6Entity6ColumnEESt10_Select1stISA_ESt4lessIS5_ESaISA_EE10_S_minimumEPSt18_Rb_tree_node_base
FNDA:0,_ZNSt8_Rb_treeINSt7__cxx1112basic_stringIcSt11char_traitsIcESaIcEEESt4pairIKS5_N6Entity6ColumnEESt10_Select1stISA_ESt4lessIS5_ESaISA_EE10_S_maximumEPSt18_Rb_tree_node_base
FNDA:0,_ZNSt8_Rb_treeINSt7__cxx1112basic_stringIcSt11char_traitsIcESaIcEEESt4pairIKS5_N6Entity6ColumnEESt10_Select1stISA_ESt4lessIS5_ESaISA_EE7_M_copyINSG_11_Alloc_nodeEEEPSt13_Rb_tree_nodeISA_ERKSG_RT_
FNDA:0,_ZNSt8_Rb_treeINSt7__cxx1112basic_stringIcSt11char_traitsIcESaIcEEESt4pairIKS5_N6Entity6ColumnEESt10_Select1stISA_ESt4lessIS5_ESaISA_EE7_M_copyERKSG_
FNDA:0,_ZNSt8_Rb_treeINSt7__cxx1112basic_stringIcSt11char_traitsIcESaIcEEESt4pairIKS5_N6Entity6ColumnEESt10_Select1stISA_ESt4lessIS5_ESaISA_EEC2ERKSG_
FNDA:12,_ZNSt8_Rb_treeINSt7__cxx1112basic_stringIcSt11char_traitsIcESaIcEEESt4pairIKS5_N6Entity6ColumnEESt10_Select1stISA_ESt4lessIS5_ESaISA_EED2Ev
FNDA:0,_ZNSt8_Rb_treeINSt7__cxx1112basic_stringIcSt11char_traitsIcESaIcEEESt4pairIKS5_N6Entity6ColumnEESt10_Select1stISA_ESt4lessIS5_ESaISA_EE7_M_copyINSG_11_Alloc_nodeEEEPSt13_Rb_tree_nodeISA_EPKSK_PSt18_Rb_tree_node_baseRT_
FNDA:0,_ZNSt8_Rb_treeINSt7__cxx1112basic_stringIcSt11char_traitsIcESaIcEEESt4pairIKS5_N6Entity6ColumnEESt10_Select1stISA_ESt4lessIS5_ESaISA_EE8_M_eraseEPSt13_Rb_tree_nodeISA_E
FNF:38
FNH:2
DA:112,0
DA:114,0
DA:115,0
DA:126,0
DA:128,0
DA:129,0
DA:152,0
DA:154,0
DA:173,0
DA:174,0
DA:175,0
DA:176,0
DA:177,0
DA:206,0
DA:208,0
DA:209,0
DA:210,0
DA:211,0
DA:212,0
DA:234,0
DA:235,0
DA:238,0
DA:239,0
DA:546,0
DA:547,0
DA:554,0
DA:556,0
DA:574,0
DA:575,0
DA:587,0
DA:588,0
DA:591,0
DA:592,0
DA:621,0
DA:625,0
DA:626,0
DA:630,0
DA:633,0
DA:634,0
DA:636,0
DA:640,0
DA:642,0
DA:643,0
DA:644,0
DA:648,0
DA:650,0
DA:652,0
DA:656,0
DA:658,0
DA:659,0
DA:660,0
DA:664,0
DA:666,0
DA:667,0
DA:668,0
DA:669,0
DA:670,0
DA:677,0
DA:692,0
DA:694,0
DA:695,0
DA:712,0
DA:713,0
DA:716,0
DA:717,0
DA:720,0
DA:721,0
DA:728,0
DA:729,0
DA:736,38
DA:737,38
DA:740,0
DA:743,0
DA:747,0
DA:748,0
DA:763,0
DA:764,0
DA:767,0
DA:768,0
DA:771,0
DA:772,0
DA:775,0
DA:776,0
DA:787,0
DA:788,0
DA:795,0
DA:796,0
DA:873,0
DA:875,0
DA:876,0
DA:877,0
DA:878,0
DA:879,0
DA:883,0
DA:885,0
DA:886,0
DA:920,0
DA:921,0
DA:923,0
DA:924,0
DA:925,0
DA:948,12
DA:949,12
DA:1814,0
DA:1818,0
DA:1819,0
DA:1823,0
DA:1824,0
DA:1825,0
DA:1826,0
DA:1828,0
DA:1830,0
DA:1831,0
DA:1832,0
DA:1833,0
DA:1834,0
DA:1835,0
DA:1836,0
DA:1839,0
DA:1841,0
DA:1842,0
DA:1844,0
DA:1850,0
DA:1854,0
DA:1856,0
DA:1857,0
DA:1858,0
DA:1859,0
DA:1861,0
LF:129
LH:4
end_of_record
SF:/usr/include/c++/7/ext/aligned_buffer.h
FN:62,_ZN9__gnu_cxx16__aligned_membufISt4pairIKNSt7__cxx1112basic_stringIcSt11char_traitsIcESaIcEEEN6Entity6ColumnEEE7_M_addrEv
FN:66,_ZNK9__gnu_cxx16__aligned_membufISt4pairIKNSt7__cxx1112basic_stringIcSt11char_traitsIcESaIcEEEN6Entity6ColumnEEE7_M_addrEv
FN:70,_ZN9__gnu_cxx16__aligned_membufISt4pairIKNSt7__cxx1112basic_stringIcSt11char_traitsIcESaIcEEEN6Entity6ColumnEEE6_M_ptrEv
FN:74,_ZNK9__gnu_cxx16__aligned_membufISt4pairIKNSt7__cxx1112basic_stringIcSt11char_traitsIcESaIcEEEN6Entity6ColumnEEE6_M_ptrEv
FNDA:0,_ZN9__gnu_cxx16__aligned_membufISt4pairIKNSt7__cxx1112basic_stringIcSt11char_traitsIcESaIcEEEN6Entity6ColumnEEE7_M_addrEv
FNDA:0,_ZNK9__gnu_cxx16__aligned_membufISt4pairIKNSt7__cxx1112basic_stringIcSt11char_traitsIcESaIcEEEN6Entity6ColumnEEE7_M_addrEv
FNDA:0,_ZN9__gnu_cxx16__aligned_membufISt4pairIKNSt7__cxx1112basic_stringIcSt11char_traitsIcESaIcEEEN6Entity6ColumnEEE6_M_ptrEv
FNDA:0,_ZNK9__gnu_cxx16__aligned_membufISt4pairIKNSt7__cxx1112basic_stringIcSt11char_traitsIcESaIcEEEN6Entity6ColumnEEE6_M_ptrEv
FNF:4
FNH:0
DA:62,0
DA:63,0
DA:66,0
DA:67,0
DA:70,0
DA:71,0
DA:74,0
DA:75,0
LF:8
LH:0
end_of_record
SF:/usr/include/c++/7/ext/alloc_traits.h
FN:94,_ZN9__gnu_cxx14__alloc_traitsISaISt13_Rb_tree_nodeISt4pairIKNSt7__cxx1112basic_stringIcSt11char_traitsIcESaIcEEEN6Entity6ColumnEEEEE17_S_select_on_copyERKSE_
FNDA:0,_ZN9__gnu_cxx14__alloc_traitsISaISt13_Rb_tree_nodeISt4pairIKNSt7__cxx1112basic_stringIcSt11char_traitsIcESaIcEEEN6Entity6ColumnEEEEE17_S_select_on_copyERKSE_
FNF:1
FNH:0
DA:94,0
DA:95,0
LF:2
LH:0
end_of_record
SF:/usr/include/c++/7/ext/new_allocator.h
FN:81,_ZN9__gnu_cxx13new_allocatorISt13_Rb_tree_nodeISt4pairIKNSt7__cxx1112basic_stringIcSt11char_traitsIcESaIcEEEN6Entity6ColumnEEEEC2ERKSE_
FN:86,_ZN9__gnu_cxx13new_allocatorISt13_Rb_tree_nodeISt4pairIKNSt7__cxx1112basic_stringIcSt11char_traitsIcESaIcEEEN6Entity6ColumnEEEED2Ev
FN:99,_ZN9__gnu_cxx13new_allocatorISt13_Rb_tree_nodeISt4pairIKNSt7__cxx1112basic_stringIcSt11char_traitsIcESaIcEEEN6Entity6ColumnEEEE8allocateEmPKv
FN:116,_ZN9__gnu_cxx13new_allocatorISt13_Rb_tree_nodeISt4pairIKNSt7__cxx1112basic_stringIcSt11char_traitsIcESaIcEEEN6Entity6ColumnEEEE10deallocateEPSD_m
FN:129,_ZNK9__gnu_cxx13new_allocatorISt13_Rb_tree_nodeISt4pairIKNSt7__cxx1112basic_stringIcSt11char_traitsIcESaIcEEEN6Entity6ColumnEEEE8max_sizeEv
FN:135,_ZN9__gnu_cxx13new_allocatorISt13_Rb_tree_nodeISt4pairIKNSt7__cxx1112basic_stringIcSt11char_traitsIcESaIcEEEN6Entity6ColumnEEEE9constructISC_JRKSC_EEEvPT_DpOT0_
FN:140,_ZN9__gnu_cxx13new_allocatorISt13_Rb_tree_nodeISt4pairIKNSt7__cxx1112basic_stringIcSt11char_traitsIcESaIcEEEN6Entity6ColumnEEEE7destroyISC_EEvPT_
FNDA:0,_ZN9__gnu_cxx13new_allocatorISt13_Rb_tree_nodeISt4pairIKNSt7__cxx1112basic_stringIcSt11char_traitsIcESaIcEEEN6Entity6ColumnEEEEC2ERKSE_
FNDA:0,_ZN9__gnu_cxx13new_allocatorISt13_Rb_tree_nodeISt4pairIKNSt7__cxx1112basic_stringIcSt11char_traitsIcESaIcEEEN6Entity6ColumnEEEED2Ev
FNDA:0,_ZN9__gnu_cxx13new_allocatorISt13_Rb_tree_nodeISt4pairIKNSt7__cxx1112basic_stringIcSt11char_traitsIcESaIcEEEN6Entity6ColumnEEEE8allocateEmPKv
FNDA:0,_ZN9__gnu_cxx13new_allocatorISt13_Rb_tree_nodeISt4pairIKNSt7__cxx1112basic_stringIcSt11char_traitsIcESaIcEEEN6Entity6ColumnEEEE10deallocateEPSD_m
FNDA:0,_ZNK9__gnu_cxx13new_allocatorISt13_Rb_tree_nodeISt4pairIKNSt7__cxx1112basic_stringIcSt11char_traitsIcESaIcEEEN6Entity6ColumnEEEE8max_sizeEv
FNDA:0,_ZN9__gnu_cxx13new_allocatorISt13_Rb_tree_nodeISt4pairIKNSt7__cxx1112basic_stringIcSt11char_traitsIcESaIcEEEN6Entity6ColumnEEEE9constructISC_JRKSC_EEEvPT_DpOT0_
FNDA:0,_ZN9__gnu_cxx13new_allocatorISt13_Rb_tree_nodeISt4pairIKNSt7__cxx1112basic_stringIcSt11char_traitsIcESaIcEEEN6Entity6ColumnEEEE7destroyISC_EEvPT_
FNF:7
FNH:0
DA:81,0
DA:86,0
DA:99,0
DA:101,0
DA:102,0
DA:111,0
DA:116,0
DA:125,0
DA:126,0
DA:129,0
DA:130,0
DA:135,0
DA:136,0
DA:140,0
LF:14
LH:0
end_of_record
SF:/usr/include/c++/7/new
FN:168,_ZnwmPv
FN:174,_ZdlPvS_
FNDA:0,_ZnwmPv
FNDA:0,_ZdlPvS_
FNF:2
FNH:0
DA:168,0
DA:169,0
DA:174,0
LF:3
LH:0
end_of_record
SF:/home/xronia/workspace/PBase/Entity/EntityDef.cc
FN:18,_ZN6Entity6ColumnC2ENS0_4TypeEimm
FN:23,_ZN6Entity6ColumnD2Ev
FN:27,_ZN6Entity9EntityDefC2EmSt3mapINSt7__cxx1112basic_stringIcSt11char_traitsIcESaIcEEENS_6ColumnESt4lessIS7_ESaISt4pairIKS7_S8_EEE
FN:32,_ZN6Entity9EntityDefD2Ev
FNDA:1187,_ZN6Entity6ColumnC2ENS0_4TypeEimm
FNDA:5999,_ZN6Entity6ColumnD2Ev
FNDA:164,_ZN6Entity9EntityDefC2EmSt3mapINSt7__cxx1112basic_stringIcSt11char_traitsIcESaIcEEENS_6ColumnESt4lessIS7_ESaISt4pairIKS7_S8_EEE
FNDA:360,_ZN6Entity9EntityDefD2Ev
FNF:4
FNH:4
DA:18,1187
DA:19,1187
DA:21,1187
DA:23,5999
DA:25,5999
DA:27,164
DA:28,164
DA:30,164
DA:32,360
DA:34,360
LF:10
LH:10
end_of_record
TN:
SF:/home/xronia/workspace/PBase/Entity/AppTable.cc
FN:31,_ZN6Entity8AppTableC2ERKNSt7__cxx1112basic_stringIcSt11char_traitsIcESaIcEEE
FN:36,_ZN6Entity8AppTableC2ERKNSt7__cxx1112basic_stringIcSt11char_traitsIcESaIcEEERNS_10AbstEntityE
FN:42,_ZN6Entity8AppTableD0Ev
FN:42,_ZN6Entity8AppTableD2Ev
FN:48,_ZNK6Entity8AppTable12getTableNameB5cxx11Ev
FN:53,_ZNK6Entity8AppTable12getTableSizeEv
FN:58,_ZNK6Entity8AppTable7getDataEv
FN:62,_ZN6Entity8AppTable7setDataERKNS_10AbstEntityE
FNDA:100,_ZN6Entity8AppTableC2ERKNSt7__cxx1112basic_stringIcSt11char_traitsIcESaIcEEE
FNDA:604,_ZN6Entity8AppTableC2ERKNSt7__cxx1112basic_stringIcSt11char_traitsIcESaIcEEERNS_10AbstEntityE
FNDA:0,_ZN6Entity8AppTableD0Ev
FNDA:671,_ZN6Entity8AppTableD2Ev
FNDA:141,_ZNK6Entity8AppTable12getTableNameB5cxx11Ev
FNDA:330,_ZNK6Entity8AppTable12getTableSizeEv
FNDA:71,_ZNK6Entity8AppTable7getDataEv
FNDA:0,_ZN6Entity8AppTable7setDataERKNS_10AbstEntityE
FNF:8
FNH:6
DA:31,100
DA:32,167
DA:33,267
DA:34,67
DA:36,604
DA:37,1208
DA:38,1812
DA:39,604
DA:42,1342
DA:43,671
DA:44,671
DA:45,671
DA:48,141
DA:49,141
DA:53,330
DA:54,330
DA:58,71
DA:59,71
DA:62,0
DA:63,0
DA:64,0
LF:21
LH:18
end_of_record
TN:
SF:/usr/include/c++/7/bits/alloc_traits.h
FN:435,_ZNSt16allocator_traitsISaISt13_Rb_tree_nodeISt4pairIKNSt7__cxx1112basic_stringIcSt11char_traitsIcESaIcEEEPKN6Entity11ImplIndexerEEEEE8allocateERSF_m
FN:461,_ZNSt16allocator_traitsISaISt13_Rb_tree_nodeISt4pairIKNSt7__cxx1112basic_stringIcSt11char_traitsIcESaIcEEEPKN6Entity11ImplIndexerEEEEE10deallocateERSF_PSE_m
FN:474,_ZNSt16allocator_traitsISaISt13_Rb_tree_nodeISt4pairIKNSt7__cxx1112basic_stringIcSt11char_traitsIcESaIcEEEPKN6Entity11ImplIndexerEEEEE9constructISD_JS8_RSC_EEEvRSF_PT_DpOT0_
FN:486,_ZNSt16allocator_traitsISaISt13_Rb_tree_nodeISt4pairIKNSt7__cxx1112basic_stringIcSt11char_traitsIcESaIcEEEPKN6Entity11ImplIndexerEEEEE7destroyISD_EEvRSF_PT_
FNDA:163,_ZNSt16allocator_traitsISaISt13_Rb_tree_nodeISt4pairIKNSt7__cxx1112basic_stringIcSt11char_traitsIcESaIcEEEPKN6Entity11ImplIndexerEEEEE8allocateERSF_m
FNDA:163,_ZNSt16allocator_traitsISaISt13_Rb_tree_nodeISt4pairIKNSt7__cxx1112basic_stringIcSt11char_traitsIcESaIcEEEPKN6Entity11ImplIndexerEEEEE10deallocateERSF_PSE_m
FNDA:163,_ZNSt16allocator_traitsISaISt13_Rb_tree_nodeISt4pairIKNSt7__cxx1112basic_stringIcSt11char_traitsIcESaIcEEEPKN6Entity11ImplIndexerEEEEE9constructISD_JS8_RSC_EEEvRSF_PT_DpOT0_
FNDA:163,_ZNSt16allocator_traitsISaISt13_Rb_tree_nodeISt4pairIKNSt7__cxx1112basic_stringIcSt11char_traitsIcESaIcEEEPKN6Entity11ImplIndexerEEEEE7destroyISD_EEvRSF_PT_
FNF:4
FNH:4
DA:435,163
DA:436,163
DA:461,163
DA:462,163
DA:474,163
DA:475,163
DA:486,163
DA:487,163
LF:8
LH:8
end_of_record
SF:/usr/include/c++/7/bits/allocator.h
FN:131,_ZNSaISt13_Rb_tree_nodeISt4pairIKNSt7__cxx1112basic_stringIcSt11char_traitsIcESaIcEEEPKN6Entity11ImplIndexerEEEEC2Ev
FN:139,_ZNSaISt13_Rb_tree_nodeISt4pairIKNSt7__cxx1112basic_stringIcSt11char_traitsIcESaIcEEEPKN6Entity11ImplIndexerEEEED2Ev
FNDA:33,_ZNSaISt13_Rb_tree_nodeISt4pairIKNSt7__cxx1112basic_stringIcSt11char_traitsIcESaIcEEEPKN6Entity11ImplIndexerEEEEC2Ev
FNDA:33,_ZNSaISt13_Rb_tree_nodeISt4pairIKNSt7__cxx1112basic_stringIcSt11char_traitsIcESaIcEEEPKN6Entity11ImplIndexerEEEED2Ev
FNF:2
FNH:2
DA:131,33
DA:139,33
LF:2
LH:2
end_of_record
SF:/usr/include/c++/7/bits/basic_string.h
FN:6082,_ZStltIcSt11char_traitsIcESaIcEEbRKNSt7__cxx1112basic_stringIT_T0_T1_EESA_
FNDA:0,_ZStltIcSt11char_traitsIcESaIcEEbRKNSt7__cxx1112basic_stringIT_T0_T1_EESA_
FNF:1
FNH:0
DA:6082,0
DA:6085,0
LF:2
LH:0
end_of_record
SF:/usr/include/c++/7/bits/ios_base.h
FN:129,_ZStorSt13_Ios_OpenmodeS_
FNDA:0,_ZStorSt13_Ios_OpenmodeS_
FNF:1
FNH:0
DA:129,0
DA:130,0
LF:2
LH:0
end_of_record
SF:/usr/include/c++/7/bits/move.h
FN:73,_ZSt7forwardIKNSt7__cxx1112basic_stringIcSt11char_traitsIcESaIcEEEEOT_RNSt16remove_referenceIS7_E4typeE
FN:73,_ZSt7forwardISt17_Rb_tree_iteratorISt4pairIKNSt7__cxx1112basic_stringIcSt11char_traitsIcESaIcEEEPKN6Entity11ImplIndexerEEEEOT_RNSt16remove_referenceISF_E4typeE
FN:73,_ZSt7forwardIbEOT_RNSt16remove_referenceIS0_E4typeE
FN:73,_ZSt7forwardIRPSt18_Rb_tree_node_baseEOT_RNSt16remove_referenceIS3_E4typeE
FN:73,_ZSt7forwardIRPSt13_Rb_tree_nodeISt4pairIKNSt7__cxx1112basic_stringIcSt11char_traitsIcESaIcEEEPKN6Entity11ImplIndexerEEEEOT_RNSt16remove_referenceISH_E4typeE
FN:73,_ZSt7forwardIRPKN6Entity11ImplIndexerEEOT_RNSt16remove_referenceIS5_E4typeE
FNDA:0,_ZSt7forwardIbEOT_RNSt16remove_referenceIS0_E4typeE
FNDA:163,_ZSt7forwardISt17_Rb_tree_iteratorISt4pairIKNSt7__cxx1112basic_stringIcSt11char_traitsIcESaIcEEEPKN6Entity11ImplIndexerEEEEOT_RNSt16remove_referenceISF_E4typeE
FNDA:0,_ZSt7forwardIRPSt18_Rb_tree_node_baseEOT_RNSt16remove_referenceIS3_E4typeE
FNDA:163,_ZSt7forwardIRPSt13_Rb_tree_nodeISt4pairIKNSt7__cxx1112basic_stringIcSt11char_traitsIcESaIcEEEPKN6Entity11ImplIndexerEEEEOT_RNSt16remove_referenceISH_E4typeE
FNDA:1141,_ZSt7forwardIRPKN6Entity11ImplIndexerEEOT_RNSt16remove_referenceIS5_E4typeE
FNDA:1141,_ZSt7forwardIKNSt7__cxx1112basic_stringIcSt11char_traitsIcESaIcEEEEOT_RNSt16remove_referenceIS7_E4typeE
FNF:6
FNH:4
DA:73,2608
DA:74,2608
LF:2
LH:2
end_of_record
SF:/usr/include/c++/7/bits/stl_function.h
FN:385,_ZNKSt4lessINSt7__cxx1112basic_stringIcSt11char_traitsIcESaIcEEEEclERKS5_S8_
FN:890,_ZNKSt10_Select1stISt4pairIKNSt7__cxx1112basic_stringIcSt11char_traitsIcESaIcEEEPKN6Entity11ImplIndexerEEEclERKSC_
FNDA:0,_ZNKSt4lessINSt7__cxx1112basic_stringIcSt11char_traitsIcESaIcEEEEclERKS5_S8_
FNDA:996,_ZNKSt10_Select1stISt4pairIKNSt7__cxx1112basic_stringIcSt11char_traitsIcESaIcEEEPKN6Entity11ImplIndexerEEEclERKSC_
FNF:2
FNH:1
DA:385,0
DA:386,0
DA:890,996
DA:891,996
LF:4
LH:2
end_of_record
SF:/usr/include/c++/7/bits/stl_map.h
FN:177,_ZNSt3mapINSt7__cxx1112basic_stringIcSt11char_traitsIcESaIcEEEPKN6Entity11ImplIndexerESt4lessIS5_ESaISt4pairIKS5_S9_EEEC2Ev
FN:294,_ZNSt3mapINSt7__cxx1112basic_stringIcSt11char_traitsIcESaIcEEEPKN6Entity11ImplIndexerESt4lessIS5_ESaISt4pairIKS5_S9_EEED2Ev
FN:348,_ZNSt3mapINSt7__cxx1112basic_stringIcSt11char_traitsIcESaIcEEEPKN6Entity11ImplIndexerESt4lessIS5_ESaISt4pairIKS5_S9_EEE5beginEv
FN:366,_ZNSt3mapINSt7__cxx1112basic_stringIcSt11char_traitsIcESaIcEEEPKN6Entity11ImplIndexerESt4lessIS5_ESaISt4pairIKS5_S9_EEE3endEv
FN:568,_ZNSt3mapINSt7__cxx1112basic_stringIcSt11char_traitsIcESaIcEEEPKN6Entity11ImplIndexerESt4lessIS5_ESaISt4pairIKS5_S9_EEE7emplaceIJSD_RS9_EEESC_ISt17_Rb_tree_iteratorISE_EbEDpOT_
FN:1127,_ZNSt3mapINSt7__cxx1112basic_stringIcSt11char_traitsIcESaIcEEEPKN6Entity11ImplIndexerESt4lessIS5_ESaISt4pairIKS5_S9_EEE5clearEv
FN:1163,_ZNSt3mapINSt7__cxx1112basic_stringIcSt11char_traitsIcESaIcEEEPKN6Entity11ImplIndexerESt4lessIS5_ESaISt4pairIKS5_S9_EEE4findERSD_
FNDA:33,_ZNSt3mapINSt7__cxx1112basic_stringIcSt11char_traitsIcESaIcEEEPKN6Entity11ImplIndexerESt4lessIS5_ESaISt4pairIKS5_S9_EEEC2Ev
FNDA:33,_ZNSt3mapINSt7__cxx1112basic_stringIcSt11char_traitsIcESaIcEEEPKN6Entity11ImplIndexerESt4lessIS5_ESaISt4pairIKS5_S9_EEED2Ev
FNDA:32,_ZNSt3mapINSt7__cxx1112basic_stringIcSt11char_traitsIcESaIcEEEPKN6Entity11ImplIndexerESt4lessIS5_ESaISt4pairIKS5_S9_EEE5beginEv
FNDA:264,_ZNSt3mapINSt7__cxx1112basic_stringIcSt11char_traitsIcESaIcEEEPKN6Entity11ImplIndexerESt4lessIS5_ESaISt4pairIKS5_S9_EEE3endEv
FNDA:163,_ZNSt3mapINSt7__cxx1112basic_stringIcSt11char_traitsIcESaIcEEEPKN6Entity11ImplIndexerESt4lessIS5_ESaISt4pairIKS5_S9_EEE7emplaceIJSD_RS9_EEESC_ISt17_Rb_tree_iteratorISE_EbEDpOT_
FNDA:32,_ZNSt3mapINSt7__cxx1112basic_stringIcSt11char_traitsIcESaIcEEEPKN6Entity11ImplIndexerESt4lessIS5_ESaISt4pairIKS5_S9_EEE5clearEv
FNDA:136,_ZNSt3mapINSt7__cxx1112basic_stringIcSt11char_traitsIcESaIcEEEPKN6Entity11ImplIndexerESt4lessIS5_ESaISt4pairIKS5_S9_EEE4findERSD_
FNF:7
FNH:7
DA:177,33
DA:294,33
DA:348,32
DA:349,32
DA:366,264
DA:367,264
DA:568,163
DA:569,163
DA:1127,32
DA:1128,32
DA:1163,136
DA:1164,136
LF:12
LH:12
end_of_record
SF:/usr/include/c++/7/bits/stl_pair.h
FN:198,_ZNSt4pairIKNSt7__cxx1112basic_stringIcSt11char_traitsIcESaIcEEEPKN6Entity11ImplIndexerEED2Ev
FN:300,_ZNSt4pairIPSt18_Rb_tree_node_baseS1_EC2IRS1_Lb1EEEOT_RKS1_
FN:330,_ZNSt4pairISt17_Rb_tree_iteratorIS_IKNSt7__cxx1112basic_stringIcSt11char_traitsIcESaIcEEEPKN6Entity11ImplIndexerEEEbEC2ISD_bLb1EEEOT_OT0_
FN:330,_ZNSt4pairIKNSt7__cxx1112basic_stringIcSt11char_traitsIcESaIcEEEPKN6Entity11ImplIndexerEEC2IS6_RSA_Lb1EEEOT_OT0_
FN:330,_ZNSt4pairIPSt18_Rb_tree_node_baseS1_EC2IRPSt13_Rb_tree_nodeIS_IKNSt7__cxx1112basic_stringIcSt11char_traitsIcESaIcEEEPKN6Entity11ImplIndexerEEERS1_Lb1EEEOT_OT0_
FNDA:163,_ZNSt4pairIKNSt7__cxx1112basic_stringIcSt11char_traitsIcESaIcEEEPKN6Entity11ImplIndexerEED2Ev
FNDA:0,_ZNSt4pairIPSt18_Rb_tree_node_baseS1_EC2IRS1_Lb1EEEOT_RKS1_
FNDA:163,_ZNSt4pairIKNSt7__cxx1112basic_stringIcSt11char_traitsIcESaIcEEEPKN6Entity11ImplIndexerEEC2IS6_RSA_Lb1EEEOT_OT0_
FNDA:163,_ZNSt4pairISt17_Rb_tree_iteratorIS_IKNSt7__cxx1112basic_stringIcSt11char_traitsIcESaIcEEEPKN6Entity11ImplIndexerEEEbEC2ISD_bLb1EEEOT_OT0_
FNDA:163,_ZNSt4pairIPSt18_Rb_tree_node_baseS1_EC2IRPSt13_Rb_tree_nodeIS_IKNSt7__cxx1112basic_stringIcSt11char_traitsIcESaIcEEEPKN6Entity11ImplIndexerEEERS1_Lb1EEEOT_OT0_
FNF:5
FNH:4
DA:198,163
DA:300,0
DA:301,0
DA:330,489
DA:331,489
LF:5
LH:3
end_of_record
SF:/usr/include/c++/7/bits/stl_tree.h
FN:146,_ZNSt20_Rb_tree_key_compareISt4lessINSt7__cxx1112basic_stringIcSt11char_traitsIcESaIcEEEEEC2Ev
FN:173,_ZNSt15_Rb_tree_headerC2Ev
FN:206,_ZNSt15_Rb_tree_header8_M_resetEv
FN:234,_ZNSt13_Rb_tree_nodeISt4pairIKNSt7__cxx1112basic_stringIcSt11char_traitsIcESaIcEEEPKN6Entity11ImplIndexerEEE9_M_valptrEv
FN:238,_ZNKSt13_Rb_tree_nodeISt4pairIKNSt7__cxx1112basic_stringIcSt11char_traitsIcESaIcEEEPKN6Entity11ImplIndexerEEE9_M_valptrEv
FN:273,_ZNSt17_Rb_tree_iteratorISt4pairIKNSt7__cxx1112basic_stringIcSt11char_traitsIcESaIcEEEPKN6Entity11ImplIndexerEEEC2EPSt18_Rb_tree_node_base
FN:281,_ZNKSt17_Rb_tree_iteratorISt4pairIKNSt7__cxx1112basic_stringIcSt11char_traitsIcESaIcEEEPKN6Entity11ImplIndexerEEEptEv
FN:292,_ZNSt17_Rb_tree_iteratorISt4pairIKNSt7__cxx1112basic_stringIcSt11char_traitsIcESaIcEEEPKN6Entity11ImplIndexerEEEppEi
FN:300,_ZNSt17_Rb_tree_iteratorISt4pairIKNSt7__cxx1112basic_stringIcSt11char_traitsIcESaIcEEEPKN6Entity11ImplIndexerEEEmmEv
FN:315,_ZNKSt17_Rb_tree_iteratorISt4pairIKNSt7__cxx1112basic_stringIcSt11char_traitsIcESaIcEEEPKN6Entity11ImplIndexerEEEeqERKSD_
FN:319,_ZNKSt17_Rb_tree_iteratorISt4pairIKNSt7__cxx1112basic_stringIcSt11char_traitsIcESaIcEEEPKN6Entity11ImplIndexerEEEneERKSD_
FN:574,_ZNSt8_Rb_treeINSt7__cxx1112basic_stringIcSt11char_traitsIcESaIcEEESt4pairIKS5_PKN6Entity11ImplIndexerEESt10_Select1stISC_ESt4lessIS5_ESaISC_EE21_M_get_Node_allocatorEv
FN:587,_ZNSt8_Rb_treeINSt7__cxx1112basic_stringIcSt11char_traitsIcESaIcEEESt4pairIKS5_PKN6Entity11ImplIndexerEESt10_Select1stISC_ESt4lessIS5_ESaISC_EE11_M_get_nodeEv
FN:591,_ZNSt8_Rb_treeINSt7__cxx1112basic_stringIcSt11char_traitsIcESaIcEEESt4pairIKS5_PKN6Entity11ImplIndexerEESt10_Select1stISC_ESt4lessIS5_ESaISC_EE11_M_put_nodeEPSt13_Rb_tree_nodeISC_E
FN:621,_ZNSt8_Rb_treeINSt7__cxx1112basic_stringIcSt11char_traitsIcESaIcEEESt4pairIKS5_PKN6Entity11ImplIndexerEESt10_Select1stISC_ESt4lessIS5_ESaISC_EE17_M_construct_nodeIJS7_RSB_EEEvPSt13_Rb_tree_nodeISC_EDpOT_
FN:640,_ZNSt8_Rb_treeINSt7__cxx1112basic_stringIcSt11char_traitsIcESaIcEEESt4pairIKS5_PKN6Entity11ImplIndexerEESt10_Select1stISC_ESt4lessIS5_ESaISC_EE14_M_create_nodeIJS7_RSB_EEEPSt13_Rb_tree_nodeISC_EDpOT_
FN:648,_ZNSt8_Rb_treeINSt7__cxx1112basic_stringIcSt11char_traitsIcESaIcEEESt4pairIKS5_PKN6Entity11ImplIndexerEESt10_Select1stISC_ESt4lessIS5_ESaISC_EE15_M_destroy_nodeEPSt13_Rb_tree_nodeISC_E
FN:656,_ZNSt8_Rb_treeINSt7__cxx1112basic_stringIcSt11char_traitsIcESaIcEEESt4pairIKS5_PKN6Entity11ImplIndexerEESt10_Select1stISC_ESt4lessIS5_ESaISC_EE12_M_drop_nodeEPSt13_Rb_tree_nodeISC_E
FN:677,_ZNSt8_Rb_treeINSt7__cxx1112basic_stringIcSt11char_traitsIcESaIcEEESt4pairIKS5_PKN6Entity11ImplIndexerEESt10_Select1stISC_ESt4lessIS5_ESaISC_EE13_Rb_tree_implISG_Lb1EED2Ev
FN:688,_ZNSt8_Rb_treeINSt7__cxx1112basic_stringIcSt11char_traitsIcESaIcEEESt4pairIKS5_PKN6Entity11ImplIndexerEESt10_Select1stISC_ESt4lessIS5_ESaISC_EE13_Rb_tree_implISG_Lb1EEC2Ev
FN:736,_ZNSt8_Rb_treeINSt7__cxx1112basic_stringIcSt11char_traitsIcESaIcEEESt4pairIKS5_PKN6Entity11ImplIndexerEESt10_Select1stISC_ESt4lessIS5_ESaISC_EE8_M_beginEv
FN:747,_ZNSt8_Rb_treeINSt7__cxx1112basic_stringIcSt11char_traitsIcESaIcEEESt4pairIKS5_PKN6Entity11ImplIndexerEESt10_Select1stISC_ESt4lessIS5_ESaISC_EE6_M_endEv
FN:755,_ZNSt8_Rb_treeINSt7__cxx1112basic_stringIcSt11char_traitsIcESaIcEEESt4pairIKS5_PKN6Entity11ImplIndexerEESt10_Select1stISC_ESt4lessIS5_ESaISC_EE8_S_valueEPKSt13_Rb_tree_nodeISC_E
FN:759,_ZNSt8_Rb_treeINSt7__cxx1112basic_stringIcSt11char_traitsIcESaIcEEESt4pairIKS5_PKN6Entity11ImplIndexerEESt10_Select1stISC_ESt4lessIS5_ESaISC_EE6_S_keyEPKSt13_Rb_tree_nodeISC_E
FN:763,_ZNSt8_Rb_treeINSt7__cxx1112basic_stringIcSt11char_traitsIcESaIcEEESt4pairIKS5_PKN6Entity11ImplIndexerEESt10_Select1stISC_ESt4lessIS5_ESaISC_EE7_S_leftEPSt18_Rb_tree_node_base
FN:771,_ZNSt8_Rb_treeINSt7__cxx1112basic_stringIcSt11char_traitsIcESaIcEEESt4pairIKS5_PKN6Entity11ImplIndexerEESt10_Select1stISC_ESt4lessIS5_ESaISC_EE8_S_rightEPSt18_Rb_tree_node_base
FN:779,_ZNSt8_Rb_treeINSt7__cxx1112basic_stringIcSt11char_traitsIcESaIcEEESt4pairIKS5_PKN6Entity11ImplIndexerEESt10_Select1stISC_ESt4lessIS5_ESaISC_EE8_S_valueEPKSt18_Rb_tree_node_base
FN:783,_ZNSt8_Rb_treeINSt7__cxx1112basic_stringIcSt11char_traitsIcESaIcEEESt4pairIKS5_PKN6Entity11ImplIndexerEESt10_Select1stISC_ESt4lessIS5_ESaISC_EE6_S_keyEPKSt18_Rb_tree_node_base
FN:913,_ZNSt8_Rb_treeINSt7__cxx1112basic_stringIcSt11char_traitsIcESaIcEEESt4pairIKS5_PKN6Entity11ImplIndexerEESt10_Select1stISC_ESt4lessIS5_ESaISC_EEC2Ev
FN:948,_ZNSt8_Rb_treeINSt7__cxx1112basic_stringIcSt11char_traitsIcESaIcEEESt4pairIKS5_PKN6Entity11ImplIndexerEESt10_Select1stISC_ESt4lessIS5_ESaISC_EED2Ev
FN:960,_ZNSt8_Rb_treeINSt7__cxx1112basic_stringIcSt11char_traitsIcESaIcEEESt4pairIKS5_PKN6Entity11ImplIndexerEESt10_Select1stISC_ESt4lessIS5_ESaISC_EE5beginEv
FN:968,_ZNSt8_Rb_treeINSt7__cxx1112basic_stringIcSt11char_traitsIcESaIcEEESt4pairIKS5_PKN6Entity11ImplIndexerEESt10_Select1stISC_ESt4lessIS5_ESaISC_EE3endEv
FN:1169,_ZNSt8_Rb_treeINSt7__cxx1112basic_stringIcSt11char_traitsIcESaIcEEESt4pairIKS5_PKN6Entity11ImplIndexerEESt10_Select1stISC_ESt4lessIS5_ESaISC_EE5clearEv
FN:1850,_ZNSt8_Rb_treeINSt7__cxx1112basic_stringIcSt11char_traitsIcESaIcEEESt4pairIKS5_PKN6Entity11ImplIndexerEESt10_Select1stISC_ESt4lessIS5_ESaISC_EE8_M_eraseEPSt13_Rb_tree_nodeISC_E
FN:1867,_ZNSt8_Rb_treeINSt7__cxx1112basic_stringIcSt11char_traitsIcESaIcEEESt4pairIKS5_PKN6Entity11ImplIndexerEESt10_Select1stISC_ESt4lessIS5_ESaISC_EE14_M_lower_boundEPSt13_Rb_tree_nodeISC_EPSt18_Rb_tree_node_baseRS7_
FN:2028,_ZNSt8_Rb_treeINSt7__cxx1112basic_stringIcSt11char_traitsIcESaIcEEESt4pairIKS5_PKN6Entity11ImplIndexerEESt10_Select1stISC_ESt4lessIS5_ESaISC_EE24_M_get_insert_unique_posERS7_
FN:2297,_ZNSt8_Rb_treeINSt7__cxx1112basic_stringIcSt11char_traitsIcESaIcEEESt4pairIKS5_PKN6Entity11ImplIndexerEESt10_Select1stISC_ESt4lessIS5_ESaISC_EE14_M_insert_nodeEPSt18_Rb_tree_node_baseSK_PSt13_Rb_tree_nodeISC_E
FN:2348,_ZNSt8_Rb_treeINSt7__cxx1112basic_stringIcSt11char_traitsIcESaIcEEESt4pairIKS5_PKN6Entity11ImplIndexerEESt10_Select1stISC_ESt4lessIS5_ESaISC_EE17_M_emplace_uniqueIJS7_RSB_EEES6_ISt17_Rb_tree_iteratorISC_EbEDpOT_
FN:2520,_ZNSt8_Rb_treeINSt7__cxx1112basic_stringIcSt11char_traitsIcESaIcEEESt4pairIKS5_PKN6Entity11ImplIndexerEESt10_Select1stISC_ESt4lessIS5_ESaISC_EE4findERS7_
FNDA:0,_ZNSt20_Rb_tree_key_compareISt4lessINSt7__cxx1112basic_stringIcSt11char_traitsIcESaIcEEEEEC2Ev
FNDA:0,_ZNSt15_Rb_tree_headerC2Ev
FNDA:0,_ZNSt15_Rb_tree_header8_M_resetEv
FNDA:814,_ZNSt13_Rb_tree_nodeISt4pairIKNSt7__cxx1112basic_stringIcSt11char_traitsIcESaIcEEEPKN6Entity11ImplIndexerEEE9_M_valptrEv
FNDA:996,_ZNKSt13_Rb_tree_nodeISt4pairIKNSt7__cxx1112basic_stringIcSt11char_traitsIcESaIcEEEPKN6Entity11ImplIndexerEEE9_M_valptrEv
FNDA:991,_ZNSt17_Rb_tree_iteratorISt4pairIKNSt7__cxx1112basic_stringIcSt11char_traitsIcESaIcEEEPKN6Entity11ImplIndexerEEEC2EPSt18_Rb_tree_node_base
FNDA:488,_ZNKSt17_Rb_tree_iteratorISt4pairIKNSt7__cxx1112basic_stringIcSt11char_traitsIcESaIcEEEPKN6Entity11ImplIndexerEEEptEv
FNDA:96,_ZNSt17_Rb_tree_iteratorISt4pairIKNSt7__cxx1112basic_stringIcSt11char_traitsIcESaIcEEEPKN6Entity11ImplIndexerEEEppEi
FNDA:0,_ZNSt17_Rb_tree_iteratorISt4pairIKNSt7__cxx1112basic_stringIcSt11char_traitsIcESaIcEEEPKN6Entity11ImplIndexerEEEmmEv
FNDA:337,_ZNKSt17_Rb_tree_iteratorISt4pairIKNSt7__cxx1112basic_stringIcSt11char_traitsIcESaIcEEEPKN6Entity11ImplIndexerEEEeqERKSD_
FNDA:128,_ZNKSt17_Rb_tree_iteratorISt4pairIKNSt7__cxx1112basic_stringIcSt11char_traitsIcESaIcEEEPKN6Entity11ImplIndexerEEEneERKSD_
FNDA:652,_ZNSt8_Rb_treeINSt7__cxx1112basic_stringIcSt11char_traitsIcESaIcEEESt4pairIKS5_PKN6Entity11ImplIndexerEESt10_Select1stISC_ESt4lessIS5_ESaISC_EE21_M_get_Node_allocatorEv
FNDA:163,_ZNSt8_Rb_treeINSt7__cxx1112basic_stringIcSt11char_traitsIcESaIcEEESt4pairIKS5_PKN6Entity11ImplIndexerEESt10_Select1stISC_ESt4lessIS5_ESaISC_EE11_M_get_nodeEv
FNDA:163,_ZNSt8_Rb_treeINSt7__cxx1112basic_stringIcSt11char_traitsIcESaIcEEESt4pairIKS5_PKN6Entity11ImplIndexerEESt10_Select1stISC_ESt4lessIS5_ESaISC_EE11_M_put_nodeEPSt13_Rb_tree_nodeISC_E
FNDA:163,_ZNSt8_Rb_treeINSt7__cxx1112basic_stringIcSt11char_traitsIcESaIcEEESt4pairIKS5_PKN6Entity11ImplIndexerEESt10_Select1stISC_ESt4lessIS5_ESaISC_EE17_M_construct_nodeIJS7_RSB_EEEvPSt13_Rb_tree_nodeISC_EDpOT_
FNDA:163,_ZNSt8_Rb_treeINSt7__cxx1112basic_stringIcSt11char_traitsIcESaIcEEESt4pairIKS5_PKN6Entity11ImplIndexerEESt10_Select1stISC_ESt4lessIS5_ESaISC_EE14_M_create_nodeIJS7_RSB_EEEPSt13_Rb_tree_nodeISC_EDpOT_
FNDA:163,_ZNSt8_Rb_treeINSt7__cxx1112basic_stringIcSt11char_traitsIcESaIcEEESt4pairIKS5_PKN6Entity11ImplIndexerEESt10_Select1stISC_ESt4lessIS5_ESaISC_EE15_M_destroy_nodeEPSt13_Rb_tree_nodeISC_E
FNDA:163,_ZNSt8_Rb_treeINSt7__cxx1112basic_stringIcSt11char_traitsIcESaIcEEESt4pairIKS5_PKN6Entity11ImplIndexerEESt10_Select1stISC_ESt4lessIS5_ESaISC_EE12_M_drop_nodeEPSt13_Rb_tree_nodeISC_E
FNDA:33,_ZNSt8_Rb_treeINSt7__cxx1112basic_stringIcSt11char_traitsIcESaIcEEESt4pairIKS5_PKN6Entity11ImplIndexerEESt10_Select1stISC_ESt4lessIS5_ESaISC_EE13_Rb_tree_implISG_Lb1EED2Ev
FNDA:33,_ZNSt8_Rb_treeINSt7__cxx1112basic_stringIcSt11char_traitsIcESaIcEEESt4pairIKS5_PKN6Entity11ImplIndexerEESt10_Select1stISC_ESt4lessIS5_ESaISC_EE13_Rb_tree_implISG_Lb1EEC2Ev
FNDA:364,_ZNSt8_Rb_treeINSt7__cxx1112basic_stringIcSt11char_traitsIcESaIcEEESt4pairIKS5_PKN6Entity11ImplIndexerEESt10_Select1stISC_ESt4lessIS5_ESaISC_EE8_M_beginEv
FNDA:462,_ZNSt8_Rb_treeINSt7__cxx1112basic_stringIcSt11char_traitsIcESaIcEEESt4pairIKS5_PKN6Entity11ImplIndexerEESt10_Select1stISC_ESt4lessIS5_ESaISC_EE6_M_endEv
FNDA:664,_ZNSt8_Rb_treeINSt7__cxx1112basic_stringIcSt11char_traitsIcESaIcEEESt4pairIKS5_PKN6Entity11ImplIndexerEESt10_Select1stISC_ESt4lessIS5_ESaISC_EE8_S_valueEPKSt13_Rb_tree_nodeISC_E
FNDA:664,_ZNSt8_Rb_treeINSt7__cxx1112basic_stringIcSt11char_traitsIcESaIcEEESt4pairIKS5_PKN6Entity11ImplIndexerEESt10_Select1stISC_ESt4lessIS5_ESaISC_EE6_S_keyEPKSt13_Rb_tree_nodeISC_E
FNDA:339,_ZNSt8_Rb_treeINSt7__cxx1112basic_stringIcSt11char_traitsIcESaIcEEESt4pairIKS5_PKN6Entity11ImplIndexerEESt10_Select1stISC_ESt4lessIS5_ESaISC_EE7_S_leftEPSt18_Rb_tree_node_base
FNDA:390,_ZNSt8_Rb_treeINSt7__cxx1112basic_stringIcSt11char_traitsIcESaIcEEESt4pairIKS5_PKN6Entity11ImplIndexerEESt10_Select1stISC_ESt4lessIS5_ESaISC_EE8_S_rightEPSt18_Rb_tree_node_base
FNDA:332,_ZNSt8_Rb_treeINSt7__cxx1112basic_stringIcSt11char_traitsIcESaIcEEESt4pairIKS5_PKN6Entity11ImplIndexerEESt10_Select1stISC_ESt4lessIS5_ESaISC_EE8_S_valueEPKSt18_Rb_tree_node_base
FNDA:332,_ZNSt8_Rb_treeINSt7__cxx1112basic_stringIcSt11char_traitsIcESaIcEEESt4pairIKS5_PKN6Entity11ImplIndexerEESt10_Select1stISC_ESt4lessIS5_ESaISC_EE6_S_keyEPKSt18_Rb_tree_node_base
FNDA:33,_ZNSt8_Rb_treeINSt7__cxx1112basic_stringIcSt11char_traitsIcESaIcEEESt4pairIKS5_PKN6Entity11ImplIndexerEESt10_Select1stISC_ESt4lessIS5_ESaISC_EEC2Ev
FNDA:33,_ZNSt8_Rb_treeINSt7__cxx1112basic_stringIcSt11char_traitsIcESaIcEEESt4pairIKS5_PKN6Entity11ImplIndexerEESt10_Select1stISC_ESt4lessIS5_ESaISC_EED2Ev
FNDA:97,_ZNSt8_Rb_treeINSt7__cxx1112basic_stringIcSt11char_traitsIcESaIcEEESt4pairIKS5_PKN6Entity11ImplIndexerEESt10_Select1stISC_ESt4lessIS5_ESaISC_EE5beginEv
FNDA:432,_ZNSt8_Rb_treeINSt7__cxx1112basic_stringIcSt11char_traitsIcESaIcEEESt4pairIKS5_PKN6Entity11ImplIndexerEESt10_Select1stISC_ESt4lessIS5_ESaISC_EE3endEv
FNDA:32,_ZNSt8_Rb_treeINSt7__cxx1112basic_stringIcSt11char_traitsIcESaIcEEESt4pairIKS5_PKN6Entity11ImplIndexerEESt10_Select1stISC_ESt4lessIS5_ESaISC_EE5clearEv
FNDA:228,_ZNSt8_Rb_treeINSt7__cxx1112basic_stringIcSt11char_traitsIcESaIcEEESt4pairIKS5_PKN6Entity11ImplIndexerEESt10_Select1stISC_ESt4lessIS5_ESaISC_EE8_M_eraseEPSt13_Rb_tree_nodeISC_E
FNDA:136,_ZNSt8_Rb_treeINSt7__cxx1112basic_stringIcSt11char_traitsIcESaIcEEESt4pairIKS5_PKN6Entity11ImplIndexerEESt10_Select1stISC_ESt4lessIS5_ESaISC_EE14_M_lower_boundEPSt13_Rb_tree_nodeISC_EPSt18_Rb_tree_node_baseRS7_
FNDA:163,_ZNSt8_Rb_treeINSt7__cxx1112basic_stringIcSt11char_traitsIcESaIcEEESt4pairIKS5_PKN6Entity11ImplIndexerEESt10_Select1stISC_ESt4lessIS5_ESaISC_EE24_M_get_insert_unique_posERS7_
FNDA:163,_ZNSt8_Rb_treeINSt7__cxx1112basic_stringIcSt11char_traitsIcESaIcEEESt4pairIKS5_PKN6Entity11ImplIndexerEESt10_Select1stISC_ESt4lessIS5_ESaISC_EE14_M_insert_nodeEPSt18_Rb_tree_node_baseSK_PSt13_Rb_tree_nodeISC_E
FNDA:163,_ZNSt8_Rb_treeINSt7__cxx1112basic_stringIcSt11char_traitsIcESaIcEEESt4pairIKS5_PKN6Entity11ImplIndexerEESt10_Select1stISC_ESt4lessIS5_ESaISC_EE17_M_emplace_uniqueIJS7_RSB_EEES6_ISt17_Rb_tree_iteratorISC_EbEDpOT_
FNDA:136,_ZNSt8_Rb_treeINSt7__cxx1112basic_stringIcSt11char_traitsIcESaIcEEESt4pairIKS5_PKN6Entity11ImplIndexerEESt10_Select1stISC_ESt4lessIS5_ESaISC_EE4findERS7_
FNF:39
FNH:35
DA:146,0
DA:150,0
DA:173,0
DA:174,0
DA:175,0
DA:176,0
DA:177,0
DA:206,0
DA:208,0
DA:209,0
DA:210,0
DA:211,0
DA:212,0
DA:234,814
DA:235,814
DA:238,996
DA:239,996
DA:273,991
DA:274,991
DA:281,488
DA:282,488
DA:292,96
DA:294,96
DA:295,96
DA:296,96
DA:300,0
DA:302,0
DA:303,0
DA:315,337
DA:316,337
DA:319,128
DA:320,128
DA:574,652
DA:575,652
DA:587,163
DA:588,163
DA:591,163
DA:592,163
DA:621,163
DA:625,163
DA:626,163
DA:630,0
DA:633,0
DA:634,0
DA:636,163
DA:640,163
DA:642,163
DA:643,163
DA:644,163
DA:648,163
DA:650,163
DA:652,163
DA:656,163
DA:658,163
DA:659,163
DA:660,163
DA:677,33
DA:688,33
DA:736,364
DA:737,364
DA:747,462
DA:748,462
DA:755,664
DA:756,664
DA:759,664
DA:760,664
DA:763,339
DA:764,339
DA:771,390
DA:772,390
DA:779,332
DA:780,332
DA:783,332
DA:784,332
DA:913,33
DA:948,33
DA:949,33
DA:960,97
DA:961,97
DA:968,432
DA:969,432
DA:1169,32
DA:1171,32
DA:1172,32
DA:1173,32
DA:1850,391
DA:1854,554
DA:1856,163
DA:1857,163
DA:1858,163
DA:1859,163
DA:1861,228
DA:1867,408
DA:1871,680
DA:1872,272
DA:1873,176
DA:1875,96
DA:1876,136
DA:2028,163
DA:2032,163
DA:2033,163
DA:2034,163
DA:2035,425
DA:2037,131
DA:2038,131
DA:2039,131
DA:2041,163
DA:2042,163
DA:2044,65
DA:2045,65
DA:2047,0
DA:2049,98
DA:2050,98
DA:2051,0
DA:2297,163
DA:2300,326
DA:2301,261
DA:2304,163
DA:2306,163
DA:2307,163
DA:2348,163
DA:2351,163
DA:2356,163
DA:2357,163
DA:2358,163
DA:2360,0
DA:2361,0
DA:2363,0
DA:2365,0
DA:2366,0
DA:2520,136
DA:2523,136
DA:2524,272
DA:2525,272
DA:2526,440
LF:135
LH:109
end_of_record
SF:/usr/include/c++/7/ext/aligned_buffer.h
FN:62,_ZN9__gnu_cxx16__aligned_membufISt4pairIKNSt7__cxx1112basic_stringIcSt11char_traitsIcESaIcEEEPKN6Entity11ImplIndexerEEE7_M_addrEv
FN:66,_ZNK9__gnu_cxx16__aligned_membufISt4pairIKNSt7__cxx1112basic_stringIcSt11char_traitsIcESaIcEEEPKN6Entity11ImplIndexerEEE7_M_addrEv
FN:70,_ZN9__gnu_cxx16__aligned_membufISt4pairIKNSt7__cxx1112basic_stringIcSt11char_traitsIcESaIcEEEPKN6Entity11ImplIndexerEEE6_M_ptrEv
FN:74,_ZNK9__gnu_cxx16__aligned_membufISt4pairIKNSt7__cxx1112basic_stringIcSt11char_traitsIcESaIcEEEPKN6Entity11ImplIndexerEEE6_M_ptrEv
FNDA:814,_ZN9__gnu_cxx16__aligned_membufISt4pairIKNSt7__cxx1112basic_stringIcSt11char_traitsIcESaIcEEEPKN6Entity11ImplIndexerEEE7_M_addrEv
FNDA:996,_ZNK9__gnu_cxx16__aligned_membufISt4pairIKNSt7__cxx1112basic_stringIcSt11char_traitsIcESaIcEEEPKN6Entity11ImplIndexerEEE7_M_addrEv
FNDA:814,_ZN9__gnu_cxx16__aligned_membufISt4pairIKNSt7__cxx1112basic_stringIcSt11char_traitsIcESaIcEEEPKN6Entity11ImplIndexerEEE6_M_ptrEv
FNDA:996,_ZNK9__gnu_cxx16__aligned_membufISt4pairIKNSt7__cxx1112basic_stringIcSt11char_traitsIcESaIcEEEPKN6Entity11ImplIndexerEEE6_M_ptrEv
FNF:4
FNH:4
DA:62,814
DA:63,814
DA:66,996
DA:67,996
DA:70,814
DA:71,814
DA:74,996
DA:75,996
LF:8
LH:8
end_of_record
SF:/usr/include/c++/7/ext/new_allocator.h
FN:79,_ZN9__gnu_cxx13new_allocatorISt13_Rb_tree_nodeISt4pairIKNSt7__cxx1112basic_stringIcSt11char_traitsIcESaIcEEEPKN6Entity11ImplIndexerEEEEC2Ev
FN:86,_ZN9__gnu_cxx13new_allocatorISt13_Rb_tree_nodeISt4pairIKNSt7__cxx1112basic_stringIcSt11char_traitsIcESaIcEEEPKN6Entity11ImplIndexerEEEED2Ev
FN:99,_ZN9__gnu_cxx13new_allocatorISt13_Rb_tree_nodeISt4pairIKNSt7__cxx1112basic_stringIcSt11char_traitsIcESaIcEEEPKN6Entity11ImplIndexerEEEE8allocateEmPKv
FN:116,_ZN9__gnu_cxx13new_allocatorISt13_Rb_tree_nodeISt4pairIKNSt7__cxx1112basic_stringIcSt11char_traitsIcESaIcEEEPKN6Entity11ImplIndexerEEEE10deallocateEPSF_m
FN:129,_ZNK9__gnu_cxx13new_allocatorISt13_Rb_tree_nodeISt4pairIKNSt7__cxx1112basic_stringIcSt11char_traitsIcESaIcEEEPKN6Entity11ImplIndexerEEEE8max_sizeEv
FN:135,_ZN9__gnu_cxx13new_allocatorISt13_Rb_tree_nodeISt4pairIKNSt7__cxx1112basic_stringIcSt11char_traitsIcESaIcEEEPKN6Entity11ImplIndexerEEEE9constructISE_JS9_RSD_EEEvPT_DpOT0_
FN:140,_ZN9__gnu_cxx13new_allocatorISt13_Rb_tree_nodeISt4pairIKNSt7__cxx1112basic_stringIcSt11char_traitsIcESaIcEEEPKN6Entity11ImplIndexerEEEE7destroyISE_EEvPT_
FNDA:33,_ZN9__gnu_cxx13new_allocatorISt13_Rb_tree_nodeISt4pairIKNSt7__cxx1112basic_stringIcSt11char_traitsIcESaIcEEEPKN6Entity11ImplIndexerEEEEC2Ev
FNDA:33,_ZN9__gnu_cxx13new_allocatorISt13_Rb_tree_nodeISt4pairIKNSt7__cxx1112basic_stringIcSt11char_traitsIcESaIcEEEPKN6Entity11ImplIndexerEEEED2Ev
FNDA:163,_ZN9__gnu_cxx13new_allocatorISt13_Rb_tree_nodeISt4pairIKNSt7__cxx1112basic_stringIcSt11char_traitsIcESaIcEEEPKN6Entity11ImplIndexerEEEE8allocateEmPKv
FNDA:163,_ZN9__gnu_cxx13new_allocatorISt13_Rb_tree_nodeISt4pairIKNSt7__cxx1112basic_stringIcSt11char_traitsIcESaIcEEEPKN6Entity11ImplIndexerEEEE10deallocateEPSF_m
FNDA:163,_ZNK9__gnu_cxx13new_allocatorISt13_Rb_tree_nodeISt4pairIKNSt7__cxx1112basic_stringIcSt11char_traitsIcESaIcEEEPKN6Entity11ImplIndexerEEEE8max_sizeEv
FNDA:163,_ZN9__gnu_cxx13new_allocatorISt13_Rb_tree_nodeISt4pairIKNSt7__cxx1112basic_stringIcSt11char_traitsIcESaIcEEEPKN6Entity11ImplIndexerEEEE9constructISE_JS9_RSD_EEEvPT_DpOT0_
FNDA:163,_ZN9__gnu_cxx13new_allocatorISt13_Rb_tree_nodeISt4pairIKNSt7__cxx1112basic_stringIcSt11char_traitsIcESaIcEEEPKN6Entity11ImplIndexerEEEE7destroyISE_EEvPT_
FNF:7
FNH:7
DA:79,33
DA:86,33
DA:99,163
DA:101,163
DA:102,0
DA:111,163
DA:116,163
DA:125,163
DA:126,163
DA:129,163
DA:130,163
DA:135,163
DA:136,163
DA:140,163
LF:14
LH:13
end_of_record
SF:/usr/include/c++/7/new
FN:168,_ZnwmPv
FN:174,_ZdlPvS_
FNDA:0,_ZnwmPv
FNDA:0,_ZdlPvS_
FNF:2
FNH:0
DA:168,0
DA:169,0
DA:174,0
LF:3
LH:0
end_of_record
SF:/home/xronia/workspace/PBase/Entity/IndexerCache.cc
FN:44,_ZN6Entity12IndexerCacheC2EPKNS_11ImplIndexerE
FN:54,_ZN6Entity12IndexerCacheD2Ev
FN:77,_ZN6Entity12IndexerCache10getIndexerERKNSt7__cxx1112basic_stringIcSt11char_traitsIcESaIcEEE
FN:83,_ZN6Entity12IndexerCache7destroyEv
FN:92,_GLOBAL__sub_I.00102_IndexerCache.cc
FN:92,_Z41__static_initialization_and_destruction_0ii
FNDA:195,_ZN6Entity12IndexerCacheC2EPKNS_11ImplIndexerE
FNDA:163,_ZN6Entity12IndexerCacheD2Ev
FNDA:136,_ZN6Entity12IndexerCache10getIndexerERKNSt7__cxx1112basic_stringIcSt11char_traitsIcESaIcEEE
FNDA:32,_ZN6Entity12IndexerCache7destroyEv
FNDA:33,_GLOBAL__sub_I.00102_IndexerCache.cc
FNDA:33,_Z41__static_initialization_and_destruction_0ii
FNF:6
FNH:6
DA:21,33
DA:22,33
DA:44,195
DA:46,195
DA:47,163
DA:49,163
DA:51,163
DA:52,163
DA:54,163
DA:56,163
DA:77,136
DA:78,136
DA:79,136
DA:80,104
DA:83,32
DA:84,128
DA:85,96
DA:86,96
DA:88,32
DA:89,32
DA:92,99
LF:21
LH:21
end_of_record
TN:
SF:/home/xronia/workspace/PBase/Entity/ImplMatcher.h
FN:75,_ZN6Entity10ImplSorterC2Ev
FN:83,_ZN6Entity11ImplIndexerC2Ev
FNDA:239,_ZN6Entity10ImplSorterC2Ev
FNDA:227,_ZN6Entity11ImplIndexerC2Ev
FNF:2
FNH:2
DA:75,239
DA:83,227
LF:2
LH:2
end_of_record
SF:/home/xronia/workspace/PBase/String/astring.h
FN:147,_ZN6String7astringILi64EEC2EPKc
FN:200,_ZN6String7astringILi64EED2Ev
FN:224,_ZNK6String7astringILi64EE5c_strEv
FN:254,_ZN6String7astringILi64EE3setEPKc
FN:292,_ZN6String7astringILi64EE5clearEv
FNDA:0,_ZN6String7astringILi64EEC2EPKc
FNDA:0,_ZN6String7astringILi64EED2Ev
FNDA:0,_ZNK6String7astringILi64EE5c_strEv
FNDA:0,_ZN6String7astringILi64EE3setEPKc
FNDA:0,_ZN6String7astringILi64EE5clearEv
FNF:5
FNH:0
DA:147,0
DA:148,0
DA:149,0
DA:200,0
DA:201,0
DA:202,0
DA:203,0
DA:224,0
DA:225,0
DA:254,0
DA:255,0
DA:256,0
DA:257,0
DA:258,0
DA:260,0
DA:261,0
DA:264,0
DA:292,0
DA:293,0
DA:294,0
LF:20
LH:0
end_of_record
SF:/usr/include/c++/7/bits/alloc_traits.h
FN:435,_ZNSt16allocator_traitsISaISt13_Rb_tree_nodeISt4pairIKNSt7__cxx1112basic_stringIcSt11char_traitsIcESaIcEEEN6Entity6ColumnEEEEE8allocateERSD_m
FN:461,_ZNSt16allocator_traitsISaISt13_Rb_tree_nodeISt4pairIKNSt7__cxx1112basic_stringIcSt11char_traitsIcESaIcEEEN6Entity6ColumnEEEEE10deallocateERSD_PSC_m
FN:474,_ZNSt16allocator_traitsISaISt13_Rb_tree_nodeISt4pairIKNSt7__cxx1112basic_stringIcSt11char_traitsIcESaIcEEEN6Entity6ColumnEEEEE9constructISB_JRKSB_EEEvRSD_PT_DpOT0_
FN:486,_ZNSt16allocator_traitsISaISt13_Rb_tree_nodeISt4pairIKNSt7__cxx1112basic_stringIcSt11char_traitsIcESaIcEEEN6Entity6ColumnEEEEE7destroyISB_EEvRSD_PT_
FNDA:0,_ZNSt16allocator_traitsISaISt13_Rb_tree_nodeISt4pairIKNSt7__cxx1112basic_stringIcSt11char_traitsIcESaIcEEEN6Entity6ColumnEEEEE8allocateERSD_m
FNDA:0,_ZNSt16allocator_traitsISaISt13_Rb_tree_nodeISt4pairIKNSt7__cxx1112basic_stringIcSt11char_traitsIcESaIcEEEN6Entity6ColumnEEEEE10deallocateERSD_PSC_m
FNDA:0,_ZNSt16allocator_traitsISaISt13_Rb_tree_nodeISt4pairIKNSt7__cxx1112basic_stringIcSt11char_traitsIcESaIcEEEN6Entity6ColumnEEEEE9constructISB_JRKSB_EEEvRSD_PT_DpOT0_
FNDA:0,_ZNSt16allocator_traitsISaISt13_Rb_tree_nodeISt4pairIKNSt7__cxx1112basic_stringIcSt11char_traitsIcESaIcEEEN6Entity6ColumnEEEEE7destroyISB_EEvRSD_PT_
FNF:4
FNH:0
DA:435,0
DA:436,0
DA:461,0
DA:462,0
DA:474,0
DA:475,0
DA:486,0
DA:487,0
LF:8
LH:0
end_of_record
SF:/usr/include/c++/7/bits/allocator.h
FN:131,_ZNSaISt4pairIKNSt7__cxx1112basic_stringIcSt11char_traitsIcESaIcEEEN6Entity6ColumnEEEC2Ev
FN:133,_ZNSaISt4pairIKNSt7__cxx1112basic_stringIcSt11char_traitsIcESaIcEEEN6Entity6ColumnEEEC2ERKSA_
FN:133,_ZNSaISt13_Rb_tree_nodeISt4pairIKNSt7__cxx1112basic_stringIcSt11char_traitsIcESaIcEEEN6Entity6ColumnEEEEC2ERKSC_
FN:137,_ZNSaISt13_Rb_tree_nodeISt4pairIKNSt7__cxx1112basic_stringIcSt11char_traitsIcESaIcEEEN6Entity6ColumnEEEEC2ISA_EERKSaIT_E
FN:139,_ZNSaISt13_Rb_tree_nodeISt4pairIKNSt7__cxx1112basic_stringIcSt11char_traitsIcESaIcEEEN6Entity6ColumnEEEED2Ev
FN:139,_ZNSaISt4pairIKNSt7__cxx1112basic_stringIcSt11char_traitsIcESaIcEEEN6Entity6ColumnEEED2Ev
FNDA:4,_ZNSaISt4pairIKNSt7__cxx1112basic_stringIcSt11char_traitsIcESaIcEEEN6Entity6ColumnEEEC2Ev
FNDA:0,_ZNSaISt13_Rb_tree_nodeISt4pairIKNSt7__cxx1112basic_stringIcSt11char_traitsIcESaIcEEEN6Entity6ColumnEEEEC2ERKSC_
FNDA:4,_ZNSaISt4pairIKNSt7__cxx1112basic_stringIcSt11char_traitsIcESaIcEEEN6Entity6ColumnEEEC2ERKSA_
FNDA:4,_ZNSaISt13_Rb_tree_nodeISt4pairIKNSt7__cxx1112basic_stringIcSt11char_traitsIcESaIcEEEN6Entity6ColumnEEEEC2ISA_EERKSaIT_E
FNDA:0,_ZNSaISt13_Rb_tree_nodeISt4pairIKNSt7__cxx1112basic_stringIcSt11char_traitsIcESaIcEEEN6Entity6ColumnEEEED2Ev
FNDA:8,_ZNSaISt4pairIKNSt7__cxx1112basic_stringIcSt11char_traitsIcESaIcEEEN6Entity6ColumnEEED2Ev
FNF:6
FNH:4
DA:131,4
DA:133,4
DA:134,4
DA:137,4
DA:139,8
LF:5
LH:5
end_of_record
SF:/usr/include/c++/7/bits/basic_string.h
FN:6082,_ZStltIcSt11char_traitsIcESaIcEEbRKNSt7__cxx1112basic_stringIT_T0_T1_EESA_
FNDA:0,_ZStltIcSt11char_traitsIcESaIcEEbRKNSt7__cxx1112basic_stringIT_T0_T1_EESA_
FNF:1
FNH:0
DA:6082,0
DA:6085,0
LF:2
LH:0
end_of_record
SF:/usr/include/c++/7/bits/move.h
FN:73,_ZSt7forwardIRPSt13_Rb_tree_nodeISt4pairIKNSt7__cxx1112basic_stringIcSt11char_traitsIcESaIcEEEN6Entity6ColumnEEEEOT_RNSt16remove_referenceISF_E4typeE
FN:73,_ZSt7forwardIRA11_KcEOT_RNSt16remove_referenceIS3_E4typeE
FN:73,_ZSt7forwardIRA8_KcEOT_RNSt16remove_referenceIS3_E4typeE
FN:73,_ZSt7forwardIRA12_KcEOT_RNSt16remove_referenceIS3_E4typeE
FN:73,_ZSt7forwardIRKSt4pairIKNSt7__cxx1112basic_stringIcSt11char_traitsIcESaIcEEEN6Entity6ColumnEEEOT_RNSt16remove_referenceISD_E4typeE
FN:73,_ZSt7forwardIRPSt18_Rb_tree_node_baseEOT_RNSt16remove_referenceIS3_E4typeE
FN:73,_ZSt7forwardIRA10_KcEOT_RNSt16remove_referenceIS3_E4typeE
FN:98,_ZSt4moveIRSaISt13_Rb_tree_nodeISt4pairIKNSt7__cxx1112basic_stringIcSt11char_traitsIcESaIcEEEN6Entity6ColumnEEEEEONSt16remove_referenceIT_E4typeEOSG_
FNDA:26,_ZSt7forwardIRPSt13_Rb_tree_nodeISt4pairIKNSt7__cxx1112basic_stringIcSt11char_traitsIcESaIcEEEN6Entity6ColumnEEEEOT_RNSt16remove_referenceISF_E4typeE
FNDA:0,_ZSt7forwardIRPSt18_Rb_tree_node_baseEOT_RNSt16remove_referenceIS3_E4typeE
FNDA:0,_ZSt7forwardIRKSt4pairIKNSt7__cxx1112basic_stringIcSt11char_traitsIcESaIcEEEN6Entity6ColumnEEEOT_RNSt16remove_referenceISD_E4typeE
FNDA:132,_ZSt7forwardIRA12_KcEOT_RNSt16remove_referenceIS3_E4typeE
FNDA:0,_ZSt7forwardIRA10_KcEOT_RNSt16remove_referenceIS3_E4typeE
FNDA:12,_ZSt7forwardIRA8_KcEOT_RNSt16remove_referenceIS3_E4typeE
FNDA:0,_ZSt7forwardIRA11_KcEOT_RNSt16remove_referenceIS3_E4typeE
FNDA:4,_ZSt4moveIRSaISt13_Rb_tree_nodeISt4pairIKNSt7__cxx1112basic_stringIcSt11char_traitsIcESaIcEEEN6Entity6ColumnEEEEEONSt16remove_referenceIT_E4typeEOSG_
FNF:8
FNH:4
DA:73,170
DA:74,170
DA:98,4
DA:99,4
LF:4
LH:4
end_of_record
SF:/usr/include/c++/7/bits/stl_function.h
FN:385,_ZNKSt4lessINSt7__cxx1112basic_stringIcSt11char_traitsIcESaIcEEEEclERKS5_S8_
FN:890,_ZNKSt10_Select1stISt4pairIKNSt7__cxx1112basic_stringIcSt11char_traitsIcESaIcEEEN6Entity6ColumnEEEclERKSA_
FNDA:0,_ZNKSt4lessINSt7__cxx1112basic_stringIcSt11char_traitsIcESaIcEEEEclERKS5_S8_
FNDA:215,_ZNKSt10_Select1stISt4pairIKNSt7__cxx1112basic_stringIcSt11char_traitsIcESaIcEEEN6Entity6ColumnEEEclERKSA_
FNF:2
FNH:1
DA:385,0
DA:386,0
DA:890,215
DA:891,215
LF:4
LH:2
end_of_record
SF:/usr/include/c++/7/bits/stl_map.h
FN:220,_ZNSt3mapINSt7__cxx1112basic_stringIcSt11char_traitsIcESaIcEEEN6Entity6ColumnESt4lessIS5_ESaISt4pairIKS5_S7_EEEC2ESt16initializer_listISC_ERKS9_RKSD_
FN:294,_ZNSt3mapINSt7__cxx1112basic_stringIcSt11char_traitsIcESaIcEEEN6Entity6ColumnESt4lessIS5_ESaISt4pairIKS5_S7_EEED2Ev
FNDA:4,_ZNSt3mapINSt7__cxx1112basic_stringIcSt11char_traitsIcESaIcEEEN6Entity6ColumnESt4lessIS5_ESaISt4pairIKS5_S7_EEEC2ESt16initializer_listISC_ERKS9_RKSD_
FNDA:0,_ZNSt3mapINSt7__cxx1112basic_stringIcSt11char_traitsIcESaIcEEEN6Entity6ColumnESt4lessIS5_ESaISt4pairIKS5_S7_EEED2Ev
FNF:2
FNH:1
DA:220,4
DA:223,4
DA:224,4
DA:294,0
LF:4
LH:3
end_of_record
SF:/usr/include/c++/7/bits/stl_pair.h
FN:198,_ZNSt4pairIKNSt7__cxx1112basic_stringIcSt11char_traitsIcESaIcEEEN6Entity6ColumnEED2Ev
FN:292,_ZNSt4pairIKNSt7__cxx1112basic_stringIcSt11char_traitsIcESaIcEEEN6Entity6ColumnEEC2ERKS9_
FN:300,_ZNSt4pairIKNSt7__cxx1112basic_stringIcSt11char_traitsIcESaIcEEEN6Entity6ColumnEEC2IRA12_KcLb1EEEOT_RKS8_
FN:300,_ZNSt4pairIKNSt7__cxx1112basic_stringIcSt11char_traitsIcESaIcEEEN6Entity6ColumnEEC2IRA8_KcLb1EEEOT_RKS8_
FN:300,_ZNSt4pairIPSt18_Rb_tree_node_baseS1_EC2IRS1_Lb1EEEOT_RKS1_
FN:300,_ZNSt4pairIKNSt7__cxx1112basic_stringIcSt11char_traitsIcESaIcEEEN6Entity6ColumnEEC2IRA10_KcLb1EEEOT_RKS8_
FN:300,_ZNSt4pairIKNSt7__cxx1112basic_stringIcSt11char_traitsIcESaIcEEEN6Entity6ColumnEEC2IRA11_KcLb1EEEOT_RKS8_
FN:314,_ZNSt4pairIPSt18_Rb_tree_node_baseS1_EC2IRS1_Lb1EEERKS1_OT_
FN:330,_ZNSt4pairIPSt18_Rb_tree_node_baseS1_EC2IRS1_S4_Lb1EEEOT_OT0_
FN:330,_ZNSt4pairIPSt18_Rb_tree_node_baseS1_EC2IRPSt13_Rb_tree_nodeIS_IKNSt7__cxx1112basic_stringIcSt11char_traitsIcESaIcEEEN6Entity6ColumnEEERS1_Lb1EEEOT_OT0_
FNDA:0,_ZNSt4pairIKNSt7__cxx1112basic_stringIcSt11char_traitsIcESaIcEEEN6Entity6ColumnEED2Ev
FNDA:0,_ZNSt4pairIKNSt7__cxx1112basic_stringIcSt11char_traitsIcESaIcEEEN6Entity6ColumnEEC2ERKS9_
FNDA:0,_ZNSt4pairIPSt18_Rb_tree_node_baseS1_EC2IRS1_Lb1EEEOT_RKS1_
FNDA:132,_ZNSt4pairIKNSt7__cxx1112basic_stringIcSt11char_traitsIcESaIcEEEN6Entity6ColumnEEC2IRA12_KcLb1EEEOT_RKS8_
FNDA:165,_ZNSt4pairIKNSt7__cxx1112basic_stringIcSt11char_traitsIcESaIcEEEN6Entity6ColumnEEC2IRA10_KcLb1EEEOT_RKS8_
FNDA:99,_ZNSt4pairIKNSt7__cxx1112basic_stringIcSt11char_traitsIcESaIcEEEN6Entity6ColumnEEC2IRA8_KcLb1EEEOT_RKS8_
FNDA:3,_ZNSt4pairIKNSt7__cxx1112basic_stringIcSt11char_traitsIcESaIcEEEN6Entity6ColumnEEC2IRA11_KcLb1EEEOT_RKS8_
FNDA:0,_ZNSt4pairIPSt18_Rb_tree_node_baseS1_EC2IRS1_Lb1EEERKS1_OT_
FNDA:26,_ZNSt4pairIPSt18_Rb_tree_node_baseS1_EC2IRPSt13_Rb_tree_nodeIS_IKNSt7__cxx1112basic_stringIcSt11char_traitsIcESaIcEEEN6Entity6ColumnEEERS1_Lb1EEEOT_OT0_
FNDA:0,_ZNSt4pairIPSt18_Rb_tree_node_baseS1_EC2IRS1_S4_Lb1EEEOT_OT0_
FNF:10
FNH:5
DA:198,0
DA:292,0
DA:300,399
DA:301,399
DA:314,0
DA:315,0
DA:330,26
DA:331,26
LF:8
LH:4
end_of_record
SF:/usr/include/c++/7/bits/stl_tree.h
FN:152,_ZNSt20_Rb_tree_key_compareISt4lessINSt7__cxx1112basic_stringIcSt11char_traitsIcESaIcEEEEEC2ERKS7_
FN:173,_ZNSt15_Rb_tree_headerC2Ev
FN:206,_ZNSt15_Rb_tree_header8_M_resetEv
FN:234,_ZNSt13_Rb_tree_nodeISt4pairIKNSt7__cxx1112basic_stringIcSt11char_traitsIcESaIcEEEN6Entity6ColumnEEE9_M_valptrEv
FN:238,_ZNKSt13_Rb_tree_nodeISt4pairIKNSt7__cxx1112basic_stringIcSt11char_traitsIcESaIcEEEN6Entity6ColumnEEE9_M_valptrEv
FN:273,_ZNSt17_Rb_tree_iteratorISt4pairIKNSt7__cxx1112basic_stringIcSt11char_traitsIcESaIcEEEN6Entity6ColumnEEEC2EPSt18_Rb_tree_node_base
FN:285,_ZNSt17_Rb_tree_iteratorISt4pairIKNSt7__cxx1112basic_stringIcSt11char_traitsIcESaIcEEEN6Entity6ColumnEEEppEv
FN:300,_ZNSt17_Rb_tree_iteratorISt4pairIKNSt7__cxx1112basic_stringIcSt11char_traitsIcESaIcEEEN6Entity6ColumnEEEmmEv
FN:315,_ZNKSt17_Rb_tree_iteratorISt4pairIKNSt7__cxx1112basic_stringIcSt11char_traitsIcESaIcEEEN6Entity6ColumnEEEeqERKSB_
FN:348,_ZNSt23_Rb_tree_const_iteratorISt4pairIKNSt7__cxx1112basic_stringIcSt11char_traitsIcESaIcEEEN6Entity6ColumnEEEC2ERKSt17_Rb_tree_iteratorISA_E
FN:352,_ZNKSt23_Rb_tree_const_iteratorISt4pairIKNSt7__cxx1112basic_stringIcSt11char_traitsIcESaIcEEEN6Entity6ColumnEEE13_M_const_castEv
FN:546,_ZNSt8_Rb_treeINSt7__cxx1112basic_stringIcSt11char_traitsIcESaIcEEESt4pairIKS5_N6Entity6ColumnEESt10_Select1stISA_ESt4lessIS5_ESaISA_EE11_Alloc_nodeC2ERSG_
FN:554,_ZNKSt8_Rb_treeINSt7__cxx1112basic_stringIcSt11char_traitsIcESaIcEEESt4pairIKS5_N6Entity6ColumnEESt10_Select1stISA_ESt4lessIS5_ESaISA_EE11_Alloc_nodeclIRKSA_EEPSt13_Rb_tree_nodeISA_EOT_
FN:574,_ZNSt8_Rb_treeINSt7__cxx1112basic_stringIcSt11char_traitsIcESaIcEEESt4pairIKS5_N6Entity6ColumnEESt10_Select1stISA_ESt4lessIS5_ESaISA_EE21_M_get_Node_allocatorEv
FN:587,_ZNSt8_Rb_treeINSt7__cxx1112basic_stringIcSt11char_traitsIcESaIcEEESt4pairIKS5_N6Entity6ColumnEESt10_Select1stISA_ESt4lessIS5_ESaISA_EE11_M_get_nodeEv
FN:591,_ZNSt8_Rb_treeINSt7__cxx1112basic_stringIcSt11char_traitsIcESaIcEEESt4pairIKS5_N6Entity6ColumnEESt10_Select1stISA_ESt4lessIS5_ESaISA_EE11_M_put_nodeEPSt13_Rb_tree_nodeISA_E
FN:621,_ZNSt8_Rb_treeINSt7__cxx1112basic_stringIcSt11char_traitsIcESaIcEEESt4pairIKS5_N6Entity6ColumnEESt10_Select1stISA_ESt4lessIS5_ESaISA_EE17_M_construct_nodeIJRKSA_EEEvPSt13_Rb_tree_nodeISA_EDpOT_
FN:640,_ZNSt8_Rb_treeINSt7__cxx1112basic_stringIcSt11char_traitsIcESaIcEEESt4pairIKS5_N6Entity6ColumnEESt10_Select1stISA_ESt4lessIS5_ESaISA_EE14_M_create_nodeIJRKSA_EEEPSt13_Rb_tree_nodeISA_EDpOT_
FN:648,_ZNSt8_Rb_treeINSt7__cxx1112basic_stringIcSt11char_traitsIcESaIcEEESt4pairIKS5_N6Entity6ColumnEESt10_Select1stISA_ESt4lessIS5_ESaISA_EE15_M_destroy_nodeEPSt13_Rb_tree_nodeISA_E
FN:656,_ZNSt8_Rb_treeINSt7__cxx1112basic_stringIcSt11char_traitsIcESaIcEEESt4pairIKS5_N6Entity6ColumnEESt10_Select1stISA_ESt4lessIS5_ESaISA_EE12_M_drop_nodeEPSt13_Rb_tree_nodeISA_E
FN:677,_ZNSt8_Rb_treeINSt7__cxx1112basic_stringIcSt11char_traitsIcESaIcEEESt4pairIKS5_N6Entity6ColumnEESt10_Select1stISA_ESt4lessIS5_ESaISA_EE13_Rb_tree_implISE_Lb1EED2Ev
FN:702,_ZNSt8_Rb_treeINSt7__cxx1112basic_stringIcSt11char_traitsIcESaIcEEESt4pairIKS5_N6Entity6ColumnEESt10_Select1stISA_ESt4lessIS5_ESaISA_EE13_Rb_tree_implISE_Lb1EEC2ERKSE_OSaISt13_Rb_tree_nodeISA_EE
FN:720,_ZNSt8_Rb_treeINSt7__cxx1112basic_stringIcSt11char_traitsIcESaIcEEESt4pairIKS5_N6Entity6ColumnEESt10_Select1stISA_ESt4lessIS5_ESaISA_EE11_M_leftmostEv
FN:728,_ZNSt8_Rb_treeINSt7__cxx1112basic_stringIcSt11char_traitsIcESaIcEEESt4pairIKS5_N6Entity6ColumnEESt10_Select1stISA_ESt4lessIS5_ESaISA_EE12_M_rightmostEv
FN:736,_ZNSt8_Rb_treeINSt7__cxx1112basic_stringIcSt11char_traitsIcESaIcEEESt4pairIKS5_N6Entity6ColumnEESt10_Select1stISA_ESt4lessIS5_ESaISA_EE8_M_beginEv
FN:747,_ZNSt8_Rb_treeINSt7__cxx1112basic_stringIcSt11char_traitsIcESaIcEEESt4pairIKS5_N6Entity6ColumnEESt10_Select1stISA_ESt4lessIS5_ESaISA_EE6_M_endEv
FN:755,_ZNSt8_Rb_treeINSt7__cxx1112basic_stringIcSt11char_traitsIcESaIcEEESt4pairIKS5_N6Entity6ColumnEESt10_Select1stISA_ESt4lessIS5_ESaISA_EE8_S_valueEPKSt13_Rb_tree_nodeISA_E
FN:759,_ZNSt8_Rb_treeINSt7__cxx1112basic_stringIcSt11char_traitsIcESaIcEEESt4pairIKS5_N6Entity6ColumnEESt10_Select1stISA_ESt4lessIS5_ESaISA_EE6_S_keyEPKSt13_Rb_tree_nodeISA_E
FN:763,_ZNSt8_Rb_treeINSt7__cxx1112basic_stringIcSt11char_traitsIcESaIcEEESt4pairIKS5_N6Entity6ColumnEESt10_Select1stISA_ESt4lessIS5_ESaISA_EE7_S_leftEPSt18_Rb_tree_node_base
FN:771,_ZNSt8_Rb_treeINSt7__cxx1112basic_stringIcSt11char_traitsIcESaIcEEESt4pairIKS5_N6Entity6ColumnEESt10_Select1stISA_ESt4lessIS5_ESaISA_EE8_S_rightEPSt18_Rb_tree_node_base
FN:779,_ZNSt8_Rb_treeINSt7__cxx1112basic_stringIcSt11char_traitsIcESaIcEEESt4pairIKS5_N6Entity6ColumnEESt10_Select1stISA_ESt4lessIS5_ESaISA_EE8_S_valueEPKSt18_Rb_tree_node_base
FN:783,_ZNSt8_Rb_treeINSt7__cxx1112basic_stringIcSt11char_traitsIcESaIcEEESt4pairIKS5_N6Entity6ColumnEESt10_Select1stISA_ESt4lessIS5_ESaISA_EE6_S_keyEPKSt18_Rb_tree_node_base
FN:916,_ZNSt8_Rb_treeINSt7__cxx1112basic_stringIcSt11char_traitsIcESaIcEEESt4pairIKS5_N6Entity6ColumnEESt10_Select1stISA_ESt4lessIS5_ESaISA_EEC2ERKSE_RKSF_
FN:948,_ZNSt8_Rb_treeINSt7__cxx1112basic_stringIcSt11char_traitsIcESaIcEEESt4pairIKS5_N6Entity6ColumnEESt10_Select1stISA_ESt4lessIS5_ESaISA_EED2Ev
FN:960,_ZNSt8_Rb_treeINSt7__cxx1112basic_stringIcSt11char_traitsIcESaIcEEESt4pairIKS5_N6Entity6ColumnEESt10_Select1stISA_ESt4lessIS5_ESaISA_EE5beginEv
FN:968,_ZNSt8_Rb_treeINSt7__cxx1112basic_stringIcSt11char_traitsIcESaIcEEESt4pairIKS5_N6Entity6ColumnEESt10_Select1stISA_ESt4lessIS5_ESaISA_EE3endEv
FN:996,_ZNKSt8_Rb_treeINSt7__cxx1112basic_stringIcSt11char_traitsIcESaIcEEESt4pairIKS5_N6Entity6ColumnEESt10_Select1stISA_ESt4lessIS5_ESaISA_EE4sizeEv
FN:1740,_ZNSt8_Rb_treeINSt7__cxx1112basic_stringIcSt11char_traitsIcESaIcEEESt4pairIKS5_N6Entity6ColumnEESt10_Select1stISA_ESt4lessIS5_ESaISA_EE10_M_insert_IRKSA_NSG_11_Alloc_nodeEEESt17_Rb_tree_iteratorISA_EPSt18_Rb_tree_node_baseSO_OT_RT0_
FN:1850,_ZNSt8_Rb_treeINSt7__cxx1112basic_stringIcSt11char_traitsIcESaIcEEESt4pairIKS5_N6Entity6ColumnEESt10_Select1stISA_ESt4lessIS5_ESaISA_EE8_M_eraseEPSt13_Rb_tree_nodeISA_E
FN:2028,_ZNSt8_Rb_treeINSt7__cxx1112basic_stringIcSt11char_traitsIcESaIcEEESt4pairIKS5_N6Entity6ColumnEESt10_Select1stISA_ESt4lessIS5_ESaISA_EE24_M_get_insert_unique_posERS7_
FN:2130,_ZNSt8_Rb_treeINSt7__cxx1112basic_stringIcSt11char_traitsIcESaIcEEESt4pairIKS5_N6Entity6ColumnEESt10_Select1stISA_ESt4lessIS5_ESaISA_EE29_M_get_insert_hint_unique_posESt23_Rb_tree_const_iteratorISA_ERS7_
FN:2191,_ZNSt8_Rb_treeINSt7__cxx1112basic_stringIcSt11char_traitsIcESaIcEEESt4pairIKS5_N6Entity6ColumnEESt10_Select1stISA_ESt4lessIS5_ESaISA_EE17_M_insert_unique_IRKSA_NSG_11_Alloc_nodeEEESt17_Rb_tree_iteratorISA_ESt23_Rb_tree_const_iteratorISA_EOT_RT0_
FN:2447,_ZNSt8_Rb_treeINSt7__cxx1112basic_stringIcSt11char_traitsIcESaIcEEESt4pairIKS5_N6Entity6ColumnEESt10_Select1stISA_ESt4lessIS5_ESaISA_EE16_M_insert_uniqueIPKSA_EEvT_SK_
FNDA:0,_ZNSt20_Rb_tree_key_compareISt4lessINSt7__cxx1112basic_stringIcSt11char_traitsIcESaIcEEEEEC2ERKS7_
FNDA:0,_ZNSt15_Rb_tree_headerC2Ev
FNDA:0,_ZNSt15_Rb_tree_header8_M_resetEv
FNDA:0,_ZNSt13_Rb_tree_nodeISt4pairIKNSt7__cxx1112basic_stringIcSt11char_traitsIcESaIcEEEN6Entity6ColumnEEE9_M_valptrEv
FNDA:0,_ZNKSt13_Rb_tree_nodeISt4pairIKNSt7__cxx1112basic_stringIcSt11char_traitsIcESaIcEEEN6Entity6ColumnEEE9_M_valptrEv
FNDA:151,_ZNSt17_Rb_tree_iteratorISt4pairIKNSt7__cxx1112basic_stringIcSt11char_traitsIcESaIcEEEN6Entity6ColumnEEEC2EPSt18_Rb_tree_node_base
FNDA:0,_ZNSt17_Rb_tree_iteratorISt4pairIKNSt7__cxx1112basic_stringIcSt11char_traitsIcESaIcEEEN6Entity6ColumnEEEppEv
FNDA:11,_ZNSt17_Rb_tree_iteratorISt4pairIKNSt7__cxx1112basic_stringIcSt11char_traitsIcESaIcEEEN6Entity6ColumnEEEmmEv
FNDA:20,_ZNKSt17_Rb_tree_iteratorISt4pairIKNSt7__cxx1112basic_stringIcSt11char_traitsIcESaIcEEEN6Entity6ColumnEEEeqERKSB_
FNDA:35,_ZNSt23_Rb_tree_const_iteratorISt4pairIKNSt7__cxx1112basic_stringIcSt11char_traitsIcESaIcEEEN6Entity6ColumnEEEC2ERKSt17_Rb_tree_iteratorISA_E
FNDA:35,_ZNKSt23_Rb_tree_const_iteratorISt4pairIKNSt7__cxx1112basic_stringIcSt11char_traitsIcESaIcEEEN6Entity6ColumnEEE13_M_const_castEv
FNDA:0,_ZNSt8_Rb_treeINSt7__cxx1112basic_stringIcSt11char_traitsIcESaIcEEESt4pairIKS5_N6Entity6ColumnEESt10_Select1stISA_ESt4lessIS5_ESaISA_EE11_Alloc_nodeC2ERSG_
FNDA:0,_ZNKSt8_Rb_treeINSt7__cxx1112basic_stringIcSt11char_traitsIcESaIcEEESt4pairIKS5_N6Entity6ColumnEESt10_Select1stISA_ESt4lessIS5_ESaISA_EE11_Alloc_nodeclIRKSA_EEPSt13_Rb_tree_nodeISA_EOT_
FNDA:0,_ZNSt8_Rb_treeINSt7__cxx1112basic_stringIcSt11char_traitsIcESaIcEEESt4pairIKS5_N6Entity6ColumnEESt10_Select1stISA_ESt4lessIS5_ESaISA_EE21_M_get_Node_allocatorEv
FNDA:0,_ZNSt8_Rb_treeINSt7__cxx1112basic_stringIcSt11char_traitsIcESaIcEEESt4pairIKS5_N6Entity6ColumnEESt10_Select1stISA_ESt4lessIS5_ESaISA_EE11_M_get_nodeEv
FNDA:0,_ZNSt8_Rb_treeINSt7__cxx1112basic_stringIcSt11char_traitsIcESaIcEEESt4pairIKS5_N6Entity6ColumnEESt10_Select1stISA_ESt4lessIS5_ESaISA_EE11_M_put_nodeEPSt13_Rb_tree_nodeISA_E
FNDA:0,_ZNSt8_Rb_treeINSt7__cxx1112basic_stringIcSt11char_traitsIcESaIcEEESt4pairIKS5_N6Entity6ColumnEESt10_Select1stISA_ESt4lessIS5_ESaISA_EE17_M_construct_nodeIJRKSA_EEEvPSt13_Rb_tree_nodeISA_EDpOT_
FNDA:0,_ZNSt8_Rb_treeINSt7__cxx1112basic_stringIcSt11char_traitsIcESaIcEEESt4pairIKS5_N6Entity6ColumnEESt10_Select1stISA_ESt4lessIS5_ESaISA_EE14_M_create_nodeIJRKSA_EEEPSt13_Rb_tree_nodeISA_EDpOT_
FNDA:0,_ZNSt8_Rb_treeINSt7__cxx1112basic_stringIcSt11char_traitsIcESaIcEEESt4pairIKS5_N6Entity6ColumnEESt10_Select1stISA_ESt4lessIS5_ESaISA_EE15_M_destroy_nodeEPSt13_Rb_tree_nodeISA_E
FNDA:0,_ZNSt8_Rb_treeINSt7__cxx1112basic_stringIcSt11char_traitsIcESaIcEEESt4pairIKS5_N6Entity6ColumnEESt10_Select1stISA_ESt4lessIS5_ESaISA_EE12_M_drop_nodeEPSt13_Rb_tree_nodeISA_E
FNDA:0,_ZNSt8_Rb_treeINSt7__cxx1112basic_stringIcSt11char_traitsIcESaIcEEESt4pairIKS5_N6Entity6ColumnEESt10_Select1stISA_ESt4lessIS5_ESaISA_EE13_Rb_tree_implISE_Lb1EED2Ev
FNDA:4,_ZNSt8_Rb_treeINSt7__cxx1112basic_stringIcSt11char_traitsIcESaIcEEESt4pairIKS5_N6Entity6ColumnEESt10_Select1stISA_ESt4lessIS5_ESaISA_EE13_Rb_tree_implISE_Lb1EEC2ERKSE_OSaISt13_Rb_tree_nodeISA_EE
FNDA:0,_ZNSt8_Rb_treeINSt7__cxx1112basic_stringIcSt11char_traitsIcESaIcEEESt4pairIKS5_N6Entity6ColumnEESt10_Select1stISA_ESt4lessIS5_ESaISA_EE11_M_leftmostEv
FNDA:0,_ZNSt8_Rb_treeINSt7__cxx1112basic_stringIcSt11char_traitsIcESaIcEEESt4pairIKS5_N6Entity6ColumnEESt10_Select1stISA_ESt4lessIS5_ESaISA_EE12_M_rightmostEv
FNDA:0,_ZNSt8_Rb_treeINSt7__cxx1112basic_stringIcSt11char_traitsIcESaIcEEESt4pairIKS5_N6Entity6ColumnEESt10_Select1stISA_ESt4lessIS5_ESaISA_EE8_M_beginEv
FNDA:0,_ZNSt8_Rb_treeINSt7__cxx1112basic_stringIcSt11char_traitsIcESaIcEEESt4pairIKS5_N6Entity6ColumnEESt10_Select1stISA_ESt4lessIS5_ESaISA_EE6_M_endEv
FNDA:70,_ZNSt8_Rb_treeINSt7__cxx1112basic_stringIcSt11char_traitsIcESaIcEEESt4pairIKS5_N6Entity6ColumnEESt10_Select1stISA_ESt4lessIS5_ESaISA_EE8_S_valueEPKSt13_Rb_tree_nodeISA_E
FNDA:70,_ZNSt8_Rb_treeINSt7__cxx1112basic_stringIcSt11char_traitsIcESaIcEEESt4pairIKS5_N6Entity6ColumnEESt10_Select1stISA_ESt4lessIS5_ESaISA_EE6_S_keyEPKSt13_Rb_tree_nodeISA_E
FNDA:0,_ZNSt8_Rb_treeINSt7__cxx1112basic_stringIcSt11char_traitsIcESaIcEEESt4pairIKS5_N6Entity6ColumnEESt10_Select1stISA_ESt4lessIS5_ESaISA_EE7_S_leftEPSt18_Rb_tree_node_base
FNDA:0,_ZNSt8_Rb_treeINSt7__cxx1112basic_stringIcSt11char_traitsIcESaIcEEESt4pairIKS5_N6Entity6ColumnEESt10_Select1stISA_ESt4lessIS5_ESaISA_EE8_S_rightEPSt18_Rb_tree_node_base
FNDA:79,_ZNSt8_Rb_treeINSt7__cxx1112basic_stringIcSt11char_traitsIcESaIcEEESt4pairIKS5_N6Entity6ColumnEESt10_Select1stISA_ESt4lessIS5_ESaISA_EE8_S_valueEPKSt18_Rb_tree_node_base
FNDA:79,_ZNSt8_Rb_treeINSt7__cxx1112basic_stringIcSt11char_traitsIcESaIcEEESt4pairIKS5_N6Entity6ColumnEESt10_Select1stISA_ESt4lessIS5_ESaISA_EE6_S_keyEPKSt18_Rb_tree_node_base
FNDA:4,_ZNSt8_Rb_treeINSt7__cxx1112basic_stringIcSt11char_traitsIcESaIcEEESt4pairIKS5_N6Entity6ColumnEESt10_Select1stISA_ESt4lessIS5_ESaISA_EEC2ERKSE_RKSF_
FNDA:0,_ZNSt8_Rb_treeINSt7__cxx1112basic_stringIcSt11char_traitsIcESaIcEEESt4pairIKS5_N6Entity6ColumnEESt10_Select1stISA_ESt4lessIS5_ESaISA_EED2Ev
FNDA:20,_ZNSt8_Rb_treeINSt7__cxx1112basic_stringIcSt11char_traitsIcESaIcEEESt4pairIKS5_N6Entity6ColumnEESt10_Select1stISA_ESt4lessIS5_ESaISA_EE5beginEv
FNDA:35,_ZNSt8_Rb_treeINSt7__cxx1112basic_stringIcSt11char_traitsIcESaIcEEESt4pairIKS5_N6Entity6ColumnEESt10_Select1stISA_ESt4lessIS5_ESaISA_EE3endEv
FNDA:35,_ZNKSt8_Rb_treeINSt7__cxx1112basic_stringIcSt11char_traitsIcESaIcEEESt4pairIKS5_N6Entity6ColumnEESt10_Select1stISA_ESt4lessIS5_ESaISA_EE4sizeEv
FNDA:35,_ZNSt8_Rb_treeINSt7__cxx1112basic_stringIcSt11char_traitsIcESaIcEEESt4pairIKS5_N6Entity6ColumnEESt10_Select1stISA_ESt4lessIS5_ESaISA_EE10_M_insert_IRKSA_NSG_11_Alloc_nodeEEESt17_Rb_tree_iteratorISA_EPSt18_Rb_tree_node_baseSO_OT_RT0_
FNDA:0,_ZNSt8_Rb_treeINSt7__cxx1112basic_stringIcSt11char_traitsIcESaIcEEESt4pairIKS5_N6Entity6ColumnEESt10_Select1stISA_ESt4lessIS5_ESaISA_EE8_M_eraseEPSt13_Rb_tree_nodeISA_E
FNDA:26,_ZNSt8_Rb_treeINSt7__cxx1112basic_stringIcSt11char_traitsIcESaIcEEESt4pairIKS5_N6Entity6ColumnEESt10_Select1stISA_ESt4lessIS5_ESaISA_EE24_M_get_insert_unique_posERS7_
FNDA:35,_ZNSt8_Rb_treeINSt7__cxx1112basic_stringIcSt11char_traitsIcESaIcEEESt4pairIKS5_N6Entity6ColumnEESt10_Select1stISA_ESt4lessIS5_ESaISA_EE29_M_get_insert_hint_unique_posESt23_Rb_tree_const_iteratorISA_ERS7_
FNDA:35,_ZNSt8_Rb_treeINSt7__cxx1112basic_stringIcSt11char_traitsIcESaIcEEESt4pairIKS5_N6Entity6ColumnEESt10_Select1stISA_ESt4lessIS5_ESaISA_EE17_M_insert_unique_IRKSA_NSG_11_Alloc_nodeEEESt17_Rb_tree_iteratorISA_ESt23_Rb_tree_const_iteratorISA_EOT_RT0_
FNDA:4,_ZNSt8_Rb_treeINSt7__cxx1112basic_stringIcSt11char_traitsIcESaIcEEESt4pairIKS5_N6Entity6ColumnEESt10_Select1stISA_ESt4lessIS5_ESaISA_EE16_M_insert_uniqueIPKSA_EEvT_SK_
FNF:43
FNH:19
DA:152,0
DA:154,0
DA:173,0
DA:174,0
DA:175,0
DA:176,0
DA:177,0
DA:206,0
DA:208,0
DA:209,0
DA:210,0
DA:211,0
DA:212,0
DA:234,0
DA:235,0
DA:238,0
DA:239,0
DA:273,151
DA:274,151
DA:285,0
DA:287,0
DA:288,0
DA:300,11
DA:302,11
DA:303,11
DA:315,20
DA:316,20
DA:348,35
DA:349,35
DA:352,35
DA:353,35
DA:546,0
DA:547,0
DA:554,0
DA:556,0
DA:574,0
DA:575,0
DA:587,0
DA:588,0
DA:591,0
DA:592,0
DA:621,0
DA:625,0
DA:626,0
DA:630,0
DA:633,0
DA:634,0
DA:636,0
DA:640,0
DA:642,0
DA:643,0
DA:644,0
DA:648,0
DA:650,0
DA:652,0
DA:656,0
DA:658,0
DA:659,0
DA:660,0
DA:677,0
DA:702,4
DA:703,4
DA:704,4
DA:720,0
DA:721,0
DA:728,0
DA:729,0
DA:736,0
DA:737,0
DA:747,0
DA:748,0
DA:755,70
DA:756,70
DA:759,70
DA:760,70
DA:763,0
DA:764,0
DA:771,0
DA:772,0
DA:779,79
DA:780,79
DA:783,79
DA:784,79
DA:916,4
DA:918,4
DA:948,0
DA:949,0
DA:960,20
DA:961,20
DA:968,35
DA:969,35
DA:996,35
DA:997,35
DA:1740,35
DA:1749,70
DA:1750,101
DA:1753,35
DA:1755,35
DA:1757,35
DA:1758,35
DA:1850,0
DA:1854,0
DA:1856,0
DA:1857,0
DA:1858,0
DA:1859,0
DA:1861,0
DA:2028,26
DA:2032,26
DA:2033,26
DA:2034,26
DA:2035,166
DA:2037,70
DA:2038,70
DA:2039,70
DA:2041,26
DA:2042,26
DA:2044,20
DA:2045,9
DA:2047,11
DA:2049,17
DA:2050,17
DA:2051,0
DA:2130,35
DA:2134,35
DA:2138,35
DA:2140,70
DA:2141,35
DA:2142,9
DA:2144,26
DA:2146,0
DA:2149,0
DA:2150,0
DA:2151,0
DA:2152,0
DA:2154,0
DA:2155,0
DA:2157,0
DA:2160,0
DA:2162,0
DA:2165,0
DA:2166,0
DA:2167,0
DA:2168,0
DA:2170,0
DA:2171,0
DA:2173,0
DA:2176,0
DA:2180,0
DA:2191,35
DA:2200,35
DA:2201,70
DA:2203,35
DA:2204,35
DA:2206,35
DA:2207,0
DA:2447,4
DA:2450,4
DA:2451,74
DA:2452,35
DA:2453,4
LF:161
LH:70
end_of_record
SF:/usr/include/c++/7/ext/aligned_buffer.h
FN:62,_ZN9__gnu_cxx16__aligned_membufISt4pairIKNSt7__cxx1112basic_stringIcSt11char_traitsIcESaIcEEEN6Entity6ColumnEEE7_M_addrEv
FN:66,_ZNK9__gnu_cxx16__aligned_membufISt4pairIKNSt7__cxx1112basic_stringIcSt11char_traitsIcESaIcEEEN6Entity6ColumnEEE7_M_addrEv
FN:70,_ZN9__gnu_cxx16__aligned_membufISt4pairIKNSt7__cxx1112basic_stringIcSt11char_traitsIcESaIcEEEN6Entity6ColumnEEE6_M_ptrEv
FN:74,_ZNK9__gnu_cxx16__aligned_membufISt4pairIKNSt7__cxx1112basic_stringIcSt11char_traitsIcESaIcEEEN6Entity6ColumnEEE6_M_ptrEv
FNDA:0,_ZN9__gnu_cxx16__aligned_membufISt4pairIKNSt7__cxx1112basic_stringIcSt11char_traitsIcESaIcEEEN6Entity6ColumnEEE7_M_addrEv
FNDA:0,_ZNK9__gnu_cxx16__aligned_membufISt4pairIKNSt7__cxx1112basic_stringIcSt11char_traitsIcESaIcEEEN6Entity6ColumnEEE7_M_addrEv
FNDA:0,_ZN9__gnu_cxx16__aligned_membufISt4pairIKNSt7__cxx1112basic_stringIcSt11char_traitsIcESaIcEEEN6Entity6ColumnEEE6_M_ptrEv
FNDA:0,_ZNK9__gnu_cxx16__aligned_membufISt4pairIKNSt7__cxx1112basic_stringIcSt11char_traitsIcESaIcEEEN6Entity6ColumnEEE6_M_ptrEv
FNF:4
FNH:0
DA:62,0
DA:63,0
DA:66,0
DA:67,0
DA:70,0
DA:71,0
DA:74,0
DA:75,0
LF:8
LH:0
end_of_record
SF:/usr/include/c++/7/ext/new_allocator.h
FN:79,_ZN9__gnu_cxx13new_allocatorISt13_Rb_tree_nodeISt4pairIKNSt7__cxx1112basic_stringIcSt11char_traitsIcESaIcEEEN6Entity6ColumnEEEEC2Ev
FN:79,_ZN9__gnu_cxx13new_allocatorISt4pairIKNSt7__cxx1112basic_stringIcSt11char_traitsIcESaIcEEEN6Entity6ColumnEEEC2Ev
FN:81,_ZN9__gnu_cxx13new_allocatorISt4pairIKNSt7__cxx1112basic_stringIcSt11char_traitsIcESaIcEEEN6Entity6ColumnEEEC2ERKSC_
FN:81,_ZN9__gnu_cxx13new_allocatorISt13_Rb_tree_nodeISt4pairIKNSt7__cxx1112basic_stringIcSt11char_traitsIcESaIcEEEN6Entity6ColumnEEEEC2ERKSE_
FN:86,_ZN9__gnu_cxx13new_allocatorISt13_Rb_tree_nodeISt4pairIKNSt7__cxx1112basic_stringIcSt11char_traitsIcESaIcEEEN6Entity6ColumnEEEED2Ev
FN:86,_ZN9__gnu_cxx13new_allocatorISt4pairIKNSt7__cxx1112basic_stringIcSt11char_traitsIcESaIcEEEN6Entity6ColumnEEED2Ev
FN:99,_ZN9__gnu_cxx13new_allocatorISt13_Rb_tree_nodeISt4pairIKNSt7__cxx1112basic_stringIcSt11char_traitsIcESaIcEEEN6Entity6ColumnEEEE8allocateEmPKv
FN:116,_ZN9__gnu_cxx13new_allocatorISt13_Rb_tree_nodeISt4pairIKNSt7__cxx1112basic_stringIcSt11char_traitsIcESaIcEEEN6Entity6ColumnEEEE10deallocateEPSD_m
FN:129,_ZNK9__gnu_cxx13new_allocatorISt13_Rb_tree_nodeISt4pairIKNSt7__cxx1112basic_stringIcSt11char_traitsIcESaIcEEEN6Entity6ColumnEEEE8max_sizeEv
FN:135,_ZN9__gnu_cxx13new_allocatorISt13_Rb_tree_nodeISt4pairIKNSt7__cxx1112basic_stringIcSt11char_traitsIcESaIcEEEN6Entity6ColumnEEEE9constructISC_JRKSC_EEEvPT_DpOT0_
FN:140,_ZN9__gnu_cxx13new_allocatorISt13_Rb_tree_nodeISt4pairIKNSt7__cxx1112basic_stringIcSt11char_traitsIcESaIcEEEN6Entity6ColumnEEEE7destroyISC_EEvPT_
FNDA:4,_ZN9__gnu_cxx13new_allocatorISt13_Rb_tree_nodeISt4pairIKNSt7__cxx1112basic_stringIcSt11char_traitsIcESaIcEEEN6Entity6ColumnEEEEC2Ev
FNDA:4,_ZN9__gnu_cxx13new_allocatorISt4pairIKNSt7__cxx1112basic_stringIcSt11char_traitsIcESaIcEEEN6Entity6ColumnEEEC2Ev
FNDA:0,_ZN9__gnu_cxx13new_allocatorISt13_Rb_tree_nodeISt4pairIKNSt7__cxx1112basic_stringIcSt11char_traitsIcESaIcEEEN6Entity6ColumnEEEEC2ERKSE_
FNDA:4,_ZN9__gnu_cxx13new_allocatorISt4pairIKNSt7__cxx1112basic_stringIcSt11char_traitsIcESaIcEEEN6Entity6ColumnEEEC2ERKSC_
FNDA:0,_ZN9__gnu_cxx13new_allocatorISt13_Rb_tree_nodeISt4pairIKNSt7__cxx1112basic_stringIcSt11char_traitsIcESaIcEEEN6Entity6ColumnEEEED2Ev
FNDA:8,_ZN9__gnu_cxx13new_allocatorISt4pairIKNSt7__cxx1112basic_stringIcSt11char_traitsIcESaIcEEEN6Entity6ColumnEEED2Ev
FNDA:0,_ZN9__gnu_cxx13new_allocatorISt13_Rb_tree_nodeISt4pairIKNSt7__cxx1112basic_stringIcSt11char_traitsIcESaIcEEEN6Entity6ColumnEEEE8allocateEmPKv
FNDA:0,_ZN9__gnu_cxx13new_allocatorISt13_Rb_tree_nodeISt4pairIKNSt7__cxx1112basic_stringIcSt11char_traitsIcESaIcEEEN6Entity6ColumnEEEE10deallocateEPSD_m
FNDA:0,_ZNK9__gnu_cxx13new_allocatorISt13_Rb_tree_nodeISt4pairIKNSt7__cxx1112basic_stringIcSt11char_traitsIcESaIcEEEN6Entity6ColumnEEEE8max_sizeEv
FNDA:0,_ZN9__gnu_cxx13new_allocatorISt13_Rb_tree_nodeISt4pairIKNSt7__cxx1112basic_stringIcSt11char_traitsIcESaIcEEEN6Entity6ColumnEEEE9constructISC_JRKSC_EEEvPT_DpOT0_
FNDA:0,_ZN9__gnu_cxx13new_allocatorISt13_Rb_tree_nodeISt4pairIKNSt7__cxx1112basic_stringIcSt11char_traitsIcESaIcEEEN6Entity6ColumnEEEE7destroyISC_EEvPT_
FNF:11
FNH:4
DA:79,8
DA:81,4
DA:86,8
DA:99,0
DA:101,0
DA:102,0
DA:111,0
DA:116,0
DA:125,0
DA:126,0
DA:129,0
DA:130,0
DA:135,0
DA:136,0
DA:140,0
LF:15
LH:3
end_of_record
SF:/usr/include/c++/7/initializer_list
FN:71,_ZNKSt16initializer_listISt4pairIKNSt7__cxx1112basic_stringIcSt11char_traitsIcESaIcEEEN6Entity6ColumnEEE4sizeEv
FN:75,_ZNKSt16initializer_listISt4pairIKNSt7__cxx1112basic_stringIcSt11char_traitsIcESaIcEEEN6Entity6ColumnEEE5beginEv
FN:79,_ZNKSt16initializer_listISt4pairIKNSt7__cxx1112basic_stringIcSt11char_traitsIcESaIcEEEN6Entity6ColumnEEE3endEv
FNDA:4,_ZNKSt16initializer_listISt4pairIKNSt7__cxx1112basic_stringIcSt11char_traitsIcESaIcEEEN6Entity6ColumnEEE4sizeEv
FNDA:8,_ZNKSt16initializer_listISt4pairIKNSt7__cxx1112basic_stringIcSt11char_traitsIcESaIcEEEN6Entity6ColumnEEE5beginEv
FNDA:4,_ZNKSt16initializer_listISt4pairIKNSt7__cxx1112basic_stringIcSt11char_traitsIcESaIcEEEN6Entity6ColumnEEE3endEv
FNF:3
FNH:3
DA:71,4
DA:75,8
DA:79,4
LF:3
LH:3
end_of_record
SF:/usr/include/c++/7/new
FN:168,_ZnwmPv
FN:174,_ZdlPvS_
FNDA:0,_ZnwmPv
FNDA:0,_ZdlPvS_
FNF:2
FNH:0
DA:168,0
DA:169,0
DA:174,0
LF:3
LH:0
end_of_record
SF:/home/xronia/workspace/PBase/Entity/IndexName.cc
FN:17,_ZN6Entity9IndexNameC2Ev
FN:21,_ZN6Entity9IndexNameC2ERKN6String7astringILi64EEES5_S5_S5_RKl
FN:28,_ZN6Entity9IndexNameD2Ev
FN:53,_ZN6Entity9IndexName3setERKN6String7astringILi64EEES5_S5_S5_RKl
FN:62,_ZN6Entity16IndexNameIndexerC2Ev
FN:66,_ZN6Entity16IndexNameIndexerD0Ev
FN:66,_ZN6Entity16IndexNameIndexerD2Ev
FN:87,_ZNK6Entity16IndexNameIndexer7compareERKNS_10AbstEntityES3_
FN:97,_ZNK6Entity16IndexNameIndexer14getIndexerNameB5cxx11Ev
FN:118,_ZN6Entity16IndexNameMatcherC2EN6String7astringILi64EEES3_
FN:124,_ZN6Entity16IndexNameMatcherD2Ev
FN:124,_ZN6Entity16IndexNameMatcherD0Ev
FN:143,_ZNK6Entity16IndexNameMatcher5matchERKNS_10AbstEntityE
FN:171,_Z41__static_initialization_and_destruction_0ii
FN:171,_GLOBAL__sub_I_IndexName.cc
FNDA:337,_ZN6Entity9IndexNameC2Ev
FNDA:370,_ZN6Entity9IndexNameC2ERKN6String7astringILi64EEES5_S5_S5_RKl
FNDA:707,_ZN6Entity9IndexNameD2Ev
FNDA:360,_ZN6Entity9IndexName3setERKN6String7astringILi64EEES5_S5_S5_RKl
FNDA:97,_ZN6Entity16IndexNameIndexerC2Ev
FNDA:64,_ZN6Entity16IndexNameIndexerD0Ev
FNDA:96,_ZN6Entity16IndexNameIndexerD2Ev
FNDA:100,_ZNK6Entity16IndexNameIndexer7compareERKNS_10AbstEntityES3_
FNDA:99,_ZNK6Entity16IndexNameIndexer14getIndexerNameB5cxx11Ev
FNDA:356,_ZN6Entity16IndexNameMatcherC2EN6String7astringILi64EEES3_
FNDA:32,_ZN6Entity16IndexNameMatcherD0Ev
FNDA:356,_ZN6Entity16IndexNameMatcherD2Ev
FNDA:224,_ZNK6Entity16IndexNameMatcher5matchERKNS_10AbstEntityE
FNDA:33,_GLOBAL__sub_I_IndexName.cc
FNDA:33,_Z41__static_initialization_and_destruction_0ii
FNF:15
FNH:15
DA:17,337
DA:18,337
DA:20,337
DA:21,370
DA:23,370
DA:24,370
DA:26,370
DA:28,707
DA:30,707
DA:53,360
DA:55,360
DA:56,360
DA:57,360
DA:58,360
DA:59,360
DA:60,360
DA:62,97
DA:64,97
DA:66,160
DA:68,160
DA:87,100
DA:90,100
DA:91,100
DA:92,100
DA:93,100
DA:94,100
DA:97,99
DA:98,99
DA:118,356
DA:120,356
DA:122,356
DA:124,388
DA:126,388
DA:143,224
DA:145,224
DA:147,224
DA:150,224
DA:151,224
DA:156,33
DA:163,33
DA:165,33
DA:171,99
LF:42
LH:42
end_of_record
TN:
SF:/home/xronia/workspace/PBase/Entity/ImplMatcher.h
FN:33,_ZN6Entity11ImplMatcherC2Ev
FNDA:492,_ZN6Entity11ImplMatcherC2Ev
FNF:1
FNH:1
DA:33,492
LF:1
LH:1
end_of_record
SF:/home/xronia/workspace/PBase/Entity/ImplMatcher.cc
FN:30,_ZN6Entity11ImplMatcherD2Ev
FN:30,_ZN6Entity11ImplMatcherD0Ev
FN:33,_ZN6Entity16AbstIndexMatcherC2ERKNSt7__cxx1112basic_stringIcSt11char_traitsIcESaIcEEE
FN:37,_ZN6Entity16AbstIndexMatcherD2Ev
FN:37,_ZN6Entity16AbstIndexMatcherD0Ev
FN:40,_ZNK6Entity16AbstIndexMatcher12getIndexNameB5cxx11Ev
FN:44,_ZN6Entity19DefaultIndexMatcherC2ERKNSt7__cxx1112basic_stringIcSt11char_traitsIcESaIcEEE
FN:48,_ZN6Entity19DefaultIndexMatcherD2Ev
FN:48,_ZN6Entity19DefaultIndexMatcherD0Ev
FN:52,_ZNK6Entity19DefaultIndexMatcher5matchERKNS_10AbstEntityE
FN:70,_ZN6Entity10ImplSorterD2Ev
FN:70,_ZN6Entity10ImplSorterD0Ev
FN:73,_ZN6Entity11ImplIndexerD0Ev
FN:73,_ZN6Entity11ImplIndexerD2Ev
FNDA:0,_ZN6Entity11ImplMatcherD0Ev
FNDA:492,_ZN6Entity11ImplMatcherD2Ev
FNDA:477,_ZN6Entity16AbstIndexMatcherC2ERKNSt7__cxx1112basic_stringIcSt11char_traitsIcESaIcEEE
FNDA:0,_ZN6Entity16AbstIndexMatcherD0Ev
FNDA:477,_ZN6Entity16AbstIndexMatcherD2Ev
FNDA:40,_ZNK6Entity16AbstIndexMatcher12getIndexNameB5cxx11Ev
FNDA:102,_ZN6Entity19DefaultIndexMatcherC2ERKNSt7__cxx1112basic_stringIcSt11char_traitsIcESaIcEEE
FNDA:0,_ZN6Entity19DefaultIndexMatcherD0Ev
FNDA:102,_ZN6Entity19DefaultIndexMatcherD2Ev
FNDA:64,_ZNK6Entity19DefaultIndexMatcher5matchERKNS_10AbstEntityE
FNDA:0,_ZN6Entity10ImplSorterD0Ev
FNDA:172,_ZN6Entity10ImplSorterD2Ev
FNDA:0,_ZN6Entity11ImplIndexerD0Ev
FNDA:160,_ZN6Entity11ImplIndexerD2Ev
FNF:14
FNH:9
DA:30,492
DA:31,492
DA:33,477
DA:34,477
DA:35,477
DA:37,477
DA:38,477
DA:40,40
DA:41,40
DA:44,102
DA:45,102
DA:46,102
DA:48,102
DA:49,102
DA:52,64
DA:53,64
DA:70,172
DA:71,172
DA:73,160
DA:74,160
LF:20
LH:20
end_of_record
TN:
SF:/usr/include/c++/7/bits/ios_base.h
FN:129,_ZStorSt13_Ios_OpenmodeS_
FNDA:0,_ZStorSt13_Ios_OpenmodeS_
FNF:1
FNH:0
DA:129,0
DA:130,0
LF:2
LH:0
end_of_record
SF:/usr/include/c++/7/iostream
DA:74,2
LF:1
LH:1
end_of_record
SF:/home/xronia/workspace/PBase/Time/time.cc
FN:20,__tcf_0
FN:30,__tcf_1
FN:45,__tcf_2
FN:55,__tcf_3
FN:75,_ZN4Time4time3setEPKS0_
FN:80,_ZN4Time4time3setEP2tm
FN:85,_ZNK4Time4time3getEP2tm
FN:90,_ZNK4Time4time3getEPl
FN:95,_ZN4Time4time3setEssssss
FN:107,_ZNK4Time4time3getEPsS1_S1_S1_S1_S1_
FN:119,_ZNK4Time4time8toStringB5cxx11Ev
FN:127,_ZNK4Time4time8toStringERKNSt7__cxx1112basic_stringIcSt11char_traitsIcESaIcEEE
FN:134,_ZN4Time4time8stringToERKNSt7__cxx1112basic_stringIcSt11char_traitsIcESaIcEEE
FN:143,_ZN4Time4time8stringToERKNSt7__cxx1112basic_stringIcSt11char_traitsIcESaIcEEES8_
FN:151,_ZN4TimelsERSoRKNS_4timeE
FN:158,_Z41__static_initialization_and_destruction_0ii
FN:158,_GLOBAL__sub_I_time.cc
FNDA:2,__tcf_0
FNDA:2,__tcf_1
FNDA:2,__tcf_2
FNDA:2,__tcf_3
FNDA:12,_ZN4Time4time3setEPKS0_
FNDA:12,_ZN4Time4time3setEP2tm
FNDA:8,_ZNK4Time4time3getEP2tm
FNDA:8,_ZNK4Time4time3getEPl
FNDA:60,_ZN4Time4time3setEssssss
FNDA:38,_ZNK4Time4time3getEPsS1_S1_S1_S1_S1_
FNDA:12,_ZNK4Time4time8toStringB5cxx11Ev
FNDA:2315,_ZNK4Time4time8toStringERKNSt7__cxx1112basic_stringIcSt11char_traitsIcESaIcEEE
FNDA:36,_ZN4Time4time8stringToERKNSt7__cxx1112basic_stringIcSt11char_traitsIcESaIcEEE
FNDA:12,_ZN4Time4time8stringToERKNSt7__cxx1112basic_stringIcSt11char_traitsIcESaIcEEES8_
FNDA:2,_ZN4TimelsERSoRKNS_4timeE
FNDA:2,_GLOBAL__sub_I_time.cc
FNDA:2,_Z41__static_initialization_and_destruction_0ii
FNF:17
FNH:17
DA:20,4
DA:28,2
DA:30,4
DA:43,2
DA:45,4
DA:53,2
DA:55,4
DA:68,2
DA:75,12
DA:76,12
DA:77,8
DA:78,8
DA:80,12
DA:81,12
DA:82,8
DA:83,8
DA:85,8
DA:86,8
DA:87,4
DA:88,4
DA:90,8
DA:91,8
DA:92,4
DA:93,4
DA:95,60
DA:97,60
DA:98,60
DA:99,60
DA:100,60
DA:101,60
DA:102,60
DA:103,60
DA:104,60
DA:105,60
DA:107,38
DA:109,38
DA:110,22
DA:111,22
DA:112,22
DA:113,22
DA:114,22
DA:115,22
DA:116,22
DA:117,22
DA:119,12
DA:124,12
DA:127,2315
DA:129,2315
DA:130,2315
DA:131,2315
DA:134,36
DA:135,36
DA:137,36
DA:138,36
DA:139,2
DA:140,34
DA:141,34
DA:143,12
DA:144,12
DA:145,12
DA:146,12
DA:147,4
DA:148,8
DA:149,8
DA:151,2
DA:152,2
DA:153,2
DA:158,6
LF:68
LH:68
end_of_record
TN:
SF:/home/xronia/workspace/PBase/Time/ntime.h
FN:27,_ZN4Time5ntimeC2Ev
FN:28,_ZN4Time5ntimeC2ERKS0_
FN:46,_ZN4Time5ntimeD2Ev
FN:74,_ZN4Time5ntime7setMSecEs
FN:75,_ZNK4Time5ntime7getMSecEv
FN:76,_ZN4Time5ntime7setUSecEs
FN:77,_ZNK4Time5ntime7getUSecEv
FN:78,_ZN4Time5ntime7setNSecEs
FN:79,_ZNK4Time5ntime7getNSecEv
FNDA:0,_ZN4Time5ntimeC2Ev
FNDA:0,_ZN4Time5ntimeC2ERKS0_
FNDA:0,_ZN4Time5ntimeD2Ev
FNDA:0,_ZN4Time5ntime7setMSecEs
FNDA:0,_ZNK4Time5ntime7getMSecEv
FNDA:0,_ZN4Time5ntime7setUSecEs
FNDA:0,_ZNK4Time5ntime7getUSecEv
FNDA:0,_ZN4Time5ntime7setNSecEs
FNDA:0,_ZNK4Time5ntime7getNSecEv
FNF:9
FNH:0
DA:27,0
DA:28,0
DA:46,0
DA:74,0
DA:75,0
DA:76,0
DA:77,0
DA:78,0
DA:79,0
LF:9
LH:0
end_of_record
SF:/home/xronia/workspace/PBase/Time/time.h
FN:32,_ZN4Time4timeC2Ev
FN:44,_ZN4Time4timeD2Ev
FN:46,_ZN4Time4time3setERKS0_
FN:48,_ZN4Time4time3setEl
FN:49,_ZN4Time4time3setER2tm
FN:68,_ZN4Time4time7setYearEs
FN:70,_ZN4Time4time6setMonEs
FN:72,_ZN4Time4time6setDayEs
FN:74,_ZN4Time4time7setHourEs
FN:76,_ZN4Time4time6setMinEs
FN:78,_ZN4Time4time6setSecEs
FNDA:0,_ZN4Time4timeC2Ev
FNDA:0,_ZN4Time4timeD2Ev
FNDA:0,_ZN4Time4time3setERKS0_
FNDA:0,_ZN4Time4time3setEl
FNDA:0,_ZN4Time4time3setER2tm
FNDA:0,_ZN4Time4time7setYearEs
FNDA:0,_ZN4Time4time6setMonEs
FNDA:0,_ZN4Time4time6setDayEs
FNDA:0,_ZN4Time4time7setHourEs
FNDA:0,_ZN4Time4time6setMinEs
FNDA:0,_ZN4Time4time6setSecEs
FNF:11
FNH:0
DA:32,0
DA:44,0
DA:46,0
DA:48,0
DA:49,0
DA:68,0
DA:70,0
DA:72,0
DA:74,0
DA:76,0
DA:78,0
LF:11
LH:0
end_of_record
SF:/usr/include/c++/7/bits/alloc_traits.h
FN:435,_ZNSt16allocator_traitsISaISt13_Rb_tree_nodeISt4pairIKNSt7__cxx1112basic_stringIcSt11char_traitsIcESaIcEEES7_EEEE8allocateERSB_m
FN:435,_ZNSt16allocator_traitsISaISt4pairIccEEE8allocateERS2_m
FN:435,_ZNSt16allocator_traitsISaImEE8allocateERS0_m
FN:435,_ZNSt16allocator_traitsISaINSt7__cxx1112regex_traitsIcE10_RegexMaskEEE8allocateERS4_m
FN:435,_ZNSt16allocator_traitsISaINSt8__detail9_StateSeqINSt7__cxx1112regex_traitsIcEEEEEE8allocateERS6_m
FN:435,_ZNSt16allocator_traitsISaIlEE8allocateERS0_m
FN:435,_ZNSt16allocator_traitsISaISt4pairINSt7__cxx1112basic_stringIcSt11char_traitsIcESaIcEEES6_EEE8allocateERS8_m
FN:435,_ZNSt16allocator_traitsISaISt23_Sp_counted_ptr_inplaceINSt8__detail4_NFAINSt7__cxx1112regex_traitsIcEEEESaIS6_ELN9__gnu_cxx12_Lock_policyE2EEEE8allocateERSB_m
FN:435,_ZNSt16allocator_traitsISaISt4pairIlSt6vectorINSt7__cxx119sub_matchIN9__gnu_cxx17__normal_iteratorIPKcNS2_12basic_stringIcSt11char_traitsIcESaIcEEEEEEESaISE_EEEEE8allocateERSI_m
FN:435,_ZNSt16allocator_traitsISaIPlEE8allocateERS1_m
FN:435,_ZNSt16allocator_traitsISaISt4pairIN9__gnu_cxx17__normal_iteratorIPKcNSt7__cxx1112basic_stringIcSt11char_traitsIcESaIcEEEEEiEEE8allocateERSD_m
FN:435,_ZNSt16allocator_traitsISaIcEE8allocateERS0_m
FN:435,_ZNSt16allocator_traitsISaINSt7__cxx119sub_matchIN9__gnu_cxx17__normal_iteratorIPKcNS0_12basic_stringIcSt11char_traitsIcESaIcEEEEEEEEE8allocateERSD_m
FN:435,_ZNSt16allocator_traitsISaINSt7__cxx1112basic_stringIcSt11char_traitsIcESaIcEEEEE8allocateERS6_m
FN:435,_ZNSt16allocator_traitsISaIPNSt8__detail9_StateSeqINSt7__cxx1112regex_traitsIcEEEEEE8allocateERS7_m
FN:435,_ZNSt16allocator_traitsISaISt13_Rb_tree_nodeISt4pairIKllEEEE8allocateERS5_m
FN:435,_ZNSt16allocator_traitsISaINSt8__detail6_StateIcEEEE8allocateERS3_m
FN:461,_ZNSt16allocator_traitsISaIcEE10deallocateERS0_Pcm
FN:461,_ZNSt16allocator_traitsISaINSt8__detail9_StateSeqINSt7__cxx1112regex_traitsIcEEEEEE10deallocateERS6_PS5_m
FN:461,_ZNSt16allocator_traitsISaIPNSt8__detail9_StateSeqINSt7__cxx1112regex_traitsIcEEEEEE10deallocateERS7_PS6_m
FN:461,_ZNSt16allocator_traitsISaISt4pairIlSt6vectorINSt7__cxx119sub_matchIN9__gnu_cxx17__normal_iteratorIPKcNS2_12basic_stringIcSt11char_traitsIcESaIcEEEEEEESaISE_EEEEE10deallocateERSI_PSH_m
FN:461,_ZNSt16allocator_traitsISaINSt7__cxx1112basic_stringIcSt11char_traitsIcESaIcEEEEE10deallocateERS6_PS5_m
FN:461,_ZNSt16allocator_traitsISaINSt7__cxx119sub_matchIN9__gnu_cxx17__normal_iteratorIPKcNS0_12basic_stringIcSt11char_traitsIcESaIcEEEEEEEEE10deallocateERSD_PSC_m
FN:461,_ZNSt16allocator_traitsISaISt13_Rb_tree_nodeISt4pairIKNSt7__cxx1112basic_stringIcSt11char_traitsIcESaIcEEES7_EEEE10deallocateERSB_PSA_m
FN:461,_ZNSt16allocator_traitsISaIPlEE10deallocateERS1_PS0_m
FN:461,_ZNSt16allocator_traitsISaImEE10deallocateERS0_Pmm
FN:461,_ZNSt16allocator_traitsISaISt13_Rb_tree_nodeISt4pairIKllEEEE10deallocateERS5_PS4_m
FN:461,_ZNSt16allocator_traitsISaISt4pairIccEEE10deallocateERS2_PS1_m
FN:461,_ZNSt16allocator_traitsISaINSt8__detail6_StateIcEEEE10deallocateERS3_PS2_m
FN:461,_ZNSt16allocator_traitsISaISt4pairINSt7__cxx1112basic_stringIcSt11char_traitsIcESaIcEEES6_EEE10deallocateERS8_PS7_m
FN:461,_ZNSt16allocator_traitsISaISt4pairIN9__gnu_cxx17__normal_iteratorIPKcNSt7__cxx1112basic_stringIcSt11char_traitsIcESaIcEEEEEiEEE10deallocateERSD_PSC_m
FN:461,_ZNSt16allocator_traitsISaIlEE10deallocateERS0_Plm
FN:461,_ZNSt16allocator_traitsISaISt23_Sp_counted_ptr_inplaceINSt8__detail4_NFAINSt7__cxx1112regex_traitsIcEEEESaIS6_ELN9__gnu_cxx12_Lock_policyE2EEEE10deallocateERSB_PSA_m
FN:461,_ZNSt16allocator_traitsISaINSt7__cxx1112regex_traitsIcE10_RegexMaskEEE10deallocateERS4_PS3_m
FN:474,_ZNSt16allocator_traitsISaISt13_Rb_tree_nodeISt4pairIKNSt7__cxx1112basic_stringIcSt11char_traitsIcESaIcEEES7_EEEE9constructIS9_JRA3_KcRA2_SE_EEEvRSB_PT_DpOT0_
FN:474,_ZNSt16allocator_traitsISaIcEE9constructIcJcEEEvRS0_PT_DpOT0_
FN:474,_ZNSt16allocator_traitsISaINSt8__detail4_NFAINSt7__cxx1112regex_traitsIcEEEEEE9constructIS5_JRKSt6localeRNSt15regex_constants18syntax_option_typeEEEEvRS6_PT_DpOT0_
FN:474,_ZNSt16allocator_traitsISaISt13_Rb_tree_nodeISt4pairIKNSt7__cxx1112basic_stringIcSt11char_traitsIcESaIcEEES7_EEEE9constructIS9_JRA3_KcRA8_SE_EEEvRSB_PT_DpOT0_
FN:474,_ZNSt16allocator_traitsISaISt13_Rb_tree_nodeISt4pairIKNSt7__cxx1112basic_stringIcSt11char_traitsIcESaIcEEES7_EEEE9constructIS9_JRA4_KcSG_EEEvRSB_PT_DpOT0_
FN:474,_ZNSt16allocator_traitsISaIlEE9constructIlJRKlEEEvRS0_PT_DpOT0_
FN:474,_ZNSt16allocator_traitsISaINSt7__cxx1112basic_stringIcSt11char_traitsIcESaIcEEEEE9constructIS5_JRKS5_EEEvRS6_PT_DpOT0_
FN:474,_ZNSt16allocator_traitsISaINSt7__cxx1112regex_traitsIcE10_RegexMaskEEE9constructIS3_JRKS3_EEEvRS4_PT_DpOT0_
FN:474,_ZNSt16allocator_traitsISaISt13_Rb_tree_nodeISt4pairIKNSt7__cxx1112basic_stringIcSt11char_traitsIcESaIcEEES7_EEEE9constructIS9_JRA3_KcRA11_SE_EEEvRSB_PT_DpOT0_
FN:474,_ZNSt16allocator_traitsISaISt4pairIccEEE9constructIS1_JS1_EEEvRS2_PT_DpOT0_
FN:474,_ZNSt16allocator_traitsISaINSt8__detail9_StateSeqINSt7__cxx1112regex_traitsIcEEEEEE9constructIS5_JS5_EEEvRS6_PT_DpOT0_
FN:474,_ZNSt16allocator_traitsISaImEE9constructImJRKmEEEvRS0_PT_DpOT0_
FN:474,_ZNSt16allocator_traitsISaISt13_Rb_tree_nodeISt4pairIKNSt7__cxx1112basic_stringIcSt11char_traitsIcESaIcEEES7_EEEE9constructIS9_JRA3_KcRA29_SE_EEEvRSB_PT_DpOT0_
FN:474,_ZNSt16allocator_traitsISaISt13_Rb_tree_nodeISt4pairIKNSt7__cxx1112basic_stringIcSt11char_traitsIcESaIcEEES7_EEEE9constructIS9_JRA3_KcRA27_SE_EEEvRSB_PT_DpOT0_
FN:474,_ZNSt16allocator_traitsISaISt4pairINSt7__cxx1112basic_stringIcSt11char_traitsIcESaIcEEES6_EEE9constructIS7_JS7_EEEvRS8_PT_DpOT0_
FN:474,_ZNSt16allocator_traitsISaISt13_Rb_tree_nodeISt4pairIKllEEEE9constructIS3_JRKSt21piecewise_construct_tSt5tupleIJRS2_EESB_IJEEEEEvRS5_PT_DpOT0_
FN:474,_ZNSt16allocator_traitsISaISt13_Rb_tree_nodeISt4pairIKNSt7__cxx1112basic_stringIcSt11char_traitsIcESaIcEEES7_EEEE9constructIS9_JRA4_KcRA18_SE_EEEvRSB_PT_DpOT0_
FN:474,_ZNSt16allocator_traitsISaISt13_Rb_tree_nodeISt4pairIKNSt7__cxx1112basic_stringIcSt11char_traitsIcESaIcEEES7_EEEE9constructIS9_JRA3_KcRA9_SE_EEEvRSB_PT_DpOT0_
FN:474,_ZNSt16allocator_traitsISaISt13_Rb_tree_nodeISt4pairIKNSt7__cxx1112basic_stringIcSt11char_traitsIcESaIcEEES7_EEEE9constructIS9_JRA3_KcRA10_SE_EEEvRSB_PT_DpOT0_
FN:474,_ZNSt16allocator_traitsISaINSt8__detail9_StateSeqINSt7__cxx1112regex_traitsIcEEEEEE9constructIS5_JRKS5_EEEvRS6_PT_DpOT0_
FN:474,_ZNSt16allocator_traitsISaISt4pairIlSt6vectorINSt7__cxx119sub_matchIN9__gnu_cxx17__normal_iteratorIPKcNS2_12basic_stringIcSt11char_traitsIcESaIcEEEEEEESaISE_EEEEE9constructISH_JRlRKSG_EEEvRSI_PT_DpOT0_
FN:474,_ZNSt16allocator_traitsISaISt13_Rb_tree_nodeISt4pairIKNSt7__cxx1112basic_stringIcSt11char_traitsIcESaIcEEES7_EEEE9constructIS9_JRA3_KcRA24_SE_EEEvRSB_PT_DpOT0_
FN:474,_ZNSt16allocator_traitsISaISt13_Rb_tree_nodeISt4pairIKNSt7__cxx1112basic_stringIcSt11char_traitsIcESaIcEEES7_EEEE9constructIS9_JRA3_KcRA_SE_EEEvRSB_PT_DpOT0_
FN:474,_ZNSt16allocator_traitsISaINSt8__detail6_StateIcEEEE9constructIS2_JS2_EEEvRS3_PT_DpOT0_
FN:486,_ZNSt16allocator_traitsISaINSt7__cxx1112regex_traitsIcE10_RegexMaskEEE7destroyIS3_EEvRS4_PT_
FN:486,_ZNSt16allocator_traitsISaINSt8__detail6_StateIcEEEE7destroyIS2_EEvRS3_PT_
FN:486,_ZNSt16allocator_traitsISaISt4pairINSt7__cxx1112basic_stringIcSt11char_traitsIcESaIcEEES6_EEE7destroyIS7_EEvRS8_PT_
FN:486,_ZNSt16allocator_traitsISaISt4pairIlSt6vectorINSt7__cxx119sub_matchIN9__gnu_cxx17__normal_iteratorIPKcNS2_12basic_stringIcSt11char_traitsIcESaIcEEEEEEESaISE_EEEEE7destroyISH_EEvRSI_PT_
FN:486,_ZNSt16allocator_traitsISaINSt7__cxx1112basic_stringIcSt11char_traitsIcESaIcEEEEE7destroyIS5_EEvRS6_PT_
FN:486,_ZNSt16allocator_traitsISaISt13_Rb_tree_nodeISt4pairIKllEEEE7destroyIS3_EEvRS5_PT_
FN:486,_ZNSt16allocator_traitsISaINSt8__detail4_NFAINSt7__cxx1112regex_traitsIcEEEEEE7destroyIS5_EEvRS6_PT_
FN:486,_ZNSt16allocator_traitsISaISt13_Rb_tree_nodeISt4pairIKNSt7__cxx1112basic_stringIcSt11char_traitsIcESaIcEEES7_EEEE7destroyIS9_EEvRSB_PT_
FN:486,_ZNSt16allocator_traitsISaINSt8__detail9_StateSeqINSt7__cxx1112regex_traitsIcEEEEEE7destroyIS5_EEvRS6_PT_
FN:486,_ZNSt16allocator_traitsISaImEE7destroyImEEvRS0_PT_
FN:486,_ZNSt16allocator_traitsISaISt4pairIccEEE7destroyIS1_EEvRS2_PT_
FN:486,_ZNSt16allocator_traitsISaIcEE7destroyIcEEvRS0_PT_
FN:486,_ZNSt16allocator_traitsISaIlEE7destroyIlEEvRS0_PT_
FN:495,_ZNSt16allocator_traitsISaINSt7__cxx1112basic_stringIcSt11char_traitsIcESaIcEEEEE8max_sizeERKS6_
FN:495,_ZNSt16allocator_traitsISaINSt7__cxx1112regex_traitsIcE10_RegexMaskEEE8max_sizeERKS4_
FN:495,_ZNSt16allocator_traitsISaISt4pairIccEEE8max_sizeERKS2_
FN:495,_ZNSt16allocator_traitsISaISt4pairINSt7__cxx1112basic_stringIcSt11char_traitsIcESaIcEEES6_EEE8max_sizeERKS8_
FN:495,_ZNSt16allocator_traitsISaINSt8__detail6_StateIcEEEE8max_sizeERKS3_
FN:495,_ZNSt16allocator_traitsISaImEE8max_sizeERKS0_
FN:495,_ZNSt16allocator_traitsISaIcEE8max_sizeERKS0_
FN:495,_ZNSt16allocator_traitsISaINSt7__cxx119sub_matchIN9__gnu_cxx17__normal_iteratorIPKcNS0_12basic_stringIcSt11char_traitsIcESaIcEEEEEEEEE8max_sizeERKSD_
FN:495,_ZNSt16allocator_traitsISaISt4pairIlSt6vectorINSt7__cxx119sub_matchIN9__gnu_cxx17__normal_iteratorIPKcNS2_12basic_stringIcSt11char_traitsIcESaIcEEEEEEESaISE_EEEEE8max_sizeERKSI_
FN:504,_ZNSt16allocator_traitsISaINSt7__cxx1112regex_traitsIcE10_RegexMaskEEE37select_on_container_copy_constructionERKS4_
FN:504,_ZNSt16allocator_traitsISaISt4pairIccEEE37select_on_container_copy_constructionERKS2_
FN:504,_ZNSt16allocator_traitsISaISt4pairINSt7__cxx1112basic_stringIcSt11char_traitsIcESaIcEEES6_EEE37select_on_container_copy_constructionERKS8_
FN:504,_ZNSt16allocator_traitsISaINSt7__cxx1112basic_stringIcSt11char_traitsIcESaIcEEEEE37select_on_container_copy_constructionERKS6_
FN:504,_ZNSt16allocator_traitsISaINSt7__cxx119sub_matchIN9__gnu_cxx17__normal_iteratorIPKcNS0_12basic_stringIcSt11char_traitsIcESaIcEEEEEEEEE37select_on_container_copy_constructionERKSD_
FN:504,_ZNSt16allocator_traitsISaIcEE37select_on_container_copy_constructionERKS0_
FN:516,_ZSt18__do_alloc_on_copyISaINSt7__cxx119sub_matchIN9__gnu_cxx17__normal_iteratorIPKcNS0_12basic_stringIcSt11char_traitsIcESaIcEEEEEEEEEvRT_RKSE_St17integral_constantIbLb0EE
FN:520,_ZSt15__alloc_on_copyISaINSt7__cxx119sub_matchIN9__gnu_cxx17__normal_iteratorIPKcNS0_12basic_stringIcSt11char_traitsIcESaIcEEEEEEEEEvRT_RKSE_
FN:535,_ZSt18__do_alloc_on_moveISaINSt7__cxx119sub_matchIN9__gnu_cxx17__normal_iteratorIPKcNS0_12basic_stringIcSt11char_traitsIcESaIcEEEEEEEEEvRT_SF_St17integral_constantIbLb1EE
FN:543,_ZSt15__alloc_on_moveISaINSt7__cxx119sub_matchIN9__gnu_cxx17__normal_iteratorIPKcNS0_12basic_stringIcSt11char_traitsIcESaIcEEEEEEEEEvRT_SF_
FNDA:0,_ZNSt16allocator_traitsISaISt4pairINSt7__cxx1112basic_stringIcSt11char_traitsIcESaIcEEES6_EEE8allocateERS8_m
FNDA:0,_ZNSt16allocator_traitsISaISt4pairIccEEE8allocateERS2_m
FNDA:200,_ZNSt16allocator_traitsISaIPlEE8allocateERS1_m
FNDA:140,_ZNSt16allocator_traitsISaISt13_Rb_tree_nodeISt4pairIKllEEEE8allocateERS5_m
FNDA:0,_ZNSt16allocator_traitsISaINSt7__cxx1112regex_traitsIcE10_RegexMaskEEE8allocateERS4_m
FNDA:200,_ZNSt16allocator_traitsISaIlEE8allocateERS0_m
FNDA:11719,_ZNSt16allocator_traitsISaINSt8__detail6_StateIcEEEE8allocateERS3_m
FNDA:2327,_ZNSt16allocator_traitsISaINSt8__detail9_StateSeqINSt7__cxx1112regex_traitsIcEEEEEE8allocateERS6_m
FNDA:2327,_ZNSt16allocator_traitsISaISt23_Sp_counted_ptr_inplaceINSt8__detail4_NFAINSt7__cxx1112regex_traitsIcEEEESaIS6_ELN9__gnu_cxx12_Lock_policyE2EEEE8allocateERSB_m
FNDA:2327,_ZNSt16allocator_traitsISaIPNSt8__detail9_StateSeqINSt7__cxx1112regex_traitsIcEEEEEE8allocateERS7_m
FNDA:0,_ZNSt16allocator_traitsISaISt4pairIlSt6vectorINSt7__cxx119sub_matchIN9__gnu_cxx17__normal_iteratorIPKcNS2_12basic_stringIcSt11char_traitsIcESaIcEEEEEEESaISE_EEEEE8allocateERSI_m
FNDA:2343,_ZNSt16allocator_traitsISaImEE8allocateERS0_m
FNDA:9325,_ZNSt16allocator_traitsISaISt4pairIN9__gnu_cxx17__normal_iteratorIPKcNSt7__cxx1112basic_stringIcSt11char_traitsIcESaIcEEEEEiEEE8allocateERSD_m
FNDA:11691,_ZNSt16allocator_traitsISaINSt7__cxx119sub_matchIN9__gnu_cxx17__normal_iteratorIPKcNS0_12basic_stringIcSt11char_traitsIcESaIcEEEEEEEEE8allocateERSD_m
FNDA:288,_ZNSt16allocator_traitsISaISt13_Rb_tree_nodeISt4pairIKNSt7__cxx1112basic_stringIcSt11char_traitsIcESaIcEEES7_EEEE8allocateERSB_m
FNDA:2116,_ZNSt16allocator_traitsISaINSt7__cxx1112basic_stringIcSt11char_traitsIcESaIcEEEEE8allocateERS6_m
FNDA:602311,_ZNSt16allocator_traitsISaIcEE8allocateERS0_m
FNDA:140,_ZNSt16allocator_traitsISaISt13_Rb_tree_nodeISt4pairIKllEEEE10deallocateERS5_PS4_m
FNDA:200,_ZNSt16allocator_traitsISaIlEE10deallocateERS0_Plm
FNDA:0,_ZNSt16allocator_traitsISaISt4pairINSt7__cxx1112basic_stringIcSt11char_traitsIcESaIcEEES6_EEE10deallocateERS8_PS7_m
FNDA:0,_ZNSt16allocator_traitsISaINSt7__cxx1112regex_traitsIcE10_RegexMaskEEE10deallocateERS4_PS3_m
FNDA:0,_ZNSt16allocator_traitsISaISt4pairIccEEE10deallocateERS2_PS1_m
FNDA:200,_ZNSt16allocator_traitsISaIPlEE10deallocateERS1_PS0_m
FNDA:11719,_ZNSt16allocator_traitsISaINSt8__detail6_StateIcEEEE10deallocateERS3_PS2_m
FNDA:2327,_ZNSt16allocator_traitsISaISt23_Sp_counted_ptr_inplaceINSt8__detail4_NFAINSt7__cxx1112regex_traitsIcEEEESaIS6_ELN9__gnu_cxx12_Lock_policyE2EEEE10deallocateERSB_PSA_m
FNDA:2327,_ZNSt16allocator_traitsISaINSt8__detail9_StateSeqINSt7__cxx1112regex_traitsIcEEEEEE10deallocateERS6_PS5_m
FNDA:2327,_ZNSt16allocator_traitsISaIPNSt8__detail9_StateSeqINSt7__cxx1112regex_traitsIcEEEEEE10deallocateERS7_PS6_m
FNDA:0,_ZNSt16allocator_traitsISaISt4pairIlSt6vectorINSt7__cxx119sub_matchIN9__gnu_cxx17__normal_iteratorIPKcNS2_12basic_stringIcSt11char_traitsIcESaIcEEEEEEESaISE_EEEEE10deallocateERSI_PSH_m
FNDA:9325,_ZNSt16allocator_traitsISaISt4pairIN9__gnu_cxx17__normal_iteratorIPKcNSt7__cxx1112basic_stringIcSt11char_traitsIcESaIcEEEEEiEEE10deallocateERSD_PSC_m
FNDA:288,_ZNSt16allocator_traitsISaISt13_Rb_tree_nodeISt4pairIKNSt7__cxx1112basic_stringIcSt11char_traitsIcESaIcEEES7_EEEE10deallocateERSB_PSA_m
FNDA:11691,_ZNSt16allocator_traitsISaINSt7__cxx119sub_matchIN9__gnu_cxx17__normal_iteratorIPKcNS0_12basic_stringIcSt11char_traitsIcESaIcEEEEEEEEE10deallocateERSD_PSC_m
FNDA:2114,_ZNSt16allocator_traitsISaINSt7__cxx1112basic_stringIcSt11char_traitsIcESaIcEEEEE10deallocateERS6_PS5_m
FNDA:2343,_ZNSt16allocator_traitsISaImEE10deallocateERS0_Pmm
FNDA:602311,_ZNSt16allocator_traitsISaIcEE10deallocateERS0_Pcm
FNDA:0,_ZNSt16allocator_traitsISaISt4pairINSt7__cxx1112basic_stringIcSt11char_traitsIcESaIcEEES6_EEE9constructIS7_JS7_EEEvRS8_PT_DpOT0_
FNDA:0,_ZNSt16allocator_traitsISaISt4pairIccEEE9constructIS1_JS1_EEEvRS2_PT_DpOT0_
FNDA:140,_ZNSt16allocator_traitsISaISt13_Rb_tree_nodeISt4pairIKllEEEE9constructIS3_JRKSt21piecewise_construct_tSt5tupleIJRS2_EESB_IJEEEEEvRS5_PT_DpOT0_
FNDA:18392,_ZNSt16allocator_traitsISaIcEE9constructIcJcEEEvRS0_PT_DpOT0_
FNDA:0,_ZNSt16allocator_traitsISaINSt7__cxx1112regex_traitsIcE10_RegexMaskEEE9constructIS3_JRKS3_EEEvRS4_PT_DpOT0_
FNDA:220,_ZNSt16allocator_traitsISaIlEE9constructIlJRKlEEEvRS0_PT_DpOT0_
FNDA:2327,_ZNSt16allocator_traitsISaINSt8__detail4_NFAINSt7__cxx1112regex_traitsIcEEEEEE9constructIS5_JRKSt6localeRNSt15regex_constants18syntax_option_typeEEEEvRS6_PT_DpOT0_
FNDA:20812,_ZNSt16allocator_traitsISaINSt8__detail9_StateSeqINSt7__cxx1112regex_traitsIcEEEEEE9constructIS5_JS5_EEEvRS6_PT_DpOT0_
FNDA:12925,_ZNSt16allocator_traitsISaINSt8__detail9_StateSeqINSt7__cxx1112regex_traitsIcEEEEEE9constructIS5_JRKS5_EEEvRS6_PT_DpOT0_
FNDA:31244,_ZNSt16allocator_traitsISaINSt8__detail6_StateIcEEEE9constructIS2_JS2_EEEvRS3_PT_DpOT0_
FNDA:0,_ZNSt16allocator_traitsISaISt4pairIlSt6vectorINSt7__cxx119sub_matchIN9__gnu_cxx17__normal_iteratorIPKcNS2_12basic_stringIcSt11char_traitsIcESaIcEEEEEEESaISE_EEEEE9constructISH_JRlRKSG_EEEvRSI_PT_DpOT0_
FNDA:2421,_ZNSt16allocator_traitsISaImEE9constructImJRKmEEEvRS0_PT_DpOT0_
FNDA:12,_ZNSt16allocator_traitsISaISt13_Rb_tree_nodeISt4pairIKNSt7__cxx1112basic_stringIcSt11char_traitsIcESaIcEEES7_EEEE9constructIS9_JRA3_KcRA27_SE_EEEvRSB_PT_DpOT0_
FNDA:12,_ZNSt16allocator_traitsISaISt13_Rb_tree_nodeISt4pairIKNSt7__cxx1112basic_stringIcSt11char_traitsIcESaIcEEES7_EEEE9constructIS9_JRA3_KcRA29_SE_EEEvRSB_PT_DpOT0_
FNDA:12,_ZNSt16allocator_traitsISaISt13_Rb_tree_nodeISt4pairIKNSt7__cxx1112basic_stringIcSt11char_traitsIcESaIcEEES7_EEEE9constructIS9_JRA3_KcRA24_SE_EEEvRSB_PT_DpOT0_
FNDA:12,_ZNSt16allocator_traitsISaISt13_Rb_tree_nodeISt4pairIKNSt7__cxx1112basic_stringIcSt11char_traitsIcESaIcEEES7_EEEE9constructIS9_JRA3_KcRA10_SE_EEEvRSB_PT_DpOT0_
FNDA:60,_ZNSt16allocator_traitsISaISt13_Rb_tree_nodeISt4pairIKNSt7__cxx1112basic_stringIcSt11char_traitsIcESaIcEEES7_EEEE9constructIS9_JRA3_KcRA8_SE_EEEvRSB_PT_DpOT0_
FNDA:12,_ZNSt16allocator_traitsISaISt13_Rb_tree_nodeISt4pairIKNSt7__cxx1112basic_stringIcSt11char_traitsIcESaIcEEES7_EEEE9constructIS9_JRA3_KcRA9_SE_EEEvRSB_PT_DpOT0_
FNDA:12,_ZNSt16allocator_traitsISaISt13_Rb_tree_nodeISt4pairIKNSt7__cxx1112basic_stringIcSt11char_traitsIcESaIcEEES7_EEEE9constructIS9_JRA3_KcRA11_SE_EEEvRSB_PT_DpOT0_
FNDA:48,_ZNSt16allocator_traitsISaISt13_Rb_tree_nodeISt4pairIKNSt7__cxx1112basic_stringIcSt11char_traitsIcESaIcEEES7_EEEE9constructIS9_JRA3_KcRA_SE_EEEvRSB_PT_DpOT0_
FNDA:48,_ZNSt16allocator_traitsISaISt13_Rb_tree_nodeISt4pairIKNSt7__cxx1112basic_stringIcSt11char_traitsIcESaIcEEES7_EEEE9constructIS9_JRA4_KcRA18_SE_EEEvRSB_PT_DpOT0_
FNDA:48,_ZNSt16allocator_traitsISaISt13_Rb_tree_nodeISt4pairIKNSt7__cxx1112basic_stringIcSt11char_traitsIcESaIcEEES7_EEEE9constructIS9_JRA4_KcSG_EEEvRSB_PT_DpOT0_
FNDA:12,_ZNSt16allocator_traitsISaISt13_Rb_tree_nodeISt4pairIKNSt7__cxx1112basic_stringIcSt11char_traitsIcESaIcEEES7_EEEE9constructIS9_JRA3_KcRA2_SE_EEEvRSB_PT_DpOT0_
FNDA:74,_ZNSt16allocator_traitsISaINSt7__cxx1112basic_stringIcSt11char_traitsIcESaIcEEEEE9constructIS5_JRKS5_EEEvRS6_PT_DpOT0_
FNDA:2327,_ZNSt16allocator_traitsISaINSt8__detail4_NFAINSt7__cxx1112regex_traitsIcEEEEEE7destroyIS5_EEvRS6_PT_
FNDA:0,_ZNSt16allocator_traitsISaISt4pairINSt7__cxx1112basic_stringIcSt11char_traitsIcESaIcEEES6_EEE7destroyIS7_EEvRS8_PT_
FNDA:0,_ZNSt16allocator_traitsISaISt4pairIccEEE7destroyIS1_EEvRS2_PT_
FNDA:0,_ZNSt16allocator_traitsISaIcEE7destroyIcEEvRS0_PT_
FNDA:140,_ZNSt16allocator_traitsISaISt13_Rb_tree_nodeISt4pairIKllEEEE7destroyIS3_EEvRS5_PT_
FNDA:0,_ZNSt16allocator_traitsISaINSt7__cxx1112regex_traitsIcE10_RegexMaskEEE7destroyIS3_EEvRS4_PT_
FNDA:220,_ZNSt16allocator_traitsISaIlEE7destroyIlEEvRS0_PT_
FNDA:0,_ZNSt16allocator_traitsISaINSt8__detail6_StateIcEEEE7destroyIS2_EEvRS3_PT_
FNDA:0,_ZNSt16allocator_traitsISaISt4pairIlSt6vectorINSt7__cxx119sub_matchIN9__gnu_cxx17__normal_iteratorIPKcNS2_12basic_stringIcSt11char_traitsIcESaIcEEEEEEESaISE_EEEEE7destroyISH_EEvRSI_PT_
FNDA:33737,_ZNSt16allocator_traitsISaINSt8__detail9_StateSeqINSt7__cxx1112regex_traitsIcEEEEEE7destroyIS5_EEvRS6_PT_
FNDA:2421,_ZNSt16allocator_traitsISaImEE7destroyImEEvRS0_PT_
FNDA:288,_ZNSt16allocator_traitsISaISt13_Rb_tree_nodeISt4pairIKNSt7__cxx1112basic_stringIcSt11char_traitsIcESaIcEEES7_EEEE7destroyIS9_EEvRSB_PT_
FNDA:0,_ZNSt16allocator_traitsISaINSt7__cxx1112basic_stringIcSt11char_traitsIcESaIcEEEEE7destroyIS5_EEvRS6_PT_
FNDA:0,_ZNSt16allocator_traitsISaISt4pairINSt7__cxx1112basic_stringIcSt11char_traitsIcESaIcEEES6_EEE8max_sizeERKS8_
FNDA:0,_ZNSt16allocator_traitsISaISt4pairIccEEE8max_sizeERKS2_
FNDA:0,_ZNSt16allocator_traitsISaINSt7__cxx1112regex_traitsIcE10_RegexMaskEEE8max_sizeERKS4_
FNDA:23438,_ZNSt16allocator_traitsISaINSt8__detail6_StateIcEEEE8max_sizeERKS3_
FNDA:0,_ZNSt16allocator_traitsISaISt4pairIlSt6vectorINSt7__cxx119sub_matchIN9__gnu_cxx17__normal_iteratorIPKcNS2_12basic_stringIcSt11char_traitsIcESaIcEEEEEEESaISE_EEEEE8max_sizeERKSI_
FNDA:4686,_ZNSt16allocator_traitsISaImEE8max_sizeERKS0_
FNDA:4732,_ZNSt16allocator_traitsISaINSt7__cxx119sub_matchIN9__gnu_cxx17__normal_iteratorIPKcNS0_12basic_stringIcSt11char_traitsIcESaIcEEEEEEEEE8max_sizeERKSD_
FNDA:100,_ZNSt16allocator_traitsISaINSt7__cxx1112basic_stringIcSt11char_traitsIcESaIcEEEEE8max_sizeERKS6_
FNDA:18392,_ZNSt16allocator_traitsISaIcEE8max_sizeERKS0_
FNDA:0,_ZNSt16allocator_traitsISaISt4pairINSt7__cxx1112basic_stringIcSt11char_traitsIcESaIcEEES6_EEE37select_on_container_copy_constructionERKS8_
FNDA:2807,_ZNSt16allocator_traitsISaINSt7__cxx1112regex_traitsIcE10_RegexMaskEEE37select_on_container_copy_constructionERKS4_
FNDA:2807,_ZNSt16allocator_traitsISaISt4pairIccEEE37select_on_container_copy_constructionERKS2_
FNDA:2807,_ZNSt16allocator_traitsISaINSt7__cxx1112basic_stringIcSt11char_traitsIcESaIcEEEEE37select_on_container_copy_constructionERKS6_
FNDA:0,_ZNSt16allocator_traitsISaINSt7__cxx119sub_matchIN9__gnu_cxx17__normal_iteratorIPKcNS0_12basic_stringIcSt11char_traitsIcESaIcEEEEEEEEE37select_on_container_copy_constructionERKSD_
FNDA:2807,_ZNSt16allocator_traitsISaIcEE37select_on_container_copy_constructionERKS0_
FNDA:0,_ZSt18__do_alloc_on_copyISaINSt7__cxx119sub_matchIN9__gnu_cxx17__normal_iteratorIPKcNS0_12basic_stringIcSt11char_traitsIcESaIcEEEEEEEEEvRT_RKSE_St17integral_constantIbLb0EE
FNDA:0,_ZSt15__alloc_on_copyISaINSt7__cxx119sub_matchIN9__gnu_cxx17__normal_iteratorIPKcNS0_12basic_stringIcSt11char_traitsIcESaIcEEEEEEEEEvRT_RKSE_
FNDA:0,_ZSt18__do_alloc_on_moveISaINSt7__cxx119sub_matchIN9__gnu_cxx17__normal_iteratorIPKcNS0_12basic_stringIcSt11char_traitsIcESaIcEEEEEEEEEvRT_SF_St17integral_constantIbLb1EE
FNDA:0,_ZSt15__alloc_on_moveISaINSt7__cxx119sub_matchIN9__gnu_cxx17__normal_iteratorIPKcNS0_12basic_stringIcSt11char_traitsIcESaIcEEEEEEEEEvRT_SF_
FNF:90
FNH:61
DA:435,647314
DA:436,647314
DA:461,647312
DA:462,647312
DA:474,88843
DA:475,88843
DA:486,39133
DA:487,39133
DA:495,51348
DA:496,51348
DA:504,11228
DA:505,11228
DA:516,0
DA:517,0
DA:520,0
DA:524,0
DA:525,0
DA:535,0
DA:536,0
DA:543,0
DA:547,0
DA:548,0
LF:22
LH:12
end_of_record
SF:/usr/include/c++/7/bits/allocated_ptr.h
FN:52,_ZNSt15__allocated_ptrISaISt23_Sp_counted_ptr_inplaceINSt8__detail4_NFAINSt7__cxx1112regex_traitsIcEEEESaIS6_ELN9__gnu_cxx12_Lock_policyE2EEEEC2ERSB_PSA_
FN:70,_ZNSt15__allocated_ptrISaISt23_Sp_counted_ptr_inplaceINSt8__detail4_NFAINSt7__cxx1112regex_traitsIcEEEESaIS6_ELN9__gnu_cxx12_Lock_policyE2EEEED2Ev
FN:78,_ZNSt15__allocated_ptrISaISt23_Sp_counted_ptr_inplaceINSt8__detail4_NFAINSt7__cxx1112regex_traitsIcEEEESaIS6_ELN9__gnu_cxx12_Lock_policyE2EEEEaSEDn
FN:85,_ZNSt15__allocated_ptrISaISt23_Sp_counted_ptr_inplaceINSt8__detail4_NFAINSt7__cxx1112regex_traitsIcEEEESaIS6_ELN9__gnu_cxx12_Lock_policyE2EEEE3getEv
FN:88,_ZNSt15__allocated_ptrISaISt23_Sp_counted_ptr_inplaceINSt8__detail4_NFAINSt7__cxx1112regex_traitsIcEEEESaIS6_ELN9__gnu_cxx12_Lock_policyE2EEEE10_S_raw_ptrEPSA_
FN:102,_ZSt18__allocate_guardedISaISt23_Sp_counted_ptr_inplaceINSt8__detail4_NFAINSt7__cxx1112regex_traitsIcEEEESaIS6_ELN9__gnu_cxx12_Lock_policyE2EEEESt15__allocated_ptrIT_ERSD_
FNDA:4654,_ZNSt15__allocated_ptrISaISt23_Sp_counted_ptr_inplaceINSt8__detail4_NFAINSt7__cxx1112regex_traitsIcEEEESaIS6_ELN9__gnu_cxx12_Lock_policyE2EEEEC2ERSB_PSA_
FNDA:4654,_ZNSt15__allocated_ptrISaISt23_Sp_counted_ptr_inplaceINSt8__detail4_NFAINSt7__cxx1112regex_traitsIcEEEESaIS6_ELN9__gnu_cxx12_Lock_policyE2EEEED2Ev
FNDA:2327,_ZNSt15__allocated_ptrISaISt23_Sp_counted_ptr_inplaceINSt8__detail4_NFAINSt7__cxx1112regex_traitsIcEEEESaIS6_ELN9__gnu_cxx12_Lock_policyE2EEEEaSEDn
FNDA:2327,_ZNSt15__allocated_ptrISaISt23_Sp_counted_ptr_inplaceINSt8__detail4_NFAINSt7__cxx1112regex_traitsIcEEEESaIS6_ELN9__gnu_cxx12_Lock_policyE2EEEE3getEv
FNDA:2327,_ZNSt15__allocated_ptrISaISt23_Sp_counted_ptr_inplaceINSt8__detail4_NFAINSt7__cxx1112regex_traitsIcEEEESaIS6_ELN9__gnu_cxx12_Lock_policyE2EEEE10_S_raw_ptrEPSA_
FNDA:2327,_ZSt18__allocate_guardedISaISt23_Sp_counted_ptr_inplaceINSt8__detail4_NFAINSt7__cxx1112regex_traitsIcEEEESaIS6_ELN9__gnu_cxx12_Lock_policyE2EEEESt15__allocated_ptrIT_ERSD_
FNF:6
FNH:6
DA:52,4654
DA:53,4654
DA:54,4654
DA:70,4654
DA:72,4654
DA:73,2327
DA:74,4654
DA:78,2327
DA:80,2327
DA:81,2327
DA:85,2327
DA:88,2327
DA:102,2327
DA:104,2327
LF:14
LH:14
end_of_record
SF:/usr/include/c++/7/bits/allocator.h
FN:131,_ZNSaISt4pairIccEEC2Ev
FN:131,_ZNSaINSt7__cxx1112basic_stringIcSt11char_traitsIcESaIcEEEEC2Ev
FN:131,_ZNSaINSt7__cxx1112regex_traitsIcE10_RegexMaskEEC2Ev
FN:131,_ZNSaISt4pairIlSt6vectorINSt7__cxx119sub_matchIN9__gnu_cxx17__normal_iteratorIPKcNS1_12basic_stringIcSt11char_traitsIcESaIcEEEEEEESaISD_EEEEC2Ev
FN:131,_ZNSaISt13_Rb_tree_nodeISt4pairIKllEEEC2Ev
FN:131,_ZNSaINSt8__detail6_StateIcEEEC2Ev
FN:131,_ZNSaINSt8__detail4_NFAINSt7__cxx1112regex_traitsIcEEEEEC2Ev
FN:131,_ZNSaISt13_Rb_tree_nodeISt4pairIKNSt7__cxx1112basic_stringIcSt11char_traitsIcESaIcEEES6_EEEC2Ev
FN:131,_ZNSaIlEC2Ev
FN:131,_ZNSaINSt7__cxx119sub_matchIN9__gnu_cxx17__normal_iteratorIPKcNS_12basic_stringIcSt11char_traitsIcESaIcEEEEEEEEC2Ev
FN:131,_ZNSaISt4pairIN9__gnu_cxx17__normal_iteratorIPKcNSt7__cxx1112basic_stringIcSt11char_traitsIcESaIcEEEEEiEEC2Ev
FN:131,_ZNSaINSt8__detail9_StateSeqINSt7__cxx1112regex_traitsIcEEEEEC2Ev
FN:131,_ZNSaISt4pairINSt7__cxx1112basic_stringIcSt11char_traitsIcESaIcEEES5_EEC2Ev
FN:131,_ZNSaImEC2Ev
FN:133,_ZNSaISt4pairIN9__gnu_cxx17__normal_iteratorIPKcNSt7__cxx1112basic_stringIcSt11char_traitsIcESaIcEEEEEiEEC2ERKSC_
FN:133,_ZNSaISt4pairIlSt6vectorINSt7__cxx119sub_matchIN9__gnu_cxx17__normal_iteratorIPKcNS1_12basic_stringIcSt11char_traitsIcESaIcEEEEEEESaISD_EEEEC2ERKSH_
FN:133,_ZNSaINSt7__cxx1112basic_stringIcSt11char_traitsIcESaIcEEEEC2ERKS5_
FN:133,_ZNSaISt4pairIccEEC2ERKS1_
FN:133,_ZNSaISt4pairINSt7__cxx1112basic_stringIcSt11char_traitsIcESaIcEEES5_EEC2ERKS7_
FN:133,_ZNSaINSt7__cxx119sub_matchIN9__gnu_cxx17__normal_iteratorIPKcNS_12basic_stringIcSt11char_traitsIcESaIcEEEEEEEEC2ERKSC_
FN:133,_ZNSaINSt8__detail4_NFAINSt7__cxx1112regex_traitsIcEEEEEC2ERKS5_
FN:133,_ZNSaINSt7__cxx1112regex_traitsIcE10_RegexMaskEEC2ERKS3_
FN:137,_ZNSaISt23_Sp_counted_ptr_inplaceINSt8__detail4_NFAINSt7__cxx1112regex_traitsIcEEEESaIS5_ELN9__gnu_cxx12_Lock_policyE2EEEC2IS5_EERKSaIT_E
FN:137,_ZNSaIPNSt8__detail9_StateSeqINSt7__cxx1112regex_traitsIcEEEEEC2IS4_EERKSaIT_E
FN:137,_ZNSaIPlEC2IlEERKSaIT_E
FN:139,_ZNSaINSt8__detail9_StateSeqINSt7__cxx1112regex_traitsIcEEEEED2Ev
FN:139,_ZNSaINSt8__detail6_StateIcEEED2Ev
FN:139,_ZNSaISt4pairIlSt6vectorINSt7__cxx119sub_matchIN9__gnu_cxx17__normal_iteratorIPKcNS1_12basic_stringIcSt11char_traitsIcESaIcEEEEEEESaISD_EEEED2Ev
FN:139,_ZNSaISt4pairIccEED2Ev
FN:139,_ZNSaISt4pairIN9__gnu_cxx17__normal_iteratorIPKcNSt7__cxx1112basic_stringIcSt11char_traitsIcESaIcEEEEEiEED2Ev
FN:139,_ZNSaINSt7__cxx1112regex_traitsIcE10_RegexMaskEED2Ev
FN:139,_ZNSaIPlED2Ev
FN:139,_ZNSaImED2Ev
FN:139,_ZNSaISt4pairINSt7__cxx1112basic_stringIcSt11char_traitsIcESaIcEEES5_EED2Ev
FN:139,_ZNSaIPNSt8__detail9_StateSeqINSt7__cxx1112regex_traitsIcEEEEED2Ev
FN:139,_ZNSaINSt7__cxx1112basic_stringIcSt11char_traitsIcESaIcEEEED2Ev
FN:139,_ZNSaIlED2Ev
FN:139,_ZNSaINSt8__detail4_NFAINSt7__cxx1112regex_traitsIcEEEEED2Ev
FN:139,_ZNSaISt13_Rb_tree_nodeISt4pairIKNSt7__cxx1112basic_stringIcSt11char_traitsIcESaIcEEES6_EEED2Ev
FN:139,_ZNSaISt23_Sp_counted_ptr_inplaceINSt8__detail4_NFAINSt7__cxx1112regex_traitsIcEEEESaIS5_ELN9__gnu_cxx12_Lock_policyE2EEED2Ev
FN:139,_ZNSaISt13_Rb_tree_nodeISt4pairIKllEEED2Ev
FN:139,_ZNSaINSt7__cxx119sub_matchIN9__gnu_cxx17__normal_iteratorIPKcNS_12basic_stringIcSt11char_traitsIcESaIcEEEEEEEED2Ev
FN:164,_ZStneINSt7__cxx119sub_matchIN9__gnu_cxx17__normal_iteratorIPKcNS0_12basic_stringIcSt11char_traitsIcESaIcEEEEEEEEbRKSaIT_ESG_
FNDA:2327,_ZNSaINSt8__detail6_StateIcEEEC2Ev
FNDA:0,_ZNSaISt4pairINSt7__cxx1112basic_stringIcSt11char_traitsIcESaIcEEES5_EEC2Ev
FNDA:2383,_ZNSaINSt7__cxx1112regex_traitsIcE10_RegexMaskEEC2Ev
FNDA:2383,_ZNSaISt4pairIccEEC2Ev
FNDA:200,_ZNSaIlEC2Ev
FNDA:140,_ZNSaISt13_Rb_tree_nodeISt4pairIKllEEEC2Ev
FNDA:2327,_ZNSaINSt8__detail9_StateSeqINSt7__cxx1112regex_traitsIcEEEEEC2Ev
FNDA:0,_ZNSaISt4pairIlSt6vectorINSt7__cxx119sub_matchIN9__gnu_cxx17__normal_iteratorIPKcNS1_12basic_stringIcSt11char_traitsIcESaIcEEEEEEESaISD_EEEEC2Ev
FNDA:2327,_ZNSaINSt8__detail4_NFAINSt7__cxx1112regex_traitsIcEEEEEC2Ev
FNDA:4463,_ZNSaINSt7__cxx1112basic_stringIcSt11char_traitsIcESaIcEEEEC2Ev
FNDA:9325,_ZNSaISt4pairIN9__gnu_cxx17__normal_iteratorIPKcNSt7__cxx1112basic_stringIcSt11char_traitsIcESaIcEEEEEiEEC2Ev
FNDA:2327,_ZNSaImEC2Ev
FNDA:12,_ZNSaISt13_Rb_tree_nodeISt4pairIKNSt7__cxx1112basic_stringIcSt11char_traitsIcESaIcEEES6_EEEC2Ev
FNDA:11679,_ZNSaINSt7__cxx119sub_matchIN9__gnu_cxx17__normal_iteratorIPKcNS_12basic_stringIcSt11char_traitsIcESaIcEEEEEEEEC2Ev
FNDA:0,_ZNSaISt4pairINSt7__cxx1112basic_stringIcSt11char_traitsIcESaIcEEES5_EEC2ERKS7_
FNDA:10380,_ZNSaINSt7__cxx1112regex_traitsIcE10_RegexMaskEEC2ERKS3_
FNDA:10380,_ZNSaISt4pairIccEEC2ERKS1_
FNDA:12446,_ZNSaINSt7__cxx1112basic_stringIcSt11char_traitsIcESaIcEEEEC2ERKS5_
FNDA:6981,_ZNSaINSt8__detail4_NFAINSt7__cxx1112regex_traitsIcEEEEEC2ERKS5_
FNDA:0,_ZNSaISt4pairIlSt6vectorINSt7__cxx119sub_matchIN9__gnu_cxx17__normal_iteratorIPKcNS1_12basic_stringIcSt11char_traitsIcESaIcEEEEEEESaISD_EEEEC2ERKSH_
FNDA:9325,_ZNSaISt4pairIN9__gnu_cxx17__normal_iteratorIPKcNSt7__cxx1112basic_stringIcSt11char_traitsIcESaIcEEEEEiEEC2ERKSC_
FNDA:2354,_ZNSaINSt7__cxx119sub_matchIN9__gnu_cxx17__normal_iteratorIPKcNS_12basic_stringIcSt11char_traitsIcESaIcEEEEEEEEC2ERKSC_
FNDA:400,_ZNSaIPlEC2IlEERKSaIT_E
FNDA:4654,_ZNSaISt23_Sp_counted_ptr_inplaceINSt8__detail4_NFAINSt7__cxx1112regex_traitsIcEEEESaIS5_ELN9__gnu_cxx12_Lock_policyE2EEEC2IS5_EERKSaIT_E
FNDA:4654,_ZNSaIPNSt8__detail9_StateSeqINSt7__cxx1112regex_traitsIcEEEEEC2IS4_EERKSaIT_E
FNDA:2327,_ZNSaINSt8__detail6_StateIcEEED2Ev
FNDA:400,_ZNSaIPlED2Ev
FNDA:0,_ZNSaISt4pairINSt7__cxx1112basic_stringIcSt11char_traitsIcESaIcEEES5_EED2Ev
FNDA:12763,_ZNSaINSt7__cxx1112regex_traitsIcE10_RegexMaskEED2Ev
FNDA:12763,_ZNSaISt4pairIccEED2Ev
FNDA:200,_ZNSaIlED2Ev
FNDA:140,_ZNSaISt13_Rb_tree_nodeISt4pairIKllEEED2Ev
FNDA:4654,_ZNSaISt23_Sp_counted_ptr_inplaceINSt8__detail4_NFAINSt7__cxx1112regex_traitsIcEEEESaIS5_ELN9__gnu_cxx12_Lock_policyE2EEED2Ev
FNDA:4654,_ZNSaIPNSt8__detail9_StateSeqINSt7__cxx1112regex_traitsIcEEEEED2Ev
FNDA:2327,_ZNSaINSt8__detail9_StateSeqINSt7__cxx1112regex_traitsIcEEEEED2Ev
FNDA:9308,_ZNSaINSt8__detail4_NFAINSt7__cxx1112regex_traitsIcEEEEED2Ev
FNDA:0,_ZNSaISt4pairIlSt6vectorINSt7__cxx119sub_matchIN9__gnu_cxx17__normal_iteratorIPKcNS1_12basic_stringIcSt11char_traitsIcESaIcEEEEEEESaISD_EEEED2Ev
FNDA:18650,_ZNSaISt4pairIN9__gnu_cxx17__normal_iteratorIPKcNSt7__cxx1112basic_stringIcSt11char_traitsIcESaIcEEEEEiEED2Ev
FNDA:16907,_ZNSaINSt7__cxx1112basic_stringIcSt11char_traitsIcESaIcEEEED2Ev
FNDA:2327,_ZNSaImED2Ev
FNDA:12,_ZNSaISt13_Rb_tree_nodeISt4pairIKNSt7__cxx1112basic_stringIcSt11char_traitsIcESaIcEEES6_EEED2Ev
FNDA:14033,_ZNSaINSt7__cxx119sub_matchIN9__gnu_cxx17__normal_iteratorIPKcNS_12basic_stringIcSt11char_traitsIcESaIcEEEEEEEED2Ev
FNDA:0,_ZStneINSt7__cxx119sub_matchIN9__gnu_cxx17__normal_iteratorIPKcNS0_12basic_stringIcSt11char_traitsIcESaIcEEEEEEEEbRKSaIT_ESG_
FNF:43
FNH:36
DA:131,39893
DA:133,51866
DA:134,51866
DA:137,9708
DA:139,101465
DA:164,0
DA:166,0
LF:7
LH:5
end_of_record
SF:/usr/include/c++/7/bits/basic_string.h
FN:139,_ZNSt7__cxx1112basic_stringIcSt11char_traitsIcESaIcEE12_Alloc_hiderD2Ev
FN:232,_ZNSt7__cxx1112basic_stringIcSt11char_traitsIcESaIcEE16_M_construct_auxIN9__gnu_cxx17__normal_iteratorIPKcS4_EEEEvT_SB_St12__false_type
FN:232,_ZNSt7__cxx1112basic_stringIcSt11char_traitsIcESaIcEE16_M_construct_auxIPcEEvT_S7_St12__false_type
FN:232,_ZNSt7__cxx1112basic_stringIcSt11char_traitsIcESaIcEE16_M_construct_auxIN9__gnu_cxx17__normal_iteratorIPcS4_EEEEvT_SA_St12__false_type
FN:252,_ZNSt7__cxx1112basic_stringIcSt11char_traitsIcESaIcEE12_M_constructIN9__gnu_cxx17__normal_iteratorIPcS4_EEEEvT_SA_
FN:252,_ZNSt7__cxx1112basic_stringIcSt11char_traitsIcESaIcEE12_M_constructIN9__gnu_cxx17__normal_iteratorIPKcS4_EEEEvT_SB_
FN:252,_ZNSt7__cxx1112basic_stringIcSt11char_traitsIcESaIcEE12_M_constructIPcEEvT_S7_
FN:604,_ZNSt7__cxx1112basic_stringIcSt11char_traitsIcESaIcEEC2IN9__gnu_cxx17__normal_iteratorIPcS4_EEvEET_SA_RKS3_
FN:604,_ZNSt7__cxx1112basic_stringIcSt11char_traitsIcESaIcEEC2IPcvEET_S7_RKS3_
FN:604,_ZNSt7__cxx1112basic_stringIcSt11char_traitsIcESaIcEEC2IN9__gnu_cxx17__normal_iteratorIPKcS4_EEvEET_SB_RKS3_
FN:6005,_ZSteqIcEN9__gnu_cxx11__enable_ifIXsrSt9__is_charIT_E7__valueEbE6__typeERKNSt7__cxx1112basic_stringIS3_St11char_traitsIS3_ESaIS3_EEESE_
FN:6031,_ZSteqIcSt11char_traitsIcESaIcEEbRKNSt7__cxx1112basic_stringIT_T0_T1_EEPKS5_
FN:6082,_ZStltIcSt11char_traitsIcESaIcEEbRKNSt7__cxx1112basic_stringIT_T0_T1_EESA_
FN:6158,_ZStleIcSt11char_traitsIcESaIcEEbRKNSt7__cxx1112basic_stringIT_T0_T1_EESA_
FN:6359,_ZNSt7__cxx114stoiERKNS_12basic_stringIcSt11char_traitsIcESaIcEEEPmi
FN:6364,_ZNSt7__cxx114stolERKNS_12basic_stringIcSt11char_traitsIcESaIcEEEPmi
FN:6393,_ZNSt7__cxx115stoldERKNS_12basic_stringIcSt11char_traitsIcESaIcEEEPm
FNDA:0,_ZNSt7__cxx1112basic_stringIcSt11char_traitsIcESaIcEE12_Alloc_hiderD2Ev
FNDA:0,_ZNSt7__cxx1112basic_stringIcSt11char_traitsIcESaIcEE16_M_construct_auxIN9__gnu_cxx17__normal_iteratorIPcS4_EEEEvT_SA_St12__false_type
FNDA:37495,_ZNSt7__cxx1112basic_stringIcSt11char_traitsIcESaIcEE16_M_construct_auxIN9__gnu_cxx17__normal_iteratorIPKcS4_EEEEvT_SB_St12__false_type
FNDA:0,_ZNSt7__cxx1112basic_stringIcSt11char_traitsIcESaIcEE16_M_construct_auxIPcEEvT_S7_St12__false_type
FNDA:0,_ZNSt7__cxx1112basic_stringIcSt11char_traitsIcESaIcEE12_M_constructIN9__gnu_cxx17__normal_iteratorIPcS4_EEEEvT_SA_
FNDA:37495,_ZNSt7__cxx1112basic_stringIcSt11char_traitsIcESaIcEE12_M_constructIN9__gnu_cxx17__normal_iteratorIPKcS4_EEEEvT_SB_
FNDA:0,_ZNSt7__cxx1112basic_stringIcSt11char_traitsIcESaIcEE12_M_constructIPcEEvT_S7_
FNDA:0,_ZNSt7__cxx1112basic_stringIcSt11char_traitsIcESaIcEEC2IN9__gnu_cxx17__normal_iteratorIPcS4_EEvEET_SA_RKS3_
FNDA:0,_ZNSt7__cxx1112basic_stringIcSt11char_traitsIcESaIcEEC2IPcvEET_S7_RKS3_
FNDA:37495,_ZNSt7__cxx1112basic_stringIcSt11char_traitsIcESaIcEEC2IN9__gnu_cxx17__normal_iteratorIPKcS4_EEvEET_SB_RKS3_
FNDA:0,_ZSteqIcEN9__gnu_cxx11__enable_ifIXsrSt9__is_charIT_E7__valueEbE6__typeERKNSt7__cxx1112basic_stringIS3_St11char_traitsIS3_ESaIS3_EEESE_
FNDA:0,_ZSteqIcSt11char_traitsIcESaIcEEbRKNSt7__cxx1112basic_stringIT_T0_T1_EEPKS5_
FNDA:0,_ZStltIcSt11char_traitsIcESaIcEEbRKNSt7__cxx1112basic_stringIT_T0_T1_EESA_
FNDA:0,_ZStleIcSt11char_traitsIcESaIcEEbRKNSt7__cxx1112basic_stringIT_T0_T1_EESA_
FNDA:264,_ZNSt7__cxx114stoiERKNS_12basic_stringIcSt11char_traitsIcESaIcEEEPmi
FNDA:4,_ZNSt7__cxx114stolERKNS_12basic_stringIcSt11char_traitsIcESaIcEEEPmi
FNDA:35,_ZNSt7__cxx115stoldERKNS_12basic_stringIcSt11char_traitsIcESaIcEEEPm
FNF:17
FNH:6
DA:139,0
DA:232,37495
DA:236,37495
DA:237,37495
DA:252,37495
DA:255,37495
DA:256,37495
DA:604,37495
DA:606,37495
DA:607,37495
DA:6005,0
DA:6007,0
DA:6008,0
DA:6009,0
DA:6031,0
DA:6033,0
DA:6082,0
DA:6085,0
DA:6158,0
DA:6161,0
DA:6359,264
DA:6360,264
DA:6361,264
DA:6364,4
DA:6365,4
DA:6366,4
DA:6393,35
DA:6394,35
LF:28
LH:17
end_of_record
SF:/usr/include/c++/7/bits/basic_string.tcc
FN:206,_ZNSt7__cxx1112basic_stringIcSt11char_traitsIcESaIcEE12_M_constructIN9__gnu_cxx17__normal_iteratorIPKcS4_EEEEvT_SB_St20forward_iterator_tag
FN:206,_ZNSt7__cxx1112basic_stringIcSt11char_traitsIcESaIcEE12_M_constructIN9__gnu_cxx17__normal_iteratorIPcS4_EEEEvT_SA_St20forward_iterator_tag
FN:206,_ZNSt7__cxx1112basic_stringIcSt11char_traitsIcESaIcEE12_M_constructIPcEEvT_S7_St20forward_iterator_tag
FNDA:0,_ZNSt7__cxx1112basic_stringIcSt11char_traitsIcESaIcEE12_M_constructIN9__gnu_cxx17__normal_iteratorIPcS4_EEEEvT_SA_St20forward_iterator_tag
FNDA:37495,_ZNSt7__cxx1112basic_stringIcSt11char_traitsIcESaIcEE12_M_constructIN9__gnu_cxx17__normal_iteratorIPKcS4_EEEEvT_SB_St20forward_iterator_tag
FNDA:0,_ZNSt7__cxx1112basic_stringIcSt11char_traitsIcESaIcEE12_M_constructIPcEEvT_S7_St20forward_iterator_tag
FNF:3
FNH:1
DA:206,37495
DA:211,37495
DA:212,0
DA:215,37495
DA:217,37495
DA:219,2295
DA:220,2295
DA:225,37495
DA:226,0
DA:228,0
DA:229,0
DA:232,37495
DA:233,37495
LF:13
LH:9
end_of_record
SF:/usr/include/c++/7/bits/char_traits.h
FN:300,_ZNSt11char_traitsIcE7compareEPKcS2_m
FN:314,_ZNSt11char_traitsIcE6lengthEPKc
FNDA:0,_ZNSt11char_traitsIcE7compareEPKcS2_m
FNDA:2303,_ZNSt11char_traitsIcE6lengthEPKc
FNF:2
FNH:1
DA:300,0
DA:308,0
DA:309,0
DA:310,0
DA:314,2303
DA:320,2303
LF:6
LH:2
end_of_record
SF:/usr/include/c++/7/bits/cpp_type_traits.h
FN:408,_ZSt12__miter_baseIPcET_S1_
FN:408,_ZSt12__miter_baseIPNSt7__cxx119sub_matchIN9__gnu_cxx17__normal_iteratorIPKcNS0_12basic_stringIcSt11char_traitsIcESaIcEEEEEEEET_SE_
FN:408,_ZSt12__miter_baseIN9__gnu_cxx17__normal_iteratorIPKNSt7__cxx119sub_matchINS1_IPKcNS2_12basic_stringIcSt11char_traitsIcESaIcEEEEEEESt6vectorISC_SaISC_EEEEET_SJ_
FN:408,_ZSt12__miter_baseIN9__gnu_cxx17__normal_iteratorIPcSt6vectorIcSaIcEEEEET_S7_
FN:408,_ZSt12__miter_baseIPPNSt8__detail9_StateSeqINSt7__cxx1112regex_traitsIcEEEEET_S8_
FN:408,_ZSt12__miter_baseIPPlET_S2_
FN:408,_ZSt12__miter_baseIPmET_S1_
FN:408,_ZSt12__miter_baseIPKcET_S2_
FN:408,_ZSt12__miter_baseIN9__gnu_cxx17__normal_iteratorIPKcSt6vectorIcSaIcEEEEET_S8_
FNDA:36784,_ZSt12__miter_baseIPcET_S1_
FNDA:1181632,_ZSt12__miter_baseIPKcET_S2_
FNDA:5614,_ZSt12__miter_baseIN9__gnu_cxx17__normal_iteratorIPKcSt6vectorIcSaIcEEEEET_S8_
FNDA:0,_ZSt12__miter_baseIPPlET_S2_
FNDA:4598,_ZSt12__miter_baseIN9__gnu_cxx17__normal_iteratorIPcSt6vectorIcSaIcEEEEET_S7_
FNDA:9372,_ZSt12__miter_baseIPmET_S1_
FNDA:0,_ZSt12__miter_baseIPPNSt8__detail9_StateSeqINSt7__cxx1112regex_traitsIcEEEEET_S8_
FNDA:0,_ZSt12__miter_baseIPNSt7__cxx119sub_matchIN9__gnu_cxx17__normal_iteratorIPKcNS0_12basic_stringIcSt11char_traitsIcESaIcEEEEEEEET_SE_
FNDA:96948,_ZSt12__miter_baseIN9__gnu_cxx17__normal_iteratorIPKNSt7__cxx119sub_matchINS1_IPKcNS2_12basic_stringIcSt11char_traitsIcESaIcEEEEEEESt6vectorISC_SaISC_EEEEET_SJ_
FNF:9
FNH:6
DA:408,1334948
DA:409,1334948
LF:2
LH:2
end_of_record
SF:/usr/include/c++/7/bits/deque.tcc
FN:161,_ZNSt5dequeINSt8__detail9_StateSeqINSt7__cxx1112regex_traitsIcEEEESaIS5_EE12emplace_backIJS5_EEEvDpOT_
FN:478,_ZNSt5dequeINSt8__detail9_StateSeqINSt7__cxx1112regex_traitsIcEEEESaIS5_EE16_M_push_back_auxIJS5_EEEvDpOT_
FN:478,_ZNSt5dequeINSt8__detail9_StateSeqINSt7__cxx1112regex_traitsIcEEEESaIS5_EE16_M_push_back_auxIJRKS5_EEEvDpOT_
FN:478,_ZNSt5dequeIlSaIlEE16_M_push_back_auxIJRKlEEEvDpOT_
FN:546,_ZNSt5dequeIlSaIlEE15_M_pop_back_auxEv
FN:546,_ZNSt5dequeINSt8__detail9_StateSeqINSt7__cxx1112regex_traitsIcEEEESaIS5_EE15_M_pop_back_auxEv
FN:917,_ZNSt5dequeINSt8__detail9_StateSeqINSt7__cxx1112regex_traitsIcEEEESaIS5_EE17_M_reallocate_mapEmb
FN:917,_ZNSt5dequeIlSaIlEE17_M_reallocate_mapEmb
FNDA:20812,_ZNSt5dequeINSt8__detail9_StateSeqINSt7__cxx1112regex_traitsIcEEEESaIS5_EE12emplace_backIJS5_EEEvDpOT_
FNDA:0,_ZNSt5dequeIlSaIlEE16_M_push_back_auxIJRKlEEEvDpOT_
FNDA:0,_ZNSt5dequeINSt8__detail9_StateSeqINSt7__cxx1112regex_traitsIcEEEESaIS5_EE16_M_push_back_auxIJS5_EEEvDpOT_
FNDA:0,_ZNSt5dequeINSt8__detail9_StateSeqINSt7__cxx1112regex_traitsIcEEEESaIS5_EE16_M_push_back_auxIJRKS5_EEEvDpOT_
FNDA:0,_ZNSt5dequeIlSaIlEE15_M_pop_back_auxEv
FNDA:0,_ZNSt5dequeINSt8__detail9_StateSeqINSt7__cxx1112regex_traitsIcEEEESaIS5_EE15_M_pop_back_auxEv
FNDA:0,_ZNSt5dequeIlSaIlEE17_M_reallocate_mapEmb
FNDA:0,_ZNSt5dequeINSt8__detail9_StateSeqINSt7__cxx1112regex_traitsIcEEEESaIS5_EE17_M_reallocate_mapEmb
FNF:8
FNH:1
DA:161,20812
DA:164,41624
DA:165,20812
DA:167,20812
DA:170,20812
DA:173,0
DA:177,20812
DA:478,0
DA:486,0
DA:487,0
DA:491,0
DA:497,0
DA:499,0
DA:501,0
DA:503,0
DA:504,0
DA:506,0
DA:546,0
DA:549,0
DA:550,0
DA:551,0
DA:552,0
DA:554,0
DA:917,0
DA:920,0
DA:921,0
DA:922,0
DA:925,0
DA:927,0
DA:928,0
DA:929,0
DA:930,0
DA:931,0
DA:932,0
DA:935,0
DA:936,0
DA:937,0
DA:941,0
DA:942,0
DA:945,0
DA:946,0
DA:947,0
DA:948,0
DA:949,0
DA:951,0
DA:953,0
DA:954,0
DA:957,0
DA:958,0
DA:959,0
LF:50
LH:6
end_of_record
SF:/usr/include/c++/7/bits/ios_base.h
FN:83,_ZStanSt13_Ios_FmtflagsS_
FN:87,_ZStorSt13_Ios_FmtflagsS_
FN:95,_ZStcoSt13_Ios_Fmtflags
FN:99,_ZStoRRSt13_Ios_FmtflagsS_
FN:103,_ZStaNRSt13_Ios_FmtflagsS_
FN:129,_ZStorSt13_Ios_OpenmodeS_
FN:663,_ZNSt8ios_base4setfESt13_Ios_FmtflagsS0_
FN:1024,_ZSt3hexRSt8ios_base
FN:1032,_ZSt3octRSt8ios_base
FN:1041,_ZSt5fixedRSt8ios_base
FNDA:0,_ZStanSt13_Ios_FmtflagsS_
FNDA:0,_ZStorSt13_Ios_FmtflagsS_
FNDA:0,_ZStcoSt13_Ios_Fmtflags
FNDA:0,_ZStoRRSt13_Ios_FmtflagsS_
FNDA:0,_ZStaNRSt13_Ios_FmtflagsS_
FNDA:0,_ZStorSt13_Ios_OpenmodeS_
FNDA:0,_ZNSt8ios_base4setfESt13_Ios_FmtflagsS0_
FNDA:0,_ZSt3hexRSt8ios_base
FNDA:0,_ZSt3octRSt8ios_base
FNDA:0,_ZSt5fixedRSt8ios_base
FNF:10
FNH:0
DA:83,0
DA:84,0
DA:87,0
DA:88,0
DA:95,0
DA:96,0
DA:99,0
DA:100,0
DA:103,0
DA:104,0
DA:129,0
DA:130,0
DA:663,0
DA:665,0
DA:666,0
DA:667,0
DA:668,0
DA:1024,0
DA:1026,0
DA:1027,0
DA:1032,0
DA:1034,0
DA:1035,0
DA:1041,0
DA:1043,0
DA:1044,0
LF:26
LH:0
end_of_record
SF:/usr/include/c++/7/bits/locale_classes.tcc
FN:132,_ZSt9use_facetIKSt5ctypeIcEERKT_RKSt6locale
FNDA:2327,_ZSt9use_facetIKSt5ctypeIcEERKT_RKSt6locale
FNF:1
FNH:1
DA:132,2327
DA:134,2327
DA:135,2327
DA:136,2327
DA:137,0
DA:139,2327
LF:6
LH:5
end_of_record
SF:/usr/include/c++/7/bits/locale_facets.h
FN:802,_ZNKSt5ctypeIcE7toupperEc
FN:835,_ZNKSt5ctypeIcE7tolowerEc
FN:852,_ZNKSt5ctypeIcE7tolowerEPcPKc
FN:872,_ZNKSt5ctypeIcE5widenEc
FN:930,_ZNKSt5ctypeIcE6narrowEcc
FNDA:0,_ZNKSt5ctypeIcE7toupperEc
FNDA:84,_ZNKSt5ctypeIcE7tolowerEc
FNDA:590816,_ZNKSt5ctypeIcE7tolowerEPcPKc
FNDA:0,_ZNKSt5ctypeIcE5widenEc
FNDA:19229,_ZNKSt5ctypeIcE6narrowEcc
FNF:5
FNH:3
DA:802,0
DA:803,0
DA:835,84
DA:836,84
DA:852,590816
DA:853,590816
DA:872,0
DA:874,0
DA:875,0
DA:876,0
DA:877,0
DA:930,19229
DA:932,19229
DA:933,19131
DA:934,98
DA:935,98
DA:936,98
DA:937,98
LF:18
LH:11
end_of_record
SF:/usr/include/c++/7/bits/move.h
FN:47,_ZSt11__addressofIKNSt8__detail11_AnyMatcherINSt7__cxx1112regex_traitsIcEELb1ELb0ELb1EEEEPT_RS7_
FN:47,_ZSt11__addressofIKNSt8__detail11_AnyMatcherINSt7__cxx1112regex_traitsIcEELb0ELb0ELb0EEEEPT_RS7_
FN:47,_ZSt11__addressofIKNSt8__detail11_AnyMatcherINSt7__cxx1112regex_traitsIcEELb0ELb0ELb1EEEEPT_RS7_
FN:47,_ZSt11__addressofISaISt23_Sp_counted_ptr_inplaceINSt8__detail4_NFAINSt7__cxx1112regex_traitsIcEEEESaIS6_ELN9__gnu_cxx12_Lock_policyE2EEEEPT_RSC_
FN:47,_ZSt11__addressofINSt7__cxx1112basic_stringIcSt11char_traitsIcESaIcEEEEPT_RS6_
FN:47,_ZSt11__addressofIKNSt8__detail11_AnyMatcherINSt7__cxx1112regex_traitsIcEELb1ELb1ELb1EEEEPT_RS7_
FN:47,_ZSt11__addressofIKcEPT_RS1_
FN:47,_ZSt11__addressofIKNSt8__detail11_AnyMatcherINSt7__cxx1112regex_traitsIcEELb0ELb1ELb1EEEEPT_RS7_
FN:47,_ZSt11__addressofISt4pairIccEEPT_RS2_
FN:47,_ZSt11__addressofIKNSt8__detail11_AnyMatcherINSt7__cxx1112regex_traitsIcEELb1ELb0ELb0EEEEPT_RS7_
FN:47,_ZSt11__addressofISt4pairIlSt6vectorINSt7__cxx119sub_matchIN9__gnu_cxx17__normal_iteratorIPKcNS2_12basic_stringIcSt11char_traitsIcESaIcEEEEEEESaISE_EEEEPT_RSI_
FN:47,_ZSt11__addressofIKNSt8__detail12_CharMatcherINSt7__cxx1112regex_traitsIcEELb0ELb0EEEEPT_RS7_
FN:47,_ZSt11__addressofIKNSt8__detail12_CharMatcherINSt7__cxx1112regex_traitsIcEELb1ELb1EEEEPT_RS7_
FN:47,_ZSt11__addressofIKNSt8__detail12_CharMatcherINSt7__cxx1112regex_traitsIcEELb1ELb0EEEEPT_RS7_
FN:47,_ZSt11__addressofISt4pairINSt7__cxx1112basic_stringIcSt11char_traitsIcESaIcEEES6_EEPT_RS8_
FN:47,_ZSt11__addressofINSt7__cxx1112regex_traitsIcE10_RegexMaskEEPT_RS4_
FN:47,_ZSt11__addressofIKNSt8__detail12_CharMatcherINSt7__cxx1112regex_traitsIcEELb0ELb1EEEEPT_RS7_
FN:47,_ZSt11__addressofIKNSt8__detail11_AnyMatcherINSt7__cxx1112regex_traitsIcEELb1ELb1ELb0EEEEPT_RS7_
FN:47,_ZSt11__addressofISt4pairIN9__gnu_cxx17__normal_iteratorIPKcNSt7__cxx1112basic_stringIcSt11char_traitsIcESaIcEEEEEiEEPT_RSD_
FN:47,_ZSt11__addressofIKNSt8__detail11_AnyMatcherINSt7__cxx1112regex_traitsIcEELb0ELb1ELb0EEEEPT_RS7_
FN:47,_ZSt11__addressofINSt7__cxx119sub_matchIN9__gnu_cxx17__normal_iteratorIPKcNS0_12basic_stringIcSt11char_traitsIcESaIcEEEEEEEEPT_RSD_
FN:47,_ZSt11__addressofINSt8__detail6_StateIcEEEPT_RS3_
FN:73,_ZSt7forwardIRA3_KcEOT_RNSt16remove_referenceIS3_E4typeE
FN:73,_ZSt7forwardIRA11_KcEOT_RNSt16remove_referenceIS3_E4typeE
FN:73,_ZSt7forwardIRKSt6vectorINSt7__cxx119sub_matchIN9__gnu_cxx17__normal_iteratorIPKcNS1_12basic_stringIcSt11char_traitsIcESaIcEEEEEEESaISD_EEEOT_RNSt16remove_referenceISI_E4typeE
FN:73,_ZSt7forwardIRA_KcEOT_RNSt16remove_referenceIS3_E4typeE
FN:73,_ZSt7forwardIRA24_KcEOT_RNSt16remove_referenceIS3_E4typeE
FN:73,_ZSt7forwardIRA8_KcEOT_RNSt16remove_referenceIS3_E4typeE
FN:73,_ZSt7forwardIbEOT_RNSt16remove_referenceIS0_E4typeE
FN:73,_ZSt7forwardINSt8__detail9_StateSeqINSt7__cxx1112regex_traitsIcEEEEEOT_RNSt16remove_referenceIS6_E4typeE
FN:73,_ZSt7forwardIRA4_KcEOT_RNSt16remove_referenceIS3_E4typeE
FN:73,_ZSt7forwardINSt7__cxx119sub_matchIN9__gnu_cxx17__normal_iteratorIPKcNS0_12basic_stringIcSt11char_traitsIcESaIcEEEEEEEEOT_RNSt16remove_referenceISD_E4typeE
FN:73,_ZSt7forwardIRKSt6localeEOT_RNSt16remove_referenceIS3_E4typeE
FN:73,_ZSt7forwardIRKSt4pairINSt7__cxx1112basic_stringIcSt11char_traitsIcESaIcEEES6_EEOT_RNSt16remove_referenceISA_E4typeE
FN:73,_ZSt7forwardIRKmEOT_RNSt16remove_referenceIS2_E4typeE
FN:73,_ZSt7forwardIcEOT_RNSt16remove_referenceIS0_E4typeE
FN:73,_ZSt7forwardISt4pairIccEEOT_RNSt16remove_referenceIS2_E4typeE
FN:73,_ZSt7forwardIRKSt21piecewise_construct_tEOT_RNSt16remove_referenceIS3_E4typeE
FN:73,_ZSt7forwardINSt7__cxx1112regex_traitsIcE10_RegexMaskEEOT_RNSt16remove_referenceIS4_E4typeE
FN:73,_ZSt7forwardIRPSt13_Rb_tree_nodeISt4pairIKllEEEOT_RNSt16remove_referenceIS7_E4typeE
FN:73,_ZSt7forwardIRNSt7__cxx119sub_matchIN9__gnu_cxx17__normal_iteratorIPKcNS0_12basic_stringIcSt11char_traitsIcESaIcEEEEEEEEOT_RNSt16remove_referenceISE_E4typeE
FN:73,_ZSt7forwardIRA10_KcEOT_RNSt16remove_referenceIS3_E4typeE
FN:73,_ZSt7forwardIRKNSt8__detail6_StateIcEEEOT_RNSt16remove_referenceIS5_E4typeE
FN:73,_ZSt7forwardIRKNSt7__cxx1112basic_stringIcSt11char_traitsIcESaIcEEEEOT_RNSt16remove_referenceIS8_E4typeE
FN:73,_ZSt7forwardIRPSt18_Rb_tree_node_baseEOT_RNSt16remove_referenceIS3_E4typeE
FN:73,_ZSt7forwardIRPSt13_Rb_tree_nodeISt4pairIKNSt7__cxx1112basic_stringIcSt11char_traitsIcESaIcEEES7_EEEOT_RNSt16remove_referenceISD_E4typeE
FN:73,_ZSt7forwardISt5tupleIJEEEOT_RNSt16remove_referenceIS2_E4typeE
FN:73,_ZSt7forwardIRA27_KcEOT_RNSt16remove_referenceIS3_E4typeE
FN:73,_ZSt7forwardINSt8__detail6_StateIcEEEOT_RNSt16remove_referenceIS3_E4typeE
FN:73,_ZSt7forwardISt4pairIlSt6vectorINSt7__cxx119sub_matchIN9__gnu_cxx17__normal_iteratorIPKcNS2_12basic_stringIcSt11char_traitsIcESaIcEEEEEEESaISE_EEEEOT_RNSt16remove_referenceISI_E4typeE
FN:73,_ZSt7forwardIRNSt15regex_constants18syntax_option_typeEEOT_RNSt16remove_referenceIS3_E4typeE
FN:73,_ZSt7forwardIRA2_KcEOT_RNSt16remove_referenceIS3_E4typeE
FN:73,_ZSt7forwardIRKSt4pairIccEEOT_RNSt16remove_referenceIS4_E4typeE
FN:73,_ZSt7forwardIRKNSt8__detail9_StateSeqINSt7__cxx1112regex_traitsIcEEEEEOT_RNSt16remove_referenceIS8_E4typeE
FN:73,_ZSt7forwardIRlEOT_RNSt16remove_referenceIS1_E4typeE
FN:73,_ZSt7forwardISt5tupleIJRKlEEEOT_RNSt16remove_referenceIS4_E4typeE
FN:73,_ZSt7forwardIRA29_KcEOT_RNSt16remove_referenceIS3_E4typeE
FN:73,_ZSt7forwardIRKlEOT_RNSt16remove_referenceIS2_E4typeE
FN:73,_ZSt7forwardINSt7__cxx1112basic_stringIcSt11char_traitsIcESaIcEEEEOT_RNSt16remove_referenceIS6_E4typeE
FN:73,_ZSt7forwardIRKNSt7__cxx1112regex_traitsIcE10_RegexMaskEEOT_RNSt16remove_referenceIS6_E4typeE
FN:73,_ZSt7forwardIRKNSt7__cxx119sub_matchIN9__gnu_cxx17__normal_iteratorIPKcNS0_12basic_stringIcSt11char_traitsIcESaIcEEEEEEEEOT_RNSt16remove_referenceISF_E4typeE
FN:73,_ZSt7forwardIRA18_KcEOT_RNSt16remove_referenceIS3_E4typeE
FN:73,_ZSt7forwardISt17_Rb_tree_iteratorISt4pairIKNSt7__cxx1112basic_stringIcSt11char_traitsIcESaIcEEES7_EEEOT_RNSt16remove_referenceISB_E4typeE
FN:73,_ZSt7forwardIRA9_KcEOT_RNSt16remove_referenceIS3_E4typeE
FN:73,_ZSt7forwardISt4pairINSt7__cxx1112basic_stringIcSt11char_traitsIcESaIcEEES6_EEOT_RNSt16remove_referenceIS8_E4typeE
FN:98,_ZSt4moveIRNSt8__detail11_AnyMatcherINSt7__cxx1112regex_traitsIcEELb0ELb0ELb1EEEEONSt16remove_referenceIT_E4typeEOS8_
FN:98,_ZSt4moveIRPSt4pairIlSt6vectorINSt7__cxx119sub_matchIN9__gnu_cxx17__normal_iteratorIPKcNS2_12basic_stringIcSt11char_traitsIcESaIcEEEEEEESaISE_EEEEONSt16remove_referenceIT_E4typeEOSL_
FN:98,_ZSt4moveIRSt4pairINSt7__cxx1112basic_stringIcSt11char_traitsIcESaIcEEES6_EEONSt16remove_referenceIT_E4typeEOSA_
FN:98,_ZSt4moveIRSt10shared_ptrINSt8__detail4_NFAINSt7__cxx1112regex_traitsIcEEEEEEONSt16remove_referenceIT_E4typeEOSA_
FN:98,_ZSt4moveIRNSt8__detail11_AnyMatcherINSt7__cxx1112regex_traitsIcEELb0ELb1ELb0EEEEONSt16remove_referenceIT_E4typeEOS8_
FN:98,_ZSt4moveIRSaISt4pairIlSt6vectorINSt7__cxx119sub_matchIN9__gnu_cxx17__normal_iteratorIPKcNS2_12basic_stringIcSt11char_traitsIcESaIcEEEEEEESaISE_EEEEEONSt16remove_referenceIT_E4typeEOSL_
FN:98,_ZSt4moveIRSaINSt7__cxx1112regex_traitsIcE10_RegexMaskEEEONSt16remove_referenceIT_E4typeEOS7_
FN:98,_ZSt4moveIRlEONSt16remove_referenceIT_E4typeEOS2_
FN:98,_ZSt4moveIRPFbRSt9_Any_dataRKS0_St18_Manager_operationEEONSt16remove_referenceIT_E4typeEOS9_
FN:98,_ZSt4moveIRNSt8__detail11_AnyMatcherINSt7__cxx1112regex_traitsIcEELb1ELb0ELb1EEEEONSt16remove_referenceIT_E4typeEOS8_
FN:98,_ZSt4moveIRNSt8__detail11_AnyMatcherINSt7__cxx1112regex_traitsIcEELb0ELb0ELb0EEEEONSt16remove_referenceIT_E4typeEOS8_
FN:98,_ZSt4moveIRSaINSt7__cxx119sub_matchIN9__gnu_cxx17__normal_iteratorIPKcNS0_12basic_stringIcSt11char_traitsIcESaIcEEEEEEEEEONSt16remove_referenceIT_E4typeEOSG_
FN:98,_ZSt4moveIRNSt8__detail15_BracketMatcherINSt7__cxx1112regex_traitsIcEELb0ELb1EEEEONSt16remove_referenceIT_E4typeEOS8_
FN:98,_ZSt4moveIRcEONSt16remove_referenceIT_E4typeEOS2_
FN:98,_ZSt4moveIRSt6vectorISt4pairIccESaIS2_EEEONSt16remove_referenceIT_E4typeEOS7_
FN:98,_ZSt4moveIRSt6localeEONSt16remove_referenceIT_E4typeEOS3_
FN:98,_ZSt4moveIRNSt8__detail12_CharMatcherINSt7__cxx1112regex_traitsIcEELb0ELb1EEEEONSt16remove_referenceIT_E4typeEOS8_
FN:98,_ZSt4moveIRNSt8__detail15_BracketMatcherINSt7__cxx1112regex_traitsIcEELb1ELb0EEEEONSt16remove_referenceIT_E4typeEOS8_
FN:98,_ZSt4moveIRPNSt7__cxx1112basic_stringIcSt11char_traitsIcESaIcEEEEONSt16remove_referenceIT_E4typeEOS9_
FN:98,_ZSt4moveIRSaISt4pairIccEEEONSt16remove_referenceIT_E4typeEOS5_
FN:98,_ZSt4moveIRNSt8__detail11_AnyMatcherINSt7__cxx1112regex_traitsIcEELb0ELb1ELb1EEEEONSt16remove_referenceIT_E4typeEOS8_
FN:98,_ZSt4moveIRSt6vectorINSt7__cxx1112regex_traitsIcE10_RegexMaskESaIS4_EEEONSt16remove_referenceIT_E4typeEOS9_
FN:98,_ZSt4moveIRNSt8__detail6_StateIcEEEONSt16remove_referenceIT_E4typeEOS5_
FN:98,_ZSt4moveIRNSt8__detail11_AnyMatcherINSt7__cxx1112regex_traitsIcEELb1ELb0ELb0EEEEONSt16remove_referenceIT_E4typeEOS8_
FN:98,_ZSt4moveIRNSt8__detail11_AnyMatcherINSt7__cxx1112regex_traitsIcEELb1ELb1ELb0EEEEONSt16remove_referenceIT_E4typeEOS8_
FN:98,_ZSt4moveIRSaISt4pairINSt7__cxx1112basic_stringIcSt11char_traitsIcESaIcEEES6_EEEONSt16remove_referenceIT_E4typeEOSB_
FN:98,_ZSt4moveIRPSt4pairIccEEONSt16remove_referenceIT_E4typeEOS5_
FN:98,_ZSt4moveIRSt6vectorISt4pairINSt7__cxx1112basic_stringIcSt11char_traitsIcESaIcEEES7_ESaIS8_EEEONSt16remove_referenceIT_E4typeEOSD_
FN:98,_ZSt4moveIRNSt8__detail12_CharMatcherINSt7__cxx1112regex_traitsIcEELb1ELb1EEEEONSt16remove_referenceIT_E4typeEOS8_
FN:98,_ZSt4moveIRPKcEONSt16remove_referenceIT_E4typeEOS4_
FN:98,_ZSt4moveIRNSt8__detail11_AnyMatcherINSt7__cxx1112regex_traitsIcEELb1ELb1ELb1EEEEONSt16remove_referenceIT_E4typeEOS8_
FN:98,_ZSt4moveIRN9__gnu_cxx5__ops15_Iter_less_iterEEONSt16remove_referenceIT_E4typeEOS5_
FN:98,_ZSt4moveIRPNSt7__cxx1112regex_traitsIcE10_RegexMaskEEONSt16remove_referenceIT_E4typeEOS7_
FN:98,_ZSt4moveIRSt9_Any_dataEONSt16remove_referenceIT_E4typeEOS3_
FN:98,_ZSt4moveIRSaINSt7__cxx1112basic_stringIcSt11char_traitsIcESaIcEEEEEONSt16remove_referenceIT_E4typeEOS9_
FN:98,_ZSt4moveIRSt4pairIccEEONSt16remove_referenceIT_E4typeEOS4_
FN:98,_ZSt4moveIRPcEONSt16remove_referenceIT_E4typeEOS3_
FN:98,_ZSt4moveIRPFbRKSt9_Any_dataOcEEONSt16remove_referenceIT_E4typeEOS8_
FN:98,_ZSt4moveIRNSt8__detail15_BracketMatcherINSt7__cxx1112regex_traitsIcEELb0ELb0EEEEONSt16remove_referenceIT_E4typeEOS8_
FN:98,_ZSt4moveIRSt6vectorINSt7__cxx1112basic_stringIcSt11char_traitsIcESaIcEEESaIS6_EEEONSt16remove_referenceIT_E4typeEOSB_
FN:98,_ZSt4moveIRNSt8__detail9_StateSeqINSt7__cxx1112regex_traitsIcEEEEEONSt16remove_referenceIT_E4typeEOS8_
FN:98,_ZSt4moveIRSt6vectorISt4pairIlS0_INSt7__cxx119sub_matchIN9__gnu_cxx17__normal_iteratorIPKcNS2_12basic_stringIcSt11char_traitsIcESaIcEEEEEEESaISE_EEESaISH_EEEONSt16remove_referenceIT_E4typeEOSM_
FN:98,_ZSt4moveIRKSaINSt8__detail4_NFAINSt7__cxx1112regex_traitsIcEEEEEEONSt16remove_referenceIT_E4typeEOSA_
FN:98,_ZSt4moveIRSt6vectorIcSaIcEEEONSt16remove_referenceIT_E4typeEOS5_
FN:98,_ZSt4moveIRSt6vectorINSt7__cxx119sub_matchIN9__gnu_cxx17__normal_iteratorIPKcNS1_12basic_stringIcSt11char_traitsIcESaIcEEEEEEESaISD_EEEONSt16remove_referenceIT_E4typeEOSI_
FN:98,_ZSt4moveIRSaIcEEONSt16remove_referenceIT_E4typeEOS3_
FN:98,_ZSt4moveIRSt8functionIFbcEEEONSt16remove_referenceIT_E4typeEOS5_
FN:98,_ZSt4moveIRPSt4pairINSt7__cxx1112basic_stringIcSt11char_traitsIcESaIcEEES6_EEONSt16remove_referenceIT_E4typeEOSB_
FN:98,_ZSt4moveIRNSt8__detail12_CharMatcherINSt7__cxx1112regex_traitsIcEELb0ELb0EEEEONSt16remove_referenceIT_E4typeEOS8_
FN:98,_ZSt4moveIRNSt8__detail15_BracketMatcherINSt7__cxx1112regex_traitsIcEELb1ELb1EEEEONSt16remove_referenceIT_E4typeEOS8_
FN:98,_ZSt4moveIRNSt8__detail12_CharMatcherINSt7__cxx1112regex_traitsIcEELb1ELb0EEEEONSt16remove_referenceIT_E4typeEOS8_
FN:98,_ZSt4moveIRPNSt7__cxx119sub_matchIN9__gnu_cxx17__normal_iteratorIPKcNS0_12basic_stringIcSt11char_traitsIcESaIcEEEEEEEEONSt16remove_referenceIT_E4typeEOSG_
FN:187,_ZSt4swapIPcENSt9enable_ifIXsrSt6__and_IJSt6__not_ISt15__is_tuple_likeIT_EESt21is_move_constructibleIS5_ESt18is_move_assignableIS5_EEE5valueEvE4typeERS5_SF_
FN:187,_ZSt4swapIPFbRKSt9_Any_dataOcEENSt9enable_ifIXsrSt6__and_IJSt6__not_ISt15__is_tuple_likeIT_EESt21is_move_constructibleISA_ESt18is_move_assignableISA_EEE5valueEvE4typeERSA_SK_
FN:187,_ZSt4swapISt9_Any_dataENSt9enable_ifIXsrSt6__and_IJSt6__not_ISt15__is_tuple_likeIT_EESt21is_move_constructibleIS5_ESt18is_move_assignableIS5_EEE5valueEvE4typeERS5_SF_
FN:187,_ZSt4swapIPSt4pairIlSt6vectorINSt7__cxx119sub_matchIN9__gnu_cxx17__normal_iteratorIPKcNS2_12basic_stringIcSt11char_traitsIcESaIcEEEEEEESaISE_EEEENSt9enable_ifIXsrSt6__and_IJSt6__not_ISt15__is_tuple_likeIT_EESt21is_move_constructibleISN_ESt18is_move_assignableISN_EEE5valueEvE4typeERSN_SX_
FN:187,_ZSt4swapISt6localeENSt9enable_ifIXsrSt6__and_IJSt6__not_ISt15__is_tuple_likeIT_EESt21is_move_constructibleIS5_ESt18is_move_assignableIS5_EEE5valueEvE4typeERS5_SF_
FN:187,_ZSt4swapIPNSt7__cxx119sub_matchIN9__gnu_cxx17__normal_iteratorIPKcNS0_12basic_stringIcSt11char_traitsIcESaIcEEEEEEEENSt9enable_ifIXsrSt6__and_IJSt6__not_ISt15__is_tuple_likeIT_EESt21is_move_constructibleISI_ESt18is_move_assignableISI_EEE5valueEvE4typeERSI_SS_
FN:187,_ZSt4swapIlENSt9enable_ifIXsrSt6__and_IJSt6__not_ISt15__is_tuple_likeIT_EESt21is_move_constructibleIS4_ESt18is_move_assignableIS4_EEE5valueEvE4typeERS4_SE_
FN:187,_ZSt4swapIPSt4pairINSt7__cxx1112basic_stringIcSt11char_traitsIcESaIcEEES6_EENSt9enable_ifIXsrSt6__and_IJSt6__not_ISt15__is_tuple_likeIT_EESt21is_move_constructibleISD_ESt18is_move_assignableISD_EEE5valueEvE4typeERSD_SN_
FN:187,_ZSt4swapIcENSt9enable_ifIXsrSt6__and_IJSt6__not_ISt15__is_tuple_likeIT_EESt21is_move_constructibleIS4_ESt18is_move_assignableIS4_EEE5valueEvE4typeERS4_SE_
FN:187,_ZSt4swapIPNSt7__cxx1112basic_stringIcSt11char_traitsIcESaIcEEEENSt9enable_ifIXsrSt6__and_IJSt6__not_ISt15__is_tuple_likeIT_EESt21is_move_constructibleISB_ESt18is_move_assignableISB_EEE5valueEvE4typeERSB_SL_
FN:187,_ZSt4swapIPFbRSt9_Any_dataRKS0_St18_Manager_operationEENSt9enable_ifIXsrSt6__and_IJSt6__not_ISt15__is_tuple_likeIT_EESt21is_move_constructibleISB_ESt18is_move_assignableISB_EEE5valueEvE4typeERSB_SL_
FN:187,_ZSt4swapIPSt4pairIccEENSt9enable_ifIXsrSt6__and_IJSt6__not_ISt15__is_tuple_likeIT_EESt21is_move_constructibleIS7_ESt18is_move_assignableIS7_EEE5valueEvE4typeERS7_SH_
FN:187,_ZSt4swapIPNSt7__cxx1112regex_traitsIcE10_RegexMaskEENSt9enable_ifIXsrSt6__and_IJSt6__not_ISt15__is_tuple_likeIT_EESt21is_move_constructibleIS9_ESt18is_move_assignableIS9_EEE5valueEvE4typeERS9_SJ_
FNDA:0,_ZSt11__addressofISt4pairIccEEPT_RS2_
FNDA:0,_ZSt11__addressofINSt7__cxx1112regex_traitsIcE10_RegexMaskEEPT_RS4_
FNDA:0,_ZSt11__addressofISt4pairINSt7__cxx1112basic_stringIcSt11char_traitsIcESaIcEEES6_EEPT_RS8_
FNDA:0,_ZSt11__addressofIKNSt8__detail12_CharMatcherINSt7__cxx1112regex_traitsIcEELb1ELb1EEEEPT_RS7_
FNDA:0,_ZSt11__addressofIKNSt8__detail12_CharMatcherINSt7__cxx1112regex_traitsIcEELb1ELb0EEEEPT_RS7_
FNDA:0,_ZSt11__addressofIKNSt8__detail12_CharMatcherINSt7__cxx1112regex_traitsIcEELb0ELb1EEEEPT_RS7_
FNDA:135784,_ZSt11__addressofIKNSt8__detail12_CharMatcherINSt7__cxx1112regex_traitsIcEELb0ELb0EEEEPT_RS7_
FNDA:0,_ZSt11__addressofIKNSt8__detail11_AnyMatcherINSt7__cxx1112regex_traitsIcEELb1ELb1ELb1EEEEPT_RS7_
FNDA:0,_ZSt11__addressofIKNSt8__detail11_AnyMatcherINSt7__cxx1112regex_traitsIcEELb1ELb1ELb0EEEEPT_RS7_
FNDA:0,_ZSt11__addressofIKNSt8__detail11_AnyMatcherINSt7__cxx1112regex_traitsIcEELb1ELb0ELb1EEEEPT_RS7_
FNDA:0,_ZSt11__addressofIKNSt8__detail11_AnyMatcherINSt7__cxx1112regex_traitsIcEELb1ELb0ELb0EEEEPT_RS7_
FNDA:0,_ZSt11__addressofIKNSt8__detail11_AnyMatcherINSt7__cxx1112regex_traitsIcEELb0ELb1ELb1EEEEPT_RS7_
FNDA:0,_ZSt11__addressofIKNSt8__detail11_AnyMatcherINSt7__cxx1112regex_traitsIcEELb0ELb1ELb0EEEEPT_RS7_
FNDA:0,_ZSt11__addressofIKNSt8__detail11_AnyMatcherINSt7__cxx1112regex_traitsIcEELb0ELb0ELb1EEEEPT_RS7_
FNDA:0,_ZSt11__addressofIKNSt8__detail11_AnyMatcherINSt7__cxx1112regex_traitsIcEELb0ELb0ELb0EEEEPT_RS7_
FNDA:108990,_ZSt11__addressofINSt8__detail6_StateIcEEEPT_RS3_
FNDA:4654,_ZSt11__addressofISaISt23_Sp_counted_ptr_inplaceINSt8__detail4_NFAINSt7__cxx1112regex_traitsIcEEEESaIS6_ELN9__gnu_cxx12_Lock_policyE2EEEEPT_RSC_
FNDA:133812,_ZSt11__addressofISt4pairIN9__gnu_cxx17__normal_iteratorIPKcNSt7__cxx1112basic_stringIcSt11char_traitsIcESaIcEEEEEiEEPT_RSD_
FNDA:47482,_ZSt11__addressofINSt7__cxx119sub_matchIN9__gnu_cxx17__normal_iteratorIPKcNS0_12basic_stringIcSt11char_traitsIcESaIcEEEEEEEEPT_RSD_
FNDA:0,_ZSt11__addressofISt4pairIlSt6vectorINSt7__cxx119sub_matchIN9__gnu_cxx17__normal_iteratorIPKcNS2_12basic_stringIcSt11char_traitsIcESaIcEEEEEEESaISE_EEEEPT_RSI_
FNDA:2327,_ZSt11__addressofIKcEPT_RS1_
FNDA:25094,_ZSt11__addressofINSt7__cxx1112basic_stringIcSt11char_traitsIcESaIcEEEEPT_RS6_
FNDA:0,_ZSt7forwardIRKSt4pairINSt7__cxx1112basic_stringIcSt11char_traitsIcESaIcEEES6_EEOT_RNSt16remove_referenceISA_E4typeE
FNDA:0,_ZSt7forwardIRKSt4pairIccEEOT_RNSt16remove_referenceIS4_E4typeE
FNDA:0,_ZSt7forwardINSt7__cxx1112regex_traitsIcE10_RegexMaskEEOT_RNSt16remove_referenceIS4_E4typeE
FNDA:0,_ZSt7forwardISt4pairINSt7__cxx1112basic_stringIcSt11char_traitsIcESaIcEEES6_EEOT_RNSt16remove_referenceIS8_E4typeE
FNDA:0,_ZSt7forwardISt4pairIccEEOT_RNSt16remove_referenceIS2_E4typeE
FNDA:38873,_ZSt7forwardIRKNSt8__detail6_StateIcEEEOT_RNSt16remove_referenceIS5_E4typeE
FNDA:140,_ZSt7forwardIRPSt13_Rb_tree_nodeISt4pairIKllEEEOT_RNSt16remove_referenceIS7_E4typeE
FNDA:0,_ZSt7forwardISt4pairIlSt6vectorINSt7__cxx119sub_matchIN9__gnu_cxx17__normal_iteratorIPKcNS2_12basic_stringIcSt11char_traitsIcESaIcEEEEEEESaISE_EEEEOT_RNSt16remove_referenceISI_E4typeE
FNDA:0,_ZSt7forwardIRKNSt7__cxx1112regex_traitsIcE10_RegexMaskEEOT_RNSt16remove_referenceIS6_E4typeE
FNDA:720,_ZSt7forwardIRKlEOT_RNSt16remove_referenceIS2_E4typeE
FNDA:700,_ZSt7forwardISt5tupleIJEEEOT_RNSt16remove_referenceIS2_E4typeE
FNDA:700,_ZSt7forwardISt5tupleIJRKlEEEOT_RNSt16remove_referenceIS4_E4typeE
FNDA:700,_ZSt7forwardIRKSt21piecewise_construct_tEOT_RNSt16remove_referenceIS3_E4typeE
FNDA:37659,_ZSt7forwardIRKNSt7__cxx119sub_matchIN9__gnu_cxx17__normal_iteratorIPKcNS0_12basic_stringIcSt11char_traitsIcESaIcEEEEEEEEOT_RNSt16remove_referenceISF_E4typeE
FNDA:0,_ZSt7forwardIRNSt7__cxx119sub_matchIN9__gnu_cxx17__normal_iteratorIPKcNS0_12basic_stringIcSt11char_traitsIcESaIcEEEEEEEEOT_RNSt16remove_referenceISE_E4typeE
FNDA:36,_ZSt7forwardINSt7__cxx119sub_matchIN9__gnu_cxx17__normal_iteratorIPKcNS0_12basic_stringIcSt11char_traitsIcESaIcEEEEEEEEOT_RNSt16remove_referenceISD_E4typeE
FNDA:25850,_ZSt7forwardIRKNSt8__detail9_StateSeqINSt7__cxx1112regex_traitsIcEEEEEOT_RNSt16remove_referenceIS8_E4typeE
FNDA:62436,_ZSt7forwardINSt8__detail9_StateSeqINSt7__cxx1112regex_traitsIcEEEEEOT_RNSt16remove_referenceIS6_E4typeE
FNDA:105451,_ZSt7forwardINSt8__detail6_StateIcEEEOT_RNSt16remove_referenceIS3_E4typeE
FNDA:7185,_ZSt7forwardIRKmEOT_RNSt16remove_referenceIS2_E4typeE
FNDA:102,_ZSt7forwardINSt7__cxx1112basic_stringIcSt11char_traitsIcESaIcEEEEOT_RNSt16remove_referenceIS6_E4typeE
FNDA:0,_ZSt7forwardIRKSt6vectorINSt7__cxx119sub_matchIN9__gnu_cxx17__normal_iteratorIPKcNS1_12basic_stringIcSt11char_traitsIcESaIcEEEEEEESaISD_EEEOT_RNSt16remove_referenceISI_E4typeE
FNDA:0,_ZSt7forwardIRlEOT_RNSt16remove_referenceIS1_E4typeE
FNDA:18616,_ZSt7forwardIRNSt15regex_constants18syntax_option_typeEEOT_RNSt16remove_referenceIS3_E4typeE
FNDA:18616,_ZSt7forwardIRKSt6localeEOT_RNSt16remove_referenceIS3_E4typeE
FNDA:308,_ZSt7forwardIbEOT_RNSt16remove_referenceIS0_E4typeE
FNDA:288,_ZSt7forwardISt17_Rb_tree_iteratorISt4pairIKNSt7__cxx1112basic_stringIcSt11char_traitsIcESaIcEEES7_EEEOT_RNSt16remove_referenceISB_E4typeE
FNDA:0,_ZSt7forwardIRPSt18_Rb_tree_node_baseEOT_RNSt16remove_referenceIS3_E4typeE
FNDA:288,_ZSt7forwardIRPSt13_Rb_tree_nodeISt4pairIKNSt7__cxx1112basic_stringIcSt11char_traitsIcESaIcEEES7_EEEOT_RNSt16remove_referenceISD_E4typeE
FNDA:254,_ZSt7forwardIRKNSt7__cxx1112basic_stringIcSt11char_traitsIcESaIcEEEEOT_RNSt16remove_referenceIS8_E4typeE
FNDA:84,_ZSt7forwardIRA27_KcEOT_RNSt16remove_referenceIS3_E4typeE
FNDA:84,_ZSt7forwardIRA29_KcEOT_RNSt16remove_referenceIS3_E4typeE
FNDA:84,_ZSt7forwardIRA24_KcEOT_RNSt16remove_referenceIS3_E4typeE
FNDA:94,_ZSt7forwardIRA10_KcEOT_RNSt16remove_referenceIS3_E4typeE
FNDA:426,_ZSt7forwardIRA8_KcEOT_RNSt16remove_referenceIS3_E4typeE
FNDA:92,_ZSt7forwardIRA9_KcEOT_RNSt16remove_referenceIS3_E4typeE
FNDA:0,_ZSt7forwardIRA11_KcEOT_RNSt16remove_referenceIS3_E4typeE
FNDA:336,_ZSt7forwardIRA_KcEOT_RNSt16remove_referenceIS3_E4typeE
FNDA:336,_ZSt7forwardIRA18_KcEOT_RNSt16remove_referenceIS3_E4typeE
FNDA:1010,_ZSt7forwardIRA4_KcEOT_RNSt16remove_referenceIS3_E4typeE
FNDA:84,_ZSt7forwardIRA2_KcEOT_RNSt16remove_referenceIS3_E4typeE
FNDA:1344,_ZSt7forwardIRA3_KcEOT_RNSt16remove_referenceIS3_E4typeE
FNDA:379656,_ZSt7forwardIcEOT_RNSt16remove_referenceIS0_E4typeE
FNDA:0,_ZSt4moveIRN9__gnu_cxx5__ops15_Iter_less_iterEEONSt16remove_referenceIT_E4typeEOS5_
FNDA:0,_ZSt4moveIRSt4pairINSt7__cxx1112basic_stringIcSt11char_traitsIcESaIcEEES6_EEONSt16remove_referenceIT_E4typeEOSA_
FNDA:0,_ZSt4moveIRSt4pairIccEEONSt16remove_referenceIT_E4typeEOS4_
FNDA:0,_ZSt4moveIRPSt4pairINSt7__cxx1112basic_stringIcSt11char_traitsIcESaIcEEES6_EEONSt16remove_referenceIT_E4typeEOSB_
FNDA:42894,_ZSt4moveIRPNSt7__cxx1112regex_traitsIcE10_RegexMaskEEONSt16remove_referenceIT_E4typeEOS7_
FNDA:42894,_ZSt4moveIRPSt4pairIccEEONSt16remove_referenceIT_E4typeEOS5_
FNDA:42894,_ZSt4moveIRPNSt7__cxx1112basic_stringIcSt11char_traitsIcESaIcEEEEONSt16remove_referenceIT_E4typeEOS9_
FNDA:42894,_ZSt4moveIRPcEONSt16remove_referenceIT_E4typeEOS3_
FNDA:62073,_ZSt4moveIRcEONSt16remove_referenceIT_E4typeEOS2_
FNDA:0,_ZSt4moveIRSaISt4pairINSt7__cxx1112basic_stringIcSt11char_traitsIcESaIcEEES6_EEEONSt16remove_referenceIT_E4typeEOSB_
FNDA:9532,_ZSt4moveIRSaINSt7__cxx1112regex_traitsIcE10_RegexMaskEEEONSt16remove_referenceIT_E4typeEOS7_
FNDA:9532,_ZSt4moveIRSaISt4pairIccEEEONSt16remove_referenceIT_E4typeEOS5_
FNDA:9532,_ZSt4moveIRSaINSt7__cxx1112basic_stringIcSt11char_traitsIcESaIcEEEEEONSt16remove_referenceIT_E4typeEOS9_
FNDA:0,_ZSt4moveIRSt6vectorISt4pairINSt7__cxx1112basic_stringIcSt11char_traitsIcESaIcEEES7_ESaIS8_EEEONSt16remove_referenceIT_E4typeEOSD_
FNDA:4766,_ZSt4moveIRSt6vectorINSt7__cxx1112regex_traitsIcE10_RegexMaskESaIS4_EEEONSt16remove_referenceIT_E4typeEOS9_
FNDA:4766,_ZSt4moveIRSt6vectorISt4pairIccESaIS2_EEEONSt16remove_referenceIT_E4typeEOS7_
FNDA:4766,_ZSt4moveIRSt6vectorINSt7__cxx1112basic_stringIcSt11char_traitsIcESaIcEEESaIS6_EEEONSt16remove_referenceIT_E4typeEOSB_
FNDA:4766,_ZSt4moveIRSt6vectorIcSaIcEEEONSt16remove_referenceIT_E4typeEOS5_
FNDA:0,_ZSt4moveIRNSt8__detail12_CharMatcherINSt7__cxx1112regex_traitsIcEELb1ELb1EEEEONSt16remove_referenceIT_E4typeEOS8_
FNDA:0,_ZSt4moveIRNSt8__detail12_CharMatcherINSt7__cxx1112regex_traitsIcEELb1ELb0EEEEONSt16remove_referenceIT_E4typeEOS8_
FNDA:0,_ZSt4moveIRNSt8__detail12_CharMatcherINSt7__cxx1112regex_traitsIcEELb0ELb1EEEEONSt16remove_referenceIT_E4typeEOS8_
FNDA:30774,_ZSt4moveIRNSt8__detail12_CharMatcherINSt7__cxx1112regex_traitsIcEELb0ELb0EEEEONSt16remove_referenceIT_E4typeEOS8_
FNDA:0,_ZSt4moveIRNSt8__detail11_AnyMatcherINSt7__cxx1112regex_traitsIcEELb1ELb1ELb1EEEEONSt16remove_referenceIT_E4typeEOS8_
FNDA:0,_ZSt4moveIRNSt8__detail11_AnyMatcherINSt7__cxx1112regex_traitsIcEELb1ELb1ELb0EEEEONSt16remove_referenceIT_E4typeEOS8_
FNDA:0,_ZSt4moveIRNSt8__detail11_AnyMatcherINSt7__cxx1112regex_traitsIcEELb1ELb0ELb1EEEEONSt16remove_referenceIT_E4typeEOS8_
FNDA:0,_ZSt4moveIRNSt8__detail11_AnyMatcherINSt7__cxx1112regex_traitsIcEELb1ELb0ELb0EEEEONSt16remove_referenceIT_E4typeEOS8_
FNDA:0,_ZSt4moveIRNSt8__detail11_AnyMatcherINSt7__cxx1112regex_traitsIcEELb0ELb1ELb1EEEEONSt16remove_referenceIT_E4typeEOS8_
FNDA:0,_ZSt4moveIRNSt8__detail11_AnyMatcherINSt7__cxx1112regex_traitsIcEELb0ELb1ELb0EEEEONSt16remove_referenceIT_E4typeEOS8_
FNDA:0,_ZSt4moveIRNSt8__detail11_AnyMatcherINSt7__cxx1112regex_traitsIcEELb0ELb0ELb1EEEEONSt16remove_referenceIT_E4typeEOS8_
FNDA:0,_ZSt4moveIRNSt8__detail11_AnyMatcherINSt7__cxx1112regex_traitsIcEELb0ELb0ELb0EEEEONSt16remove_referenceIT_E4typeEOS8_
FNDA:240,_ZSt4moveIRlEONSt16remove_referenceIT_E4typeEOS2_
FNDA:0,_ZSt4moveIRNSt8__detail15_BracketMatcherINSt7__cxx1112regex_traitsIcEELb1ELb1EEEEONSt16remove_referenceIT_E4typeEOS8_
FNDA:0,_ZSt4moveIRNSt8__detail15_BracketMatcherINSt7__cxx1112regex_traitsIcEELb1ELb0EEEEONSt16remove_referenceIT_E4typeEOS8_
FNDA:0,_ZSt4moveIRNSt8__detail15_BracketMatcherINSt7__cxx1112regex_traitsIcEELb0ELb1EEEEONSt16remove_referenceIT_E4typeEOS8_
FNDA:9532,_ZSt4moveIRNSt8__detail15_BracketMatcherINSt7__cxx1112regex_traitsIcEELb0ELb0EEEEONSt16remove_referenceIT_E4typeEOS8_
FNDA:152532,_ZSt4moveIRPFbRKSt9_Any_dataOcEEONSt16remove_referenceIT_E4typeEOS8_
FNDA:152532,_ZSt4moveIRPFbRSt9_Any_dataRKS0_St18_Manager_operationEEONSt16remove_referenceIT_E4typeEOS9_
FNDA:152532,_ZSt4moveIRSt9_Any_dataEONSt16remove_referenceIT_E4typeEOS3_
FNDA:2327,_ZSt4moveIRKSaINSt8__detail4_NFAINSt7__cxx1112regex_traitsIcEEEEEEONSt16remove_referenceIT_E4typeEOSA_
FNDA:0,_ZSt4moveIRSaINSt7__cxx119sub_matchIN9__gnu_cxx17__normal_iteratorIPKcNS0_12basic_stringIcSt11char_traitsIcESaIcEEEEEEEEEONSt16remove_referenceIT_E4typeEOSG_
FNDA:0,_ZSt4moveIRPNSt7__cxx119sub_matchIN9__gnu_cxx17__normal_iteratorIPKcNS0_12basic_stringIcSt11char_traitsIcESaIcEEEEEEEEONSt16remove_referenceIT_E4typeEOSG_
FNDA:0,_ZSt4moveIRPSt4pairIlSt6vectorINSt7__cxx119sub_matchIN9__gnu_cxx17__normal_iteratorIPKcNS2_12basic_stringIcSt11char_traitsIcESaIcEEEEEEESaISE_EEEEONSt16remove_referenceIT_E4typeEOSL_
FNDA:0,_ZSt4moveIRSaISt4pairIlSt6vectorINSt7__cxx119sub_matchIN9__gnu_cxx17__normal_iteratorIPKcNS2_12basic_stringIcSt11char_traitsIcESaIcEEEEEEESaISE_EEEEEONSt16remove_referenceIT_E4typeEOSL_
FNDA:50844,_ZSt4moveIRSt8functionIFbcEEEONSt16remove_referenceIT_E4typeEOS5_
FNDA:41624,_ZSt4moveIRNSt8__detail9_StateSeqINSt7__cxx1112regex_traitsIcEEEEEONSt16remove_referenceIT_E4typeEOS8_
FNDA:0,_ZSt4moveIRSt6vectorINSt7__cxx119sub_matchIN9__gnu_cxx17__normal_iteratorIPKcNS1_12basic_stringIcSt11char_traitsIcESaIcEEEEEEESaISD_EEEONSt16remove_referenceIT_E4typeEOSI_
FNDA:0,_ZSt4moveIRSt6vectorISt4pairIlS0_INSt7__cxx119sub_matchIN9__gnu_cxx17__normal_iteratorIPKcNS2_12basic_stringIcSt11char_traitsIcESaIcEEEEEEESaISE_EEESaISH_EEEONSt16remove_referenceIT_E4typeEOSM_
FNDA:83102,_ZSt4moveIRNSt8__detail6_StateIcEEEONSt16remove_referenceIT_E4typeEOS5_
FNDA:4654,_ZSt4moveIRSt10shared_ptrINSt8__detail4_NFAINSt7__cxx1112regex_traitsIcEEEEEEONSt16remove_referenceIT_E4typeEOSA_
FNDA:9308,_ZSt4moveIRSt6localeEONSt16remove_referenceIT_E4typeEOS3_
FNDA:9308,_ZSt4moveIRPKcEONSt16remove_referenceIT_E4typeEOS4_
FNDA:9532,_ZSt4moveIRSaIcEEONSt16remove_referenceIT_E4typeEOS3_
FNDA:0,_ZSt4swapIcENSt9enable_ifIXsrSt6__and_IJSt6__not_ISt15__is_tuple_likeIT_EESt21is_move_constructibleIS4_ESt18is_move_assignableIS4_EEE5valueEvE4typeERS4_SE_
FNDA:2327,_ZSt4swapISt6localeENSt9enable_ifIXsrSt6__and_IJSt6__not_ISt15__is_tuple_likeIT_EESt21is_move_constructibleIS5_ESt18is_move_assignableIS5_EEE5valueEvE4typeERS5_SF_
FNDA:0,_ZSt4swapIPSt4pairINSt7__cxx1112basic_stringIcSt11char_traitsIcESaIcEEES6_EENSt9enable_ifIXsrSt6__and_IJSt6__not_ISt15__is_tuple_likeIT_EESt21is_move_constructibleISD_ESt18is_move_assignableISD_EEE5valueEvE4typeERSD_SN_
FNDA:14298,_ZSt4swapIPNSt7__cxx1112regex_traitsIcE10_RegexMaskEENSt9enable_ifIXsrSt6__and_IJSt6__not_ISt15__is_tuple_likeIT_EESt21is_move_constructibleIS9_ESt18is_move_assignableIS9_EEE5valueEvE4typeERS9_SJ_
FNDA:14298,_ZSt4swapIPSt4pairIccEENSt9enable_ifIXsrSt6__and_IJSt6__not_ISt15__is_tuple_likeIT_EESt21is_move_constructibleIS7_ESt18is_move_assignableIS7_EEE5valueEvE4typeERS7_SH_
FNDA:14298,_ZSt4swapIPNSt7__cxx1112basic_stringIcSt11char_traitsIcESaIcEEEENSt9enable_ifIXsrSt6__and_IJSt6__not_ISt15__is_tuple_likeIT_EESt21is_move_constructibleISB_ESt18is_move_assignableISB_EEE5valueEvE4typeERSB_SL_
FNDA:14298,_ZSt4swapIPcENSt9enable_ifIXsrSt6__and_IJSt6__not_ISt15__is_tuple_likeIT_EESt21is_move_constructibleIS5_ESt18is_move_assignableIS5_EEE5valueEvE4typeERS5_SF_
FNDA:80,_ZSt4swapIlENSt9enable_ifIXsrSt6__and_IJSt6__not_ISt15__is_tuple_likeIT_EESt21is_move_constructibleIS4_ESt18is_move_assignableIS4_EEE5valueEvE4typeERS4_SE_
FNDA:50844,_ZSt4swapIPFbRKSt9_Any_dataOcEENSt9enable_ifIXsrSt6__and_IJSt6__not_ISt15__is_tuple_likeIT_EESt21is_move_constructibleISA_ESt18is_move_assignableISA_EEE5valueEvE4typeERSA_SK_
FNDA:50844,_ZSt4swapIPFbRSt9_Any_dataRKS0_St18_Manager_operationEENSt9enable_ifIXsrSt6__and_IJSt6__not_ISt15__is_tuple_likeIT_EESt21is_move_constructibleISB_ESt18is_move_assignableISB_EEE5valueEvE4typeERSB_SL_
FNDA:50844,_ZSt4swapISt9_Any_dataENSt9enable_ifIXsrSt6__and_IJSt6__not_ISt15__is_tuple_likeIT_EESt21is_move_constructibleIS5_ESt18is_move_assignableIS5_EEE5valueEvE4typeERS5_SF_
FNDA:0,_ZSt4swapIPNSt7__cxx119sub_matchIN9__gnu_cxx17__normal_iteratorIPKcNS0_12basic_stringIcSt11char_traitsIcESaIcEEEEEEEENSt9enable_ifIXsrSt6__and_IJSt6__not_ISt15__is_tuple_likeIT_EESt21is_move_constructibleISI_ESt18is_move_assignableISI_EEE5valueEvE4typeERSI_SS_
FNDA:0,_ZSt4swapIPSt4pairIlSt6vectorINSt7__cxx119sub_matchIN9__gnu_cxx17__normal_iteratorIPKcNS2_12basic_stringIcSt11char_traitsIcESaIcEEEEEEESaISE_EEEENSt9enable_ifIXsrSt6__and_IJSt6__not_ISt15__is_tuple_likeIT_EESt21is_move_constructibleISN_ESt18is_move_assignableISN_EEE5valueEvE4typeERSN_SX_
FNF:130
FNH:73
DA:47,458143
DA:48,458143
DA:73,702552
DA:74,702552
DA:98,990150
DA:99,990150
DA:187,212131
DA:198,214458
DA:199,212131
DA:200,212131
DA:201,212131
LF:11
LH:11
end_of_record
SF:/usr/include/c++/7/bits/predefined_ops.h
FN:42,_ZNK9__gnu_cxx5__ops15_Iter_less_iterclINS_17__normal_iteratorIPcSt6vectorIcSaIcEEEES8_EEbT_T0_
FN:48,_ZN9__gnu_cxx5__ops16__iter_less_iterEv
FN:60,_ZN9__gnu_cxx5__ops14_Iter_less_valC2ENS0_15_Iter_less_iterE
FN:64,_ZNK9__gnu_cxx5__ops14_Iter_less_valclINS_17__normal_iteratorIPKcSt6vectorIcSaIcEEEES4_EEbT_RT0_
FN:64,_ZNK9__gnu_cxx5__ops14_Iter_less_valclINS_17__normal_iteratorIPcSt6vectorIcSaIcEEEEcEEbT_RT0_
FN:69,_ZN9__gnu_cxx5__ops15__iter_less_valEv
FN:89,_ZNK9__gnu_cxx5__ops14_Val_less_iterclIcNS_17__normal_iteratorIPcSt6vectorIcSaIcEEEEEEbRT_T0_
FN:98,_ZN9__gnu_cxx5__ops15__val_comp_iterENS0_15_Iter_less_iterE
FN:105,_ZNK9__gnu_cxx5__ops19_Iter_equal_to_iterclINS_17__normal_iteratorIPcSt6vectorIcSaIcEEEES8_EEbT_T0_
FN:110,_ZN9__gnu_cxx5__ops20__iter_equal_to_iterEv
FN:234,_ZN9__gnu_cxx5__ops16_Iter_equals_valIKNSt7__cxx1112basic_stringIcSt11char_traitsIcESaIcEEEEC2ERS8_
FN:240,_ZN9__gnu_cxx5__ops16_Iter_equals_valIKNSt7__cxx1112basic_stringIcSt11char_traitsIcESaIcEEEEclINS_17__normal_iteratorIPS8_St6vectorIS7_SaIS7_EEEEEEbT_
FN:246,_ZN9__gnu_cxx5__ops17__iter_equals_valIKNSt7__cxx1112basic_stringIcSt11char_traitsIcESaIcEEEEENS0_16_Iter_equals_valIT_EERSA_
FNDA:16093,_ZNK9__gnu_cxx5__ops15_Iter_less_iterclINS_17__normal_iteratorIPcSt6vectorIcSaIcEEEES8_EEbT_T0_
FNDA:2383,_ZN9__gnu_cxx5__ops16__iter_less_iterEv
FNDA:0,_ZN9__gnu_cxx5__ops14_Iter_less_valC2ENS0_15_Iter_less_iterE
FNDA:0,_ZNK9__gnu_cxx5__ops14_Iter_less_valclINS_17__normal_iteratorIPcSt6vectorIcSaIcEEEEcEEbT_RT0_
FNDA:2241525,_ZNK9__gnu_cxx5__ops14_Iter_less_valclINS_17__normal_iteratorIPKcSt6vectorIcSaIcEEEES4_EEbT_RT0_
FNDA:610048,_ZN9__gnu_cxx5__ops15__iter_less_valEv
FNDA:25289,_ZNK9__gnu_cxx5__ops14_Val_less_iterclIcNS_17__normal_iteratorIPcSt6vectorIcSaIcEEEEEEbRT_T0_
FNDA:13794,_ZN9__gnu_cxx5__ops15__val_comp_iterENS0_15_Iter_less_iterE
FNDA:16093,_ZNK9__gnu_cxx5__ops19_Iter_equal_to_iterclINS_17__normal_iteratorIPcSt6vectorIcSaIcEEEES8_EEbT_T0_
FNDA:2383,_ZN9__gnu_cxx5__ops20__iter_equal_to_iterEv
FNDA:592882,_ZN9__gnu_cxx5__ops16_Iter_equals_valIKNSt7__cxx1112basic_stringIcSt11char_traitsIcESaIcEEEEC2ERS8_
FNDA:5348,_ZN9__gnu_cxx5__ops16_Iter_equals_valIKNSt7__cxx1112basic_stringIcSt11char_traitsIcESaIcEEEEclINS_17__normal_iteratorIPS8_St6vectorIS7_SaIS7_EEEEEEbT_
FNDA:592882,_ZN9__gnu_cxx5__ops17__iter_equals_valIKNSt7__cxx1112basic_stringIcSt11char_traitsIcESaIcEEEEENS0_16_Iter_equals_valIT_EERSA_
FNF:13
FNH:11
DA:42,16093
DA:43,16093
DA:48,2383
DA:49,2383
DA:60,0
DA:64,2241525
DA:65,2241525
DA:69,610048
DA:70,610048
DA:89,25289
DA:90,25289
DA:98,13794
DA:99,13794
DA:105,16093
DA:106,16093
DA:110,2383
DA:111,2383
DA:234,592882
DA:235,592882
DA:236,592882
DA:240,5348
DA:241,5348
DA:246,592882
DA:247,592882
LF:24
LH:23
end_of_record
SF:/usr/include/c++/7/bits/regex.h
FN:87,_ZNSt7__cxx1112regex_traitsIcED2Ev
FN:102,_ZNSt7__cxx1112regex_traitsIcE10_RegexMaskC2Eth
FN:108,_ZNKSt7__cxx1112regex_traitsIcE10_RegexMaskanES2_
FN:115,_ZNKSt7__cxx1112regex_traitsIcE10_RegexMaskorES2_
FN:137,_ZNSt7__cxx1112regex_traitsIcE10_RegexMaskoRES2_
FN:145,_ZNKSt7__cxx1112regex_traitsIcE10_RegexMaskeqES2_
FN:153,_ZNKSt7__cxx1112regex_traitsIcE10_RegexMaskneES2_
FN:164,_ZNSt7__cxx1112regex_traitsIcEC2Ev
FN:188,_ZNKSt7__cxx1112regex_traitsIcE9translateEc
FN:201,_ZNKSt7__cxx1112regex_traitsIcE16translate_nocaseEc
FN:230,_ZNKSt7__cxx1112regex_traitsIcE9transformIPcEENS_12basic_stringIcSt11char_traitsIcESaIcEEET_S9_
FN:230,_ZNKSt7__cxx1112regex_traitsIcE9transformIN9__gnu_cxx17__normal_iteratorIPcNS_12basic_stringIcSt11char_traitsIcESaIcEEEEEEESA_T_SC_
FN:230,_ZNKSt7__cxx1112regex_traitsIcE9transformIN9__gnu_cxx17__normal_iteratorIPKcNS_12basic_stringIcSt11char_traitsIcESaIcEEEEEEESB_T_SD_
FN:254,_ZNKSt7__cxx1112regex_traitsIcE17transform_primaryIPKcEENS_12basic_stringIcSt11char_traitsIcESaIcEEET_SA_
FN:366,_ZNSt7__cxx1112regex_traitsIcE5imbueESt6locale
FN:377,_ZNKSt7__cxx1112regex_traitsIcE6getlocEv
FN:444,_ZNSt7__cxx1111basic_regexIcNS_12regex_traitsIcEEEC2EPKcNSt15regex_constants18syntax_option_typeE
FN:490,_ZNSt7__cxx1111basic_regexIcNS_12regex_traitsIcEEEC2ISt11char_traitsIcESaIcEEERKNS_12basic_stringIcT_T0_EENSt15regex_constants18syntax_option_typeE
FN:510,_ZNSt7__cxx1111basic_regexIcNS_12regex_traitsIcEEEC2IPKcEET_S7_NSt15regex_constants18syntax_option_typeE
FN:530,_ZNSt7__cxx1111basic_regexIcNS_12regex_traitsIcEEED2Ev
FN:714,_ZNKSt7__cxx1111basic_regexIcNS_12regex_traitsIcEEE5flagsEv
FN:763,_ZNSt7__cxx1111basic_regexIcNS_12regex_traitsIcEEEC2IPKcEET_S7_St6localeNSt15regex_constants18syntax_option_typeE
FN:824,_ZNSt7__cxx119sub_matchIN9__gnu_cxx17__normal_iteratorIPKcNS_12basic_stringIcSt11char_traitsIcESaIcEEEEEEaSERKSB_
FN:836,_ZNSt7__cxx119sub_matchIN9__gnu_cxx17__normal_iteratorIPKcNS_12basic_stringIcSt11char_traitsIcESaIcEEEEEEC2Ev
FN:842,_ZNKSt7__cxx119sub_matchIN9__gnu_cxx17__normal_iteratorIPKcNS_12basic_stringIcSt11char_traitsIcESaIcEEEEEE6lengthEv
FN:855,_ZNKSt7__cxx119sub_matchIN9__gnu_cxx17__normal_iteratorIPKcNS_12basic_stringIcSt11char_traitsIcESaIcEEEEEEcvS9_Ev
FN:868,_ZNKSt7__cxx119sub_matchIN9__gnu_cxx17__normal_iteratorIPKcNS_12basic_stringIcSt11char_traitsIcESaIcEEEEEE3strEv
FN:1565,_ZNSt7__cxx1113match_resultsIN9__gnu_cxx17__normal_iteratorIPKcNS_12basic_stringIcSt11char_traitsIcESaIcEEEEESaINS_9sub_matchISA_EEEEC2ERKSD_
FN:1594,_ZNSt7__cxx1113match_resultsIN9__gnu_cxx17__normal_iteratorIPKcNS_12basic_stringIcSt11char_traitsIcESaIcEEEEESaINS_9sub_matchISA_EEEED2Ev
FN:1622,_ZNKSt7__cxx1113match_resultsIN9__gnu_cxx17__normal_iteratorIPKcNS_12basic_stringIcSt11char_traitsIcESaIcEEEEESaINS_9sub_matchISA_EEEE4sizeEv
FN:1654,_ZNKSt7__cxx1113match_resultsIN9__gnu_cxx17__normal_iteratorIPKcNS_12basic_stringIcSt11char_traitsIcESaIcEEEEESaINS_9sub_matchISA_EEEE6lengthEm
FN:1669,_ZNKSt7__cxx1113match_resultsIN9__gnu_cxx17__normal_iteratorIPKcNS_12basic_stringIcSt11char_traitsIcESaIcEEEEESaINS_9sub_matchISA_EEEE8positionEm
FN:1682,_ZNKSt7__cxx1113match_resultsIN9__gnu_cxx17__normal_iteratorIPKcNS_12basic_stringIcSt11char_traitsIcESaIcEEEEESaINS_9sub_matchISA_EEEE3strEm
FN:1697,_ZNKSt7__cxx1113match_resultsIN9__gnu_cxx17__normal_iteratorIPKcNS_12basic_stringIcSt11char_traitsIcESaIcEEEEESaINS_9sub_matchISA_EEEEixEm
FN:1875,_ZNSt7__cxx1113match_resultsIN9__gnu_cxx17__normal_iteratorIPKcNS_12basic_stringIcSt11char_traitsIcESaIcEEEEESaINS_9sub_matchISA_EEEE9_M_resizeEj
FN:1879,_ZNKSt7__cxx1113match_resultsIN9__gnu_cxx17__normal_iteratorIPKcNS_12basic_stringIcSt11char_traitsIcESaIcEEEEESaINS_9sub_matchISA_EEEE16_M_unmatched_subEv
FN:1891,_ZNSt7__cxx1113match_resultsIN9__gnu_cxx17__normal_iteratorIPKcNS_12basic_stringIcSt11char_traitsIcESaIcEEEEESaINS_9sub_matchISA_EEEE9_M_prefixEv
FN:1899,_ZNSt7__cxx1113match_resultsIN9__gnu_cxx17__normal_iteratorIPKcNS_12basic_stringIcSt11char_traitsIcESaIcEEEEESaINS_9sub_matchISA_EEEE9_M_suffixEv
FN:2146,_ZSt12regex_searchIN9__gnu_cxx17__normal_iteratorIPKcNSt7__cxx1112basic_stringIcSt11char_traitsIcESaIcEEEEESaINS4_9sub_matchISA_EEEcNS4_12regex_traitsIcEEEbT_SG_RNS4_13match_resultsISG_T0_EERKNS4_11basic_regexIT1_T2_EENSt15regex_constants15match_flag_typeE
FN:2254,_ZSt12regex_searchISt11char_traitsIcESaIcESaINSt7__cxx119sub_matchIN9__gnu_cxx17__normal_iteratorIPKcNS3_12basic_stringIcS1_S2_EEEEEEEcNS3_12regex_traitsIcEEEbRKNS9_IT2_T_T0_EERNS3_13match_resultsINSJ_14const_iteratorET1_EERKNS3_11basic_regexISG_T3_EENSt15regex_constants15match_flag_typeE
FNDA:2327,_ZNSt7__cxx1112regex_traitsIcED2Ev
FNDA:2551,_ZNSt7__cxx1112regex_traitsIcE10_RegexMaskC2Eth
FNDA:0,_ZNKSt7__cxx1112regex_traitsIcE10_RegexMaskanES2_
FNDA:84,_ZNKSt7__cxx1112regex_traitsIcE10_RegexMaskorES2_
FNDA:84,_ZNSt7__cxx1112regex_traitsIcE10_RegexMaskoRES2_
FNDA:84,_ZNKSt7__cxx1112regex_traitsIcE10_RegexMaskeqES2_
FNDA:0,_ZNKSt7__cxx1112regex_traitsIcE10_RegexMaskneES2_
FNDA:2327,_ZNSt7__cxx1112regex_traitsIcEC2Ev
FNDA:0,_ZNKSt7__cxx1112regex_traitsIcE9translateEc
FNDA:0,_ZNKSt7__cxx1112regex_traitsIcE16translate_nocaseEc
FNDA:0,_ZNKSt7__cxx1112regex_traitsIcE9transformIN9__gnu_cxx17__normal_iteratorIPcNS_12basic_stringIcSt11char_traitsIcESaIcEEEEEEESA_T_SC_
FNDA:590816,_ZNKSt7__cxx1112regex_traitsIcE9transformIPcEENS_12basic_stringIcSt11char_traitsIcESaIcEEET_S9_
FNDA:0,_ZNKSt7__cxx1112regex_traitsIcE9transformIN9__gnu_cxx17__normal_iteratorIPKcNS_12basic_stringIcSt11char_traitsIcESaIcEEEEEEESB_T_SD_
FNDA:590816,_ZNKSt7__cxx1112regex_traitsIcE17transform_primaryIPKcEENS_12basic_stringIcSt11char_traitsIcESaIcEEET_SA_
FNDA:2327,_ZNSt7__cxx1112regex_traitsIcE5imbueESt6locale
FNDA:0,_ZNKSt7__cxx1112regex_traitsIcE6getlocEv
FNDA:2303,_ZNSt7__cxx1111basic_regexIcNS_12regex_traitsIcEEEC2EPKcNSt15regex_constants18syntax_option_typeE
FNDA:24,_ZNSt7__cxx1111basic_regexIcNS_12regex_traitsIcEEEC2ISt11char_traitsIcESaIcEEERKNS_12basic_stringIcT_T0_EENSt15regex_constants18syntax_option_typeE
FNDA:2327,_ZNSt7__cxx1111basic_regexIcNS_12regex_traitsIcEEEC2IPKcEET_S7_NSt15regex_constants18syntax_option_typeE
FNDA:2327,_ZNSt7__cxx1111basic_regexIcNS_12regex_traitsIcEEED2Ev
FNDA:9325,_ZNKSt7__cxx1111basic_regexIcNS_12regex_traitsIcEEE5flagsEv
FNDA:2327,_ZNSt7__cxx1111basic_regexIcNS_12regex_traitsIcEEEC2IPKcEET_S7_St6localeNSt15regex_constants18syntax_option_typeE
FNDA:202404,_ZNSt7__cxx119sub_matchIN9__gnu_cxx17__normal_iteratorIPKcNS_12basic_stringIcSt11char_traitsIcESaIcEEEEEEaSERKSB_
FNDA:9787,_ZNSt7__cxx119sub_matchIN9__gnu_cxx17__normal_iteratorIPKcNS_12basic_stringIcSt11char_traitsIcESaIcEEEEEEC2Ev
FNDA:6959,_ZNKSt7__cxx119sub_matchIN9__gnu_cxx17__normal_iteratorIPKcNS_12basic_stringIcSt11char_traitsIcESaIcEEEEEE6lengthEv
FNDA:27676,_ZNKSt7__cxx119sub_matchIN9__gnu_cxx17__normal_iteratorIPKcNS_12basic_stringIcSt11char_traitsIcESaIcEEEEEEcvS9_Ev
FNDA:553,_ZNKSt7__cxx119sub_matchIN9__gnu_cxx17__normal_iteratorIPKcNS_12basic_stringIcSt11char_traitsIcESaIcEEEEEE3strEv
FNDA:2354,_ZNSt7__cxx1113match_resultsIN9__gnu_cxx17__normal_iteratorIPKcNS_12basic_stringIcSt11char_traitsIcESaIcEEEEESaINS_9sub_matchISA_EEEEC2ERKSD_
FNDA:2354,_ZNSt7__cxx1113match_resultsIN9__gnu_cxx17__normal_iteratorIPKcNS_12basic_stringIcSt11char_traitsIcESaIcEEEEESaINS_9sub_matchISA_EEEED2Ev
FNDA:49106,_ZNKSt7__cxx1113match_resultsIN9__gnu_cxx17__normal_iteratorIPKcNS_12basic_stringIcSt11char_traitsIcESaIcEEEEESaINS_9sub_matchISA_EEEE4sizeEv
FNDA:6959,_ZNKSt7__cxx1113match_resultsIN9__gnu_cxx17__normal_iteratorIPKcNS_12basic_stringIcSt11char_traitsIcESaIcEEEEESaINS_9sub_matchISA_EEEE6lengthEm
FNDA:13918,_ZNKSt7__cxx1113match_resultsIN9__gnu_cxx17__normal_iteratorIPKcNS_12basic_stringIcSt11char_traitsIcESaIcEEEEESaINS_9sub_matchISA_EEEE8positionEm
FNDA:27676,_ZNKSt7__cxx1113match_resultsIN9__gnu_cxx17__normal_iteratorIPKcNS_12basic_stringIcSt11char_traitsIcESaIcEEEEESaINS_9sub_matchISA_EEEE3strEm
FNDA:49106,_ZNKSt7__cxx1113match_resultsIN9__gnu_cxx17__normal_iteratorIPKcNS_12basic_stringIcSt11char_traitsIcESaIcEEEEESaINS_9sub_matchISA_EEEEixEm
FNDA:11642,_ZNSt7__cxx1113match_resultsIN9__gnu_cxx17__normal_iteratorIPKcNS_12basic_stringIcSt11char_traitsIcESaIcEEEEESaINS_9sub_matchISA_EEEE9_M_resizeEj
FNDA:0,_ZNKSt7__cxx1113match_resultsIN9__gnu_cxx17__normal_iteratorIPKcNS_12basic_stringIcSt11char_traitsIcESaIcEEEEESaINS_9sub_matchISA_EEEE16_M_unmatched_subEv
FNDA:7008,_ZNSt7__cxx1113match_resultsIN9__gnu_cxx17__normal_iteratorIPKcNS_12basic_stringIcSt11char_traitsIcESaIcEEEEESaINS_9sub_matchISA_EEEE9_M_prefixEv
FNDA:7008,_ZNSt7__cxx1113match_resultsIN9__gnu_cxx17__normal_iteratorIPKcNS_12basic_stringIcSt11char_traitsIcESaIcEEEEESaINS_9sub_matchISA_EEEE9_M_suffixEv
FNDA:9325,_ZSt12regex_searchIN9__gnu_cxx17__normal_iteratorIPKcNSt7__cxx1112basic_stringIcSt11char_traitsIcESaIcEEEEESaINS4_9sub_matchISA_EEEcNS4_12regex_traitsIcEEEbT_SG_RNS4_13match_resultsISG_T0_EERKNS4_11basic_regexIT1_T2_EENSt15regex_constants15match_flag_typeE
FNDA:55,_ZSt12regex_searchISt11char_traitsIcESaIcESaINSt7__cxx119sub_matchIN9__gnu_cxx17__normal_iteratorIPKcNS3_12basic_stringIcS1_S2_EEEEEEEcNS3_12regex_traitsIcEEEbRKNS9_IT2_T_T0_EERNS3_13match_resultsINSJ_14const_iteratorET1_EERKNS3_11basic_regexISG_T3_EENSt15regex_constants15match_flag_typeE
FNF:40
FNH:32
DA:87,2327
DA:102,2551
DA:104,2551
DA:105,2551
DA:108,0
DA:110,0
DA:111,0
DA:115,84
DA:117,84
DA:118,168
DA:137,84
DA:138,84
DA:145,84
DA:147,84
DA:148,84
DA:149,84
DA:153,0
DA:154,0
DA:164,2327
DA:188,0
DA:189,0
DA:201,0
DA:204,0
DA:205,0
DA:230,590816
DA:233,590816
DA:234,1181632
DA:235,1181632
DA:254,590816
DA:263,590816
DA:264,1181632
DA:265,590816
DA:266,1181632
DA:366,2327
DA:368,2327
DA:369,2327
DA:377,0
DA:378,0
DA:444,2303
DA:445,2303
DA:446,2303
DA:490,24
DA:493,24
DA:494,24
DA:510,2327
DA:512,2327
DA:513,2327
DA:530,2327
DA:531,2327
DA:714,9325
DA:715,9325
DA:763,2327
DA:765,2327
DA:767,4654
DA:768,2327
DA:824,202404
DA:836,9787
DA:842,6959
DA:843,6959
DA:855,27676
DA:857,27676
DA:859,27676
DA:868,553
DA:870,553
DA:872,553
DA:1565,2354
DA:1566,2354
DA:1567,2354
DA:1594,2354
DA:1595,2354
DA:1622,49106
DA:1623,49106
DA:1654,6959
DA:1655,6959
DA:1669,13918
DA:1670,13918
DA:1682,27676
DA:1683,27676
DA:1697,49106
DA:1700,49106
DA:1701,49106
DA:1702,49106
DA:1875,11642
DA:1876,11642
DA:1879,0
DA:1880,0
DA:1891,7008
DA:1892,7008
DA:1899,7008
DA:1900,7008
DA:2146,9325
DA:2154,9325
DA:2254,55
DA:2260,55
LF:94
LH:80
end_of_record
SF:/usr/include/c++/7/bits/regex.tcc
FN:48,_ZNSt8__detail17__regex_algo_implIN9__gnu_cxx17__normal_iteratorIPKcNSt7__cxx1112basic_stringIcSt11char_traitsIcESaIcEEEEESaINS5_9sub_matchISB_EEEcNS5_12regex_traitsIcEELNS_20_RegexExecutorPolicyE0ELb0EEEbT_SI_RNS5_13match_resultsISI_T0_EERKNS5_11basic_regexIT1_T2_EENSt15regex_constants15match_flag_typeE
FN:130,_ZNKSt7__cxx1112regex_traitsIcE18lookup_collatenameIPKcEENS_12basic_stringIcSt11char_traitsIcESaIcEEET_SA_
FN:286,_ZNKSt7__cxx1112regex_traitsIcE16lookup_classnameIPKcEENS1_10_RegexMaskET_S6_b
FN:330,_ZNKSt7__cxx1112regex_traitsIcE7isctypeEcNS1_10_RegexMaskE
FN:344,_ZNKSt7__cxx1112regex_traitsIcE5valueEci
FNDA:9325,_ZNSt8__detail17__regex_algo_implIN9__gnu_cxx17__normal_iteratorIPKcNSt7__cxx1112basic_stringIcSt11char_traitsIcESaIcEEEEESaINS5_9sub_matchISB_EEEcNS5_12regex_traitsIcEELNS_20_RegexExecutorPolicyE0ELb0EEEbT_SI_RNS5_13match_resultsISI_T0_EERKNS5_11basic_regexIT1_T2_EENSt15regex_constants15match_flag_typeE
FNDA:0,_ZNKSt7__cxx1112regex_traitsIcE18lookup_collatenameIPKcEENS_12basic_stringIcSt11char_traitsIcESaIcEEET_SA_
FNDA:84,_ZNKSt7__cxx1112regex_traitsIcE16lookup_classnameIPKcEENS1_10_RegexMaskET_S6_b
FNDA:591656,_ZNKSt7__cxx1112regex_traitsIcE7isctypeEcNS1_10_RegexMaskE
FNDA:120,_ZNKSt7__cxx1112regex_traitsIcE5valueEci
FNF:5
FNH:4
DA:48,9325
DA:54,9325
DA:55,0
DA:57,9325
DA:58,9325
DA:59,9325
DA:60,46984
DA:61,37659
DA:64,18650
DA:65,9325
DA:69,0
DA:73,0
DA:78,18650
DA:82,9325
DA:84,9325
DA:86,35361
DA:87,28353
DA:88,21026
DA:89,7008
DA:90,7008
DA:102,7008
DA:103,7008
DA:104,7008
DA:105,7008
DA:106,7008
DA:107,7008
DA:112,2317
DA:113,9268
DA:115,6951
DA:116,6951
DA:119,9325
DA:130,0
DA:134,0
DA:268,0
DA:269,0
DA:270,0
DA:272,0
DA:273,0
DA:274,0
DA:275,0
DA:280,0
DA:286,84
DA:290,84
DA:312,168
DA:313,252
DA:314,84
DA:316,84
DA:317,84
DA:319,84
DA:320,84
DA:321,84
DA:322,0
DA:323,84
DA:325,0
DA:330,591656
DA:334,591656
DA:336,591656
DA:338,1184152
DA:339,591656
DA:344,120
DA:347,240
DA:349,120
DA:350,0
DA:351,120
DA:352,0
DA:353,120
DA:354,240
LF:67
LH:50
end_of_record
SF:/usr/include/c++/7/bits/regex_automaton.h
FN:98,_ZNSt8__detail11_State_baseC2ENS_7_OpcodeE
FN:104,_ZNSt8__detail11_State_base10_M_has_altEv
FN:133,_ZNSt8__detail6_StateIcEC2ENS_7_OpcodeE
FN:139,_ZNSt8__detail6_StateIcEC2ERKS1_
FN:146,_ZNSt8__detail6_StateIcEC2EOS1_
FN:156,_ZNSt8__detail6_StateIcED2Ev
FN:165,_ZNKSt8__detail6_StateIcE9_M_opcodeEv
FN:169,_ZNKSt8__detail6_StateIcE10_M_matchesEc
FN:173,_ZNSt8__detail6_StateIcE14_M_get_matcherEv
FN:177,_ZNKSt8__detail6_StateIcE14_M_get_matcherEv
FN:190,_ZNSt8__detail9_NFA_baseC2ENSt15regex_constants18syntax_option_typeE
FN:198,_ZNSt8__detail9_NFA_baseD2Ev
FN:206,_ZNKSt8__detail9_NFA_base8_M_startEv
FN:210,_ZNKSt8__detail9_NFA_base12_M_sub_countEv
FN:221,_ZNSt8__detail4_NFAINSt7__cxx1112regex_traitsIcEEED2Ev
FN:228,_ZNSt8__detail4_NFAINSt7__cxx1112regex_traitsIcEEEC2ERKSt6localeNSt15regex_constants18syntax_option_typeE
FN:237,_ZNSt8__detail4_NFAINSt7__cxx1112regex_traitsIcEEE16_M_insert_acceptEv
FN:244,_ZNSt8__detail4_NFAINSt7__cxx1112regex_traitsIcEEE13_M_insert_altEllb
FN:256,_ZNSt8__detail4_NFAINSt7__cxx1112regex_traitsIcEEE16_M_insert_repeatEllb
FN:268,_ZNSt8__detail4_NFAINSt7__cxx1112regex_traitsIcEEE17_M_insert_matcherESt8functionIFbcEE
FN:276,_ZNSt8__detail4_NFAINSt7__cxx1112regex_traitsIcEEE23_M_insert_subexpr_beginEv
FN:286,_ZNSt8__detail4_NFAINSt7__cxx1112regex_traitsIcEEE21_M_insert_subexpr_endEv
FN:298,_ZNSt8__detail4_NFAINSt7__cxx1112regex_traitsIcEEE20_M_insert_line_beginEv
FN:302,_ZNSt8__detail4_NFAINSt7__cxx1112regex_traitsIcEEE18_M_insert_line_endEv
FN:306,_ZNSt8__detail4_NFAINSt7__cxx1112regex_traitsIcEEE20_M_insert_word_boundEb
FN:314,_ZNSt8__detail4_NFAINSt7__cxx1112regex_traitsIcEEE19_M_insert_lookaheadElb
FN:323,_ZNSt8__detail4_NFAINSt7__cxx1112regex_traitsIcEEE15_M_insert_dummyEv
FN:327,_ZNSt8__detail4_NFAINSt7__cxx1112regex_traitsIcEEE15_M_insert_stateENS_6_StateIcEE
FN:361,_ZNSt8__detail9_StateSeqINSt7__cxx1112regex_traitsIcEEEC2ERNS_4_NFAIS3_EEl
FN:365,_ZNSt8__detail9_StateSeqINSt7__cxx1112regex_traitsIcEEEC2ERNS_4_NFAIS3_EEll
FN:371,_ZNSt8__detail9_StateSeqINSt7__cxx1112regex_traitsIcEEE9_M_appendEl
FN:379,_ZNSt8__detail9_StateSeqINSt7__cxx1112regex_traitsIcEEE9_M_appendERKS4_
FNDA:31104,_ZNSt8__detail11_State_baseC2ENS_7_OpcodeE
FNDA:31524,_ZNSt8__detail11_State_base10_M_has_altEv
FNDA:31104,_ZNSt8__detail6_StateIcEC2ENS_7_OpcodeE
FNDA:39013,_ZNSt8__detail6_StateIcEC2ERKS1_
FNDA:51858,_ZNSt8__detail6_StateIcEC2EOS1_
FNDA:121975,_ZNSt8__detail6_StateIcED2Ev
FNDA:618957,_ZNKSt8__detail6_StateIcE9_M_opcodeEv
FNDA:157642,_ZNKSt8__detail6_StateIcE10_M_matchesEc
FNDA:96346,_ZNSt8__detail6_StateIcE14_M_get_matcherEv
FNDA:177582,_ZNKSt8__detail6_StateIcE14_M_get_matcherEv
FNDA:2327,_ZNSt8__detail9_NFA_baseC2ENSt15regex_constants18syntax_option_typeE
FNDA:2327,_ZNSt8__detail9_NFA_baseD2Ev
FNDA:11652,_ZNKSt8__detail9_NFA_base8_M_startEv
FNDA:9325,_ZNKSt8__detail9_NFA_base12_M_sub_countEv
FNDA:2327,_ZNSt8__detail4_NFAINSt7__cxx1112regex_traitsIcEEED2Ev
FNDA:2327,_ZNSt8__detail4_NFAINSt7__cxx1112regex_traitsIcEEEC2ERKSt6localeNSt15regex_constants18syntax_option_typeE
FNDA:2327,_ZNSt8__detail4_NFAINSt7__cxx1112regex_traitsIcEEE16_M_insert_acceptEv
FNDA:2875,_ZNSt8__detail4_NFAINSt7__cxx1112regex_traitsIcEEE13_M_insert_altEllb
FNDA:116,_ZNSt8__detail4_NFAINSt7__cxx1112regex_traitsIcEEE16_M_insert_repeatEllb
FNDA:12641,_ZNSt8__detail4_NFAINSt7__cxx1112regex_traitsIcEEE17_M_insert_matcherESt8functionIFbcEE
FNDA:2421,_ZNSt8__detail4_NFAINSt7__cxx1112regex_traitsIcEEE23_M_insert_subexpr_beginEv
FNDA:2421,_ZNSt8__detail4_NFAINSt7__cxx1112regex_traitsIcEEE21_M_insert_subexpr_endEv
FNDA:0,_ZNSt8__detail4_NFAINSt7__cxx1112regex_traitsIcEEE20_M_insert_line_beginEv
FNDA:0,_ZNSt8__detail4_NFAINSt7__cxx1112regex_traitsIcEEE18_M_insert_line_endEv
FNDA:0,_ZNSt8__detail4_NFAINSt7__cxx1112regex_traitsIcEEE20_M_insert_word_boundEb
FNDA:0,_ZNSt8__detail4_NFAINSt7__cxx1112regex_traitsIcEEE19_M_insert_lookaheadElb
FNDA:8303,_ZNSt8__detail4_NFAINSt7__cxx1112regex_traitsIcEEE15_M_insert_dummyEv
FNDA:31244,_ZNSt8__detail4_NFAINSt7__cxx1112regex_traitsIcEEE15_M_insert_stateENS_6_StateIcEE
FNDA:20430,_ZNSt8__detail9_StateSeqINSt7__cxx1112regex_traitsIcEEEC2ERNS_4_NFAIS3_EEl
FNDA:3095,_ZNSt8__detail9_StateSeqINSt7__cxx1112regex_traitsIcEEEC2ERNS_4_NFAIS3_EEll
FNDA:12933,_ZNSt8__detail9_StateSeqINSt7__cxx1112regex_traitsIcEEE9_M_appendEl
FNDA:15296,_ZNSt8__detail9_StateSeqINSt7__cxx1112regex_traitsIcEEE9_M_appendERKS4_
FNF:32
FNH:28
DA:98,31104
DA:99,31104
DA:100,31104
DA:104,31524
DA:106,31524
DA:107,28649
DA:108,60057
DA:133,31104
DA:135,31104
DA:136,12641
DA:137,31104
DA:139,39013
DA:141,39013
DA:142,19940
DA:144,39013
DA:146,51858
DA:148,51858
DA:149,25562
DA:150,25562
DA:151,51858
DA:156,121975
DA:158,121975
DA:159,58143
DA:160,121975
DA:165,618957
DA:166,618957
DA:169,157642
DA:170,157642
DA:173,96346
DA:174,96346
DA:177,177582
DA:180,177582
DA:190,2327
DA:191,2327
DA:192,2327
DA:193,2327
DA:198,2327
DA:206,11652
DA:207,11652
DA:210,9325
DA:211,9325
DA:221,2327
DA:228,2327
DA:229,2327
DA:230,2327
DA:237,2327
DA:239,2327
DA:240,2327
DA:244,2875
DA:247,5750
DA:250,2875
DA:251,2875
DA:252,5750
DA:256,116
DA:258,232
DA:261,116
DA:262,116
DA:263,116
DA:264,232
DA:268,12641
DA:270,25282
DA:271,12641
DA:272,25282
DA:276,2421
DA:278,2421
DA:279,2421
DA:280,4842
DA:281,2421
DA:282,4842
DA:286,2421
DA:288,4842
DA:289,2421
DA:290,2421
DA:291,4842
DA:298,0
DA:299,0
DA:302,0
DA:303,0
DA:306,0
DA:308,0
DA:309,0
DA:310,0
DA:314,0
DA:316,0
DA:317,0
DA:318,0
DA:319,0
DA:323,8303
DA:324,8303
DA:327,31244
DA:329,31244
DA:330,31244
DA:331,0
DA:336,31244
DA:361,20430
DA:362,20430
DA:363,20430
DA:365,3095
DA:366,3095
DA:367,3095
DA:371,12933
DA:373,12933
DA:374,12933
DA:375,12933
DA:379,15296
DA:381,15296
DA:382,15296
DA:383,15296
LF:108
LH:94
end_of_record
SF:/usr/include/c++/7/bits/regex_automaton.tcc
FN:149,_ZNSt8__detail4_NFAINSt7__cxx1112regex_traitsIcEEE17_M_insert_backrefEm
FN:178,_ZNSt8__detail4_NFAINSt7__cxx1112regex_traitsIcEEE18_M_eliminate_dummyEv
FN:195,_ZNSt8__detail9_StateSeqINSt7__cxx1112regex_traitsIcEEE8_M_cloneEv
FNDA:0,_ZNSt8__detail4_NFAINSt7__cxx1112regex_traitsIcEEE17_M_insert_backrefEm
FNDA:2327,_ZNSt8__detail4_NFAINSt7__cxx1112regex_traitsIcEEE18_M_eliminate_dummyEv
FNDA:140,_ZNSt8__detail9_StateSeqINSt7__cxx1112regex_traitsIcEEE8_M_cloneEv
FNF:3
FNH:2
DA:149,0
DA:151,0
DA:152,0
DA:161,0
DA:162,0
DA:165,0
DA:166,0
DA:167,0
DA:170,0
DA:171,0
DA:172,0
DA:173,0
DA:178,2327
DA:180,33571
DA:182,233021
DA:183,86497
DA:184,57640
DA:185,31244
DA:186,5982
DA:187,2991
DA:188,0
DA:190,2327
DA:195,140
DA:197,280
DA:198,280
DA:199,140
DA:200,420
DA:202,140
DA:203,140
DA:204,140
DA:206,140
DA:207,140
DA:208,140
DA:209,0
DA:210,0
DA:211,0
DA:212,140
DA:213,140
DA:214,0
DA:215,0
DA:216,0
DA:218,280
DA:220,140
DA:221,140
DA:222,140
DA:225,0
DA:227,140
DA:228,0
DA:231,0
DA:234,280
LF:50
LH:28
end_of_record
SF:/usr/include/c++/7/bits/regex_compiler.h
FN:60,_ZNSt8__detail9_CompilerINSt7__cxx1112regex_traitsIcEEED2Ev
FN:72,_ZNSt8__detail9_CompilerINSt7__cxx1112regex_traitsIcEEE10_M_get_nfaEv
FN:143,_ZNSt8__detail9_CompilerINSt7__cxx1112regex_traitsIcEEE6_M_popEv
FN:196,_ZNSt8__detail13__compile_nfaIPKcNSt7__cxx1112regex_traitsIcEEEENSt9enable_ifIXsrNS_27__is_contiguous_normal_iterIT_EE5valueESt10shared_ptrIKNS_4_NFAIT0_EEEE4typeES8_S8_RKNSC_11locale_typeENSt15regex_constants18syntax_option_typeE
FN:228,_ZNSt8__detail20_RegexTranslatorBaseINSt7__cxx1112regex_traitsIcEELb1ELb1EEC2ERKS3_
FN:228,_ZNSt8__detail20_RegexTranslatorBaseINSt7__cxx1112regex_traitsIcEELb0ELb1EEC2ERKS3_
FN:228,_ZNSt8__detail20_RegexTranslatorBaseINSt7__cxx1112regex_traitsIcEELb1ELb0EEC2ERKS3_
FN:233,_ZNKSt8__detail20_RegexTranslatorBaseINSt7__cxx1112regex_traitsIcEELb0ELb1EE12_M_translateEc
FN:233,_ZNKSt8__detail20_RegexTranslatorBaseINSt7__cxx1112regex_traitsIcEELb1ELb0EE12_M_translateEc
FN:233,_ZNKSt8__detail20_RegexTranslatorBaseINSt7__cxx1112regex_traitsIcEELb1ELb1EE12_M_translateEc
FN:244,_ZNKSt8__detail20_RegexTranslatorBaseINSt7__cxx1112regex_traitsIcEELb0ELb1EE12_M_transformEc
FN:244,_ZNKSt8__detail20_RegexTranslatorBaseINSt7__cxx1112regex_traitsIcEELb1ELb1EE12_M_transformEc
FN:254,_ZNKSt8__detail20_RegexTranslatorBaseINSt7__cxx1112regex_traitsIcEELb0ELb1EE14_M_match_rangeERKNS1_12basic_stringIcSt11char_traitsIcESaIcEEESB_SB_
FN:259,_ZNKSt8__detail20_RegexTranslatorBaseINSt7__cxx1112regex_traitsIcEELb1ELb1EE17_M_in_range_icaseEccc
FN:259,_ZNKSt8__detail20_RegexTranslatorBaseINSt7__cxx1112regex_traitsIcEELb1ELb0EE17_M_in_range_icaseEccc
FN:278,_ZNSt8__detail16_RegexTranslatorINSt7__cxx1112regex_traitsIcEELb0ELb1EECI2NS_20_RegexTranslatorBaseIS3_Lb0ELb1EEEERKS3_
FN:290,_ZNSt8__detail16_RegexTranslatorINSt7__cxx1112regex_traitsIcEELb1ELb0EECI2NS_20_RegexTranslatorBaseIS3_Lb1ELb0EEEERKS3_
FN:293,_ZNKSt8__detail16_RegexTranslatorINSt7__cxx1112regex_traitsIcEELb1ELb0EE12_M_transformEc
FN:297,_ZNKSt8__detail16_RegexTranslatorINSt7__cxx1112regex_traitsIcEELb1ELb0EE14_M_match_rangeEccc
FN:315,_ZNSt8__detail16_RegexTranslatorINSt7__cxx1112regex_traitsIcEELb1ELb1EECI2NS_20_RegexTranslatorBaseIS3_Lb1ELb1EEEERKS3_
FN:318,_ZNKSt8__detail16_RegexTranslatorINSt7__cxx1112regex_traitsIcEELb1ELb1EE14_M_match_rangeERKNS1_12basic_stringIcSt11char_traitsIcESaIcEEESB_SB_
FN:336,_ZNSt8__detail16_RegexTranslatorINSt7__cxx1112regex_traitsIcEELb0ELb0EEC2ERKS3_
FN:340,_ZNKSt8__detail16_RegexTranslatorINSt7__cxx1112regex_traitsIcEELb0ELb0EE12_M_translateEc
FN:344,_ZNKSt8__detail16_RegexTranslatorINSt7__cxx1112regex_traitsIcEELb0ELb0EE12_M_transformEc
FN:348,_ZNKSt8__detail16_RegexTranslatorINSt7__cxx1112regex_traitsIcEELb0ELb0EE14_M_match_rangeEccc
FN:362,_ZNSt8__detail11_AnyMatcherINSt7__cxx1112regex_traitsIcEELb0ELb1ELb1EEC2ERKS3_
FN:362,_ZNSt8__detail11_AnyMatcherINSt7__cxx1112regex_traitsIcEELb0ELb1ELb0EEC2ERKS3_
FN:362,_ZNSt8__detail11_AnyMatcherINSt7__cxx1112regex_traitsIcEELb0ELb0ELb0EEC2ERKS3_
FN:362,_ZNSt8__detail11_AnyMatcherINSt7__cxx1112regex_traitsIcEELb0ELb0ELb1EEC2ERKS3_
FN:367,_ZNKSt8__detail11_AnyMatcherINSt7__cxx1112regex_traitsIcEELb0ELb1ELb1EEclEc
FN:367,_ZNKSt8__detail11_AnyMatcherINSt7__cxx1112regex_traitsIcEELb0ELb1ELb0EEclEc
FN:367,_ZNKSt8__detail11_AnyMatcherINSt7__cxx1112regex_traitsIcEELb0ELb0ELb0EEclEc
FN:367,_ZNKSt8__detail11_AnyMatcherINSt7__cxx1112regex_traitsIcEELb0ELb0ELb1EEclEc
FN:383,_ZNSt8__detail11_AnyMatcherINSt7__cxx1112regex_traitsIcEELb1ELb0ELb0EEC2ERKS3_
FN:383,_ZNSt8__detail11_AnyMatcherINSt7__cxx1112regex_traitsIcEELb1ELb1ELb0EEC2ERKS3_
FN:383,_ZNSt8__detail11_AnyMatcherINSt7__cxx1112regex_traitsIcEELb1ELb0ELb1EEC2ERKS3_
FN:383,_ZNSt8__detail11_AnyMatcherINSt7__cxx1112regex_traitsIcEELb1ELb1ELb1EEC2ERKS3_
FN:388,_ZNKSt8__detail11_AnyMatcherINSt7__cxx1112regex_traitsIcEELb1ELb1ELb1EEclEc
FN:388,_ZNKSt8__detail11_AnyMatcherINSt7__cxx1112regex_traitsIcEELb1ELb0ELb1EEclEc
FN:388,_ZNKSt8__detail11_AnyMatcherINSt7__cxx1112regex_traitsIcEELb1ELb0ELb0EEclEc
FN:388,_ZNKSt8__detail11_AnyMatcherINSt7__cxx1112regex_traitsIcEELb1ELb1ELb0EEclEc
FN:392,_ZNKSt8__detail11_AnyMatcherINSt7__cxx1112regex_traitsIcEELb1ELb1ELb0EE8_M_applyEcSt17integral_constantIbLb1EE
FN:392,_ZNKSt8__detail11_AnyMatcherINSt7__cxx1112regex_traitsIcEELb1ELb0ELb1EE8_M_applyEcSt17integral_constantIbLb1EE
FN:392,_ZNKSt8__detail11_AnyMatcherINSt7__cxx1112regex_traitsIcEELb1ELb0ELb0EE8_M_applyEcSt17integral_constantIbLb1EE
FN:392,_ZNKSt8__detail11_AnyMatcherINSt7__cxx1112regex_traitsIcEELb1ELb1ELb1EE8_M_applyEcSt17integral_constantIbLb1EE
FN:420,_ZNSt8__detail12_CharMatcherINSt7__cxx1112regex_traitsIcEELb0ELb0EEC2EcRKS3_
FN:420,_ZNSt8__detail12_CharMatcherINSt7__cxx1112regex_traitsIcEELb1ELb0EEC2EcRKS3_
FN:420,_ZNSt8__detail12_CharMatcherINSt7__cxx1112regex_traitsIcEELb0ELb1EEC2EcRKS3_
FN:420,_ZNSt8__detail12_CharMatcherINSt7__cxx1112regex_traitsIcEELb1ELb1EEC2EcRKS3_
FN:425,_ZNKSt8__detail12_CharMatcherINSt7__cxx1112regex_traitsIcEELb1ELb1EEclEc
FN:425,_ZNKSt8__detail12_CharMatcherINSt7__cxx1112regex_traitsIcEELb0ELb1EEclEc
FN:425,_ZNKSt8__detail12_CharMatcherINSt7__cxx1112regex_traitsIcEELb1ELb0EEclEc
FN:425,_ZNKSt8__detail12_CharMatcherINSt7__cxx1112regex_traitsIcEELb0ELb0EEclEc
FN:434,_ZNSt8__detail15_BracketMatcherINSt7__cxx1112regex_traitsIcEELb0ELb1EEC2EOS4_
FN:434,_ZNSt8__detail15_BracketMatcherINSt7__cxx1112regex_traitsIcEELb0ELb0EED2Ev
FN:434,_ZNSt8__detail15_BracketMatcherINSt7__cxx1112regex_traitsIcEELb1ELb0EED2Ev
FN:434,_ZNSt8__detail15_BracketMatcherINSt7__cxx1112regex_traitsIcEELb1ELb0EEC2ERKS4_
FN:434,_ZNSt8__detail15_BracketMatcherINSt7__cxx1112regex_traitsIcEELb1ELb0EEC2EOS4_
FN:434,_ZNSt8__detail15_BracketMatcherINSt7__cxx1112regex_traitsIcEELb0ELb0EEC2ERKS4_
FN:434,_ZNSt8__detail15_BracketMatcherINSt7__cxx1112regex_traitsIcEELb1ELb1EED2Ev
FN:434,_ZNSt8__detail15_BracketMatcherINSt7__cxx1112regex_traitsIcEELb0ELb1EEC2ERKS4_
FN:434,_ZNSt8__detail15_BracketMatcherINSt7__cxx1112regex_traitsIcEELb0ELb0EEC2EOS4_
FN:434,_ZNSt8__detail15_BracketMatcherINSt7__cxx1112regex_traitsIcEELb0ELb1EED2Ev
FN:434,_ZNSt8__detail15_BracketMatcherINSt7__cxx1112regex_traitsIcEELb1ELb1EEC2EOS4_
FN:434,_ZNSt8__detail15_BracketMatcherINSt7__cxx1112regex_traitsIcEELb1ELb1EEC2ERKS4_
FN:444,_ZNSt8__detail15_BracketMatcherINSt7__cxx1112regex_traitsIcEELb0ELb0EEC2EbRKS3_
FN:444,_ZNSt8__detail15_BracketMatcherINSt7__cxx1112regex_traitsIcEELb1ELb1EEC2EbRKS3_
FN:444,_ZNSt8__detail15_BracketMatcherINSt7__cxx1112regex_traitsIcEELb0ELb1EEC2EbRKS3_
FN:444,_ZNSt8__detail15_BracketMatcherINSt7__cxx1112regex_traitsIcEELb1ELb0EEC2EbRKS3_
FN:451,_ZNKSt8__detail15_BracketMatcherINSt7__cxx1112regex_traitsIcEELb1ELb0EEclEc
FN:451,_ZNKSt8__detail15_BracketMatcherINSt7__cxx1112regex_traitsIcEELb0ELb0EEclEc
FN:451,_ZNKSt8__detail15_BracketMatcherINSt7__cxx1112regex_traitsIcEELb1ELb1EEclEc
FN:451,_ZNKSt8__detail15_BracketMatcherINSt7__cxx1112regex_traitsIcEELb0ELb1EEclEc
FN:458,_ZNSt8__detail15_BracketMatcherINSt7__cxx1112regex_traitsIcEELb0ELb0EE11_M_add_charEc
FN:458,_ZNSt8__detail15_BracketMatcherINSt7__cxx1112regex_traitsIcEELb1ELb0EE11_M_add_charEc
FN:458,_ZNSt8__detail15_BracketMatcherINSt7__cxx1112regex_traitsIcEELb1ELb1EE11_M_add_charEc
FN:458,_ZNSt8__detail15_BracketMatcherINSt7__cxx1112regex_traitsIcEELb0ELb1EE11_M_add_charEc
FN:465,_ZNSt8__detail15_BracketMatcherINSt7__cxx1112regex_traitsIcEELb1ELb1EE22_M_add_collate_elementERKNS1_12basic_stringIcSt11char_traitsIcESaIcEEE
FN:465,_ZNSt8__detail15_BracketMatcherINSt7__cxx1112regex_traitsIcEELb0ELb0EE22_M_add_collate_elementERKNS1_12basic_stringIcSt11char_traitsIcESaIcEEE
FN:465,_ZNSt8__detail15_BracketMatcherINSt7__cxx1112regex_traitsIcEELb1ELb0EE22_M_add_collate_elementERKNS1_12basic_stringIcSt11char_traitsIcESaIcEEE
FN:465,_ZNSt8__detail15_BracketMatcherINSt7__cxx1112regex_traitsIcEELb0ELb1EE22_M_add_collate_elementERKNS1_12basic_stringIcSt11char_traitsIcESaIcEEE
FN:478,_ZNSt8__detail15_BracketMatcherINSt7__cxx1112regex_traitsIcEELb1ELb1EE24_M_add_equivalence_classERKNS1_12basic_stringIcSt11char_traitsIcESaIcEEE
FN:478,_ZNSt8__detail15_BracketMatcherINSt7__cxx1112regex_traitsIcEELb0ELb0EE24_M_add_equivalence_classERKNS1_12basic_stringIcSt11char_traitsIcESaIcEEE
FN:478,_ZNSt8__detail15_BracketMatcherINSt7__cxx1112regex_traitsIcEELb1ELb0EE24_M_add_equivalence_classERKNS1_12basic_stringIcSt11char_traitsIcESaIcEEE
FN:478,_ZNSt8__detail15_BracketMatcherINSt7__cxx1112regex_traitsIcEELb0ELb1EE24_M_add_equivalence_classERKNS1_12basic_stringIcSt11char_traitsIcESaIcEEE
FN:493,_ZNSt8__detail15_BracketMatcherINSt7__cxx1112regex_traitsIcEELb0ELb1EE22_M_add_character_classERKNS1_12basic_stringIcSt11char_traitsIcESaIcEEEb
FN:493,_ZNSt8__detail15_BracketMatcherINSt7__cxx1112regex_traitsIcEELb1ELb1EE22_M_add_character_classERKNS1_12basic_stringIcSt11char_traitsIcESaIcEEEb
FN:493,_ZNSt8__detail15_BracketMatcherINSt7__cxx1112regex_traitsIcEELb1ELb0EE22_M_add_character_classERKNS1_12basic_stringIcSt11char_traitsIcESaIcEEEb
FN:493,_ZNSt8__detail15_BracketMatcherINSt7__cxx1112regex_traitsIcEELb0ELb0EE22_M_add_character_classERKNS1_12basic_stringIcSt11char_traitsIcESaIcEEEb
FN:509,_ZNSt8__detail15_BracketMatcherINSt7__cxx1112regex_traitsIcEELb1ELb0EE13_M_make_rangeEcc
FN:509,_ZNSt8__detail15_BracketMatcherINSt7__cxx1112regex_traitsIcEELb0ELb1EE13_M_make_rangeEcc
FN:509,_ZNSt8__detail15_BracketMatcherINSt7__cxx1112regex_traitsIcEELb1ELb1EE13_M_make_rangeEcc
FN:509,_ZNSt8__detail15_BracketMatcherINSt7__cxx1112regex_traitsIcEELb0ELb0EE13_M_make_rangeEcc
FN:520,_ZNSt8__detail15_BracketMatcherINSt7__cxx1112regex_traitsIcEELb1ELb0EE8_M_readyEv
FN:520,_ZNSt8__detail15_BracketMatcherINSt7__cxx1112regex_traitsIcEELb1ELb1EE8_M_readyEv
FN:520,_ZNSt8__detail15_BracketMatcherINSt7__cxx1112regex_traitsIcEELb0ELb0EE8_M_readyEv
FN:520,_ZNSt8__detail15_BracketMatcherINSt7__cxx1112regex_traitsIcEELb0ELb1EE8_M_readyEv
FN:549,_ZNKSt8__detail15_BracketMatcherINSt7__cxx1112regex_traitsIcEELb1ELb1EE8_M_applyEcSt17integral_constantIbLb1EE
FN:549,_ZNKSt8__detail15_BracketMatcherINSt7__cxx1112regex_traitsIcEELb1ELb0EE8_M_applyEcSt17integral_constantIbLb1EE
FN:549,_ZNKSt8__detail15_BracketMatcherINSt7__cxx1112regex_traitsIcEELb0ELb0EE8_M_applyEcSt17integral_constantIbLb1EE
FN:549,_ZNKSt8__detail15_BracketMatcherINSt7__cxx1112regex_traitsIcEELb0ELb1EE8_M_applyEcSt17integral_constantIbLb1EE
FN:553,_ZNSt8__detail15_BracketMatcherINSt7__cxx1112regex_traitsIcEELb0ELb1EE13_M_make_cacheESt17integral_constantIbLb1EE
FN:553,_ZNSt8__detail15_BracketMatcherINSt7__cxx1112regex_traitsIcEELb0ELb0EE13_M_make_cacheESt17integral_constantIbLb1EE
FN:553,_ZNSt8__detail15_BracketMatcherINSt7__cxx1112regex_traitsIcEELb1ELb1EE13_M_make_cacheESt17integral_constantIbLb1EE
FN:553,_ZNSt8__detail15_BracketMatcherINSt7__cxx1112regex_traitsIcEELb1ELb0EE13_M_make_cacheESt17integral_constantIbLb1EE
FNDA:2327,_ZNSt8__detail9_CompilerINSt7__cxx1112regex_traitsIcEEED2Ev
FNDA:2327,_ZNSt8__detail9_CompilerINSt7__cxx1112regex_traitsIcEEE10_M_get_nfaEv
FNDA:33737,_ZNSt8__detail9_CompilerINSt7__cxx1112regex_traitsIcEEE6_M_popEv
FNDA:2327,_ZNSt8__detail13__compile_nfaIPKcNSt7__cxx1112regex_traitsIcEEEENSt9enable_ifIXsrNS_27__is_contiguous_normal_iterIT_EE5valueESt10shared_ptrIKNS_4_NFAIT0_EEEE4typeES8_S8_RKNSC_11locale_typeENSt15regex_constants18syntax_option_typeE
FNDA:0,_ZNSt8__detail20_RegexTranslatorBaseINSt7__cxx1112regex_traitsIcEELb1ELb1EEC2ERKS3_
FNDA:0,_ZNSt8__detail20_RegexTranslatorBaseINSt7__cxx1112regex_traitsIcEELb1ELb0EEC2ERKS3_
FNDA:0,_ZNSt8__detail20_RegexTranslatorBaseINSt7__cxx1112regex_traitsIcEELb0ELb1EEC2ERKS3_
FNDA:0,_ZNKSt8__detail20_RegexTranslatorBaseINSt7__cxx1112regex_traitsIcEELb1ELb1EE12_M_translateEc
FNDA:0,_ZNKSt8__detail20_RegexTranslatorBaseINSt7__cxx1112regex_traitsIcEELb1ELb0EE12_M_translateEc
FNDA:0,_ZNKSt8__detail20_RegexTranslatorBaseINSt7__cxx1112regex_traitsIcEELb0ELb1EE12_M_translateEc
FNDA:0,_ZNKSt8__detail20_RegexTranslatorBaseINSt7__cxx1112regex_traitsIcEELb1ELb1EE12_M_transformEc
FNDA:0,_ZNKSt8__detail20_RegexTranslatorBaseINSt7__cxx1112regex_traitsIcEELb0ELb1EE12_M_transformEc
FNDA:0,_ZNKSt8__detail20_RegexTranslatorBaseINSt7__cxx1112regex_traitsIcEELb0ELb1EE14_M_match_rangeERKNS1_12basic_stringIcSt11char_traitsIcESaIcEEESB_SB_
FNDA:0,_ZNKSt8__detail20_RegexTranslatorBaseINSt7__cxx1112regex_traitsIcEELb1ELb1EE17_M_in_range_icaseEccc
FNDA:0,_ZNKSt8__detail20_RegexTranslatorBaseINSt7__cxx1112regex_traitsIcEELb1ELb0EE17_M_in_range_icaseEccc
FNDA:0,_ZNSt8__detail16_RegexTranslatorINSt7__cxx1112regex_traitsIcEELb0ELb1EECI2NS_20_RegexTranslatorBaseIS3_Lb0ELb1EEEERKS3_
FNDA:0,_ZNSt8__detail16_RegexTranslatorINSt7__cxx1112regex_traitsIcEELb1ELb0EECI2NS_20_RegexTranslatorBaseIS3_Lb1ELb0EEEERKS3_
FNDA:0,_ZNKSt8__detail16_RegexTranslatorINSt7__cxx1112regex_traitsIcEELb1ELb0EE12_M_transformEc
FNDA:0,_ZNKSt8__detail16_RegexTranslatorINSt7__cxx1112regex_traitsIcEELb1ELb0EE14_M_match_rangeEccc
FNDA:0,_ZNSt8__detail16_RegexTranslatorINSt7__cxx1112regex_traitsIcEELb1ELb1EECI2NS_20_RegexTranslatorBaseIS3_Lb1ELb1EEEERKS3_
FNDA:0,_ZNKSt8__detail16_RegexTranslatorINSt7__cxx1112regex_traitsIcEELb1ELb1EE14_M_match_rangeERKNS1_12basic_stringIcSt11char_traitsIcESaIcEEESB_SB_
FNDA:12641,_ZNSt8__detail16_RegexTranslatorINSt7__cxx1112regex_traitsIcEELb0ELb0EEC2ERKS3_
FNDA:774482,_ZNKSt8__detail16_RegexTranslatorINSt7__cxx1112regex_traitsIcEELb0ELb0EE12_M_translateEc
FNDA:591656,_ZNKSt8__detail16_RegexTranslatorINSt7__cxx1112regex_traitsIcEELb0ELb0EE12_M_transformEc
FNDA:0,_ZNKSt8__detail16_RegexTranslatorINSt7__cxx1112regex_traitsIcEELb0ELb0EE14_M_match_rangeEccc
FNDA:0,_ZNSt8__detail11_AnyMatcherINSt7__cxx1112regex_traitsIcEELb0ELb1ELb1EEC2ERKS3_
FNDA:0,_ZNSt8__detail11_AnyMatcherINSt7__cxx1112regex_traitsIcEELb0ELb1ELb0EEC2ERKS3_
FNDA:0,_ZNSt8__detail11_AnyMatcherINSt7__cxx1112regex_traitsIcEELb0ELb0ELb1EEC2ERKS3_
FNDA:0,_ZNSt8__detail11_AnyMatcherINSt7__cxx1112regex_traitsIcEELb0ELb0ELb0EEC2ERKS3_
FNDA:0,_ZNKSt8__detail11_AnyMatcherINSt7__cxx1112regex_traitsIcEELb0ELb1ELb1EEclEc
FNDA:0,_ZNKSt8__detail11_AnyMatcherINSt7__cxx1112regex_traitsIcEELb0ELb1ELb0EEclEc
FNDA:0,_ZNKSt8__detail11_AnyMatcherINSt7__cxx1112regex_traitsIcEELb0ELb0ELb1EEclEc
FNDA:0,_ZNKSt8__detail11_AnyMatcherINSt7__cxx1112regex_traitsIcEELb0ELb0ELb0EEclEc
FNDA:0,_ZNSt8__detail11_AnyMatcherINSt7__cxx1112regex_traitsIcEELb1ELb1ELb1EEC2ERKS3_
FNDA:0,_ZNSt8__detail11_AnyMatcherINSt7__cxx1112regex_traitsIcEELb1ELb1ELb0EEC2ERKS3_
FNDA:0,_ZNSt8__detail11_AnyMatcherINSt7__cxx1112regex_traitsIcEELb1ELb0ELb1EEC2ERKS3_
FNDA:0,_ZNSt8__detail11_AnyMatcherINSt7__cxx1112regex_traitsIcEELb1ELb0ELb0EEC2ERKS3_
FNDA:0,_ZNKSt8__detail11_AnyMatcherINSt7__cxx1112regex_traitsIcEELb1ELb1ELb1EEclEc
FNDA:0,_ZNKSt8__detail11_AnyMatcherINSt7__cxx1112regex_traitsIcEELb1ELb1ELb0EEclEc
FNDA:0,_ZNKSt8__detail11_AnyMatcherINSt7__cxx1112regex_traitsIcEELb1ELb0ELb1EEclEc
FNDA:0,_ZNKSt8__detail11_AnyMatcherINSt7__cxx1112regex_traitsIcEELb1ELb0ELb0EEclEc
FNDA:0,_ZNKSt8__detail11_AnyMatcherINSt7__cxx1112regex_traitsIcEELb1ELb1ELb1EE8_M_applyEcSt17integral_constantIbLb1EE
FNDA:0,_ZNKSt8__detail11_AnyMatcherINSt7__cxx1112regex_traitsIcEELb1ELb1ELb0EE8_M_applyEcSt17integral_constantIbLb1EE
FNDA:0,_ZNKSt8__detail11_AnyMatcherINSt7__cxx1112regex_traitsIcEELb1ELb0ELb1EE8_M_applyEcSt17integral_constantIbLb1EE
FNDA:0,_ZNKSt8__detail11_AnyMatcherINSt7__cxx1112regex_traitsIcEELb1ELb0ELb0EE8_M_applyEcSt17integral_constantIbLb1EE
FNDA:0,_ZNSt8__detail12_CharMatcherINSt7__cxx1112regex_traitsIcEELb1ELb1EEC2EcRKS3_
FNDA:0,_ZNSt8__detail12_CharMatcherINSt7__cxx1112regex_traitsIcEELb1ELb0EEC2EcRKS3_
FNDA:0,_ZNSt8__detail12_CharMatcherINSt7__cxx1112regex_traitsIcEELb0ELb1EEC2EcRKS3_
FNDA:10258,_ZNSt8__detail12_CharMatcherINSt7__cxx1112regex_traitsIcEELb0ELb0EEC2EcRKS3_
FNDA:0,_ZNKSt8__detail12_CharMatcherINSt7__cxx1112regex_traitsIcEELb1ELb1EEclEc
FNDA:0,_ZNKSt8__detail12_CharMatcherINSt7__cxx1112regex_traitsIcEELb1ELb0EEclEc
FNDA:0,_ZNKSt8__detail12_CharMatcherINSt7__cxx1112regex_traitsIcEELb0ELb1EEclEc
FNDA:135784,_ZNKSt8__detail12_CharMatcherINSt7__cxx1112regex_traitsIcEELb0ELb0EEclEc
FNDA:0,_ZNSt8__detail15_BracketMatcherINSt7__cxx1112regex_traitsIcEELb1ELb1EEC2ERKS4_
FNDA:0,_ZNSt8__detail15_BracketMatcherINSt7__cxx1112regex_traitsIcEELb1ELb0EEC2ERKS4_
FNDA:0,_ZNSt8__detail15_BracketMatcherINSt7__cxx1112regex_traitsIcEELb0ELb1EEC2ERKS4_
FNDA:2807,_ZNSt8__detail15_BracketMatcherINSt7__cxx1112regex_traitsIcEELb0ELb0EEC2ERKS4_
FNDA:0,_ZNSt8__detail15_BracketMatcherINSt7__cxx1112regex_traitsIcEELb1ELb1EEC2EOS4_
FNDA:0,_ZNSt8__detail15_BracketMatcherINSt7__cxx1112regex_traitsIcEELb1ELb1EED2Ev
FNDA:0,_ZNSt8__detail15_BracketMatcherINSt7__cxx1112regex_traitsIcEELb1ELb0EEC2EOS4_
FNDA:0,_ZNSt8__detail15_BracketMatcherINSt7__cxx1112regex_traitsIcEELb1ELb0EED2Ev
FNDA:0,_ZNSt8__detail15_BracketMatcherINSt7__cxx1112regex_traitsIcEELb0ELb1EEC2EOS4_
FNDA:0,_ZNSt8__detail15_BracketMatcherINSt7__cxx1112regex_traitsIcEELb0ELb1EED2Ev
FNDA:4766,_ZNSt8__detail15_BracketMatcherINSt7__cxx1112regex_traitsIcEELb0ELb0EEC2EOS4_
FNDA:9956,_ZNSt8__detail15_BracketMatcherINSt7__cxx1112regex_traitsIcEELb0ELb0EED2Ev
FNDA:0,_ZNSt8__detail15_BracketMatcherINSt7__cxx1112regex_traitsIcEELb1ELb1EEC2EbRKS3_
FNDA:0,_ZNSt8__detail15_BracketMatcherINSt7__cxx1112regex_traitsIcEELb1ELb0EEC2EbRKS3_
FNDA:0,_ZNSt8__detail15_BracketMatcherINSt7__cxx1112regex_traitsIcEELb0ELb1EEC2EbRKS3_
FNDA:2383,_ZNSt8__detail15_BracketMatcherINSt7__cxx1112regex_traitsIcEELb0ELb0EEC2EbRKS3_
FNDA:0,_ZNKSt8__detail15_BracketMatcherINSt7__cxx1112regex_traitsIcEELb1ELb1EEclEc
FNDA:0,_ZNKSt8__detail15_BracketMatcherINSt7__cxx1112regex_traitsIcEELb1ELb0EEclEc
FNDA:0,_ZNKSt8__detail15_BracketMatcherINSt7__cxx1112regex_traitsIcEELb0ELb1EEclEc
FNDA:21858,_ZNKSt8__detail15_BracketMatcherINSt7__cxx1112regex_traitsIcEELb0ELb0EEclEc
FNDA:0,_ZNSt8__detail15_BracketMatcherINSt7__cxx1112regex_traitsIcEELb1ELb1EE11_M_add_charEc
FNDA:0,_ZNSt8__detail15_BracketMatcherINSt7__cxx1112regex_traitsIcEELb1ELb0EE11_M_add_charEc
FNDA:0,_ZNSt8__detail15_BracketMatcherINSt7__cxx1112regex_traitsIcEELb0ELb1EE11_M_add_charEc
FNDA:18392,_ZNSt8__detail15_BracketMatcherINSt7__cxx1112regex_traitsIcEELb0ELb0EE11_M_add_charEc
FNDA:0,_ZNSt8__detail15_BracketMatcherINSt7__cxx1112regex_traitsIcEELb1ELb1EE22_M_add_collate_elementERKNS1_12basic_stringIcSt11char_traitsIcESaIcEEE
FNDA:0,_ZNSt8__detail15_BracketMatcherINSt7__cxx1112regex_traitsIcEELb1ELb0EE22_M_add_collate_elementERKNS1_12basic_stringIcSt11char_traitsIcESaIcEEE
FNDA:0,_ZNSt8__detail15_BracketMatcherINSt7__cxx1112regex_traitsIcEELb0ELb1EE22_M_add_collate_elementERKNS1_12basic_stringIcSt11char_traitsIcESaIcEEE
FNDA:0,_ZNSt8__detail15_BracketMatcherINSt7__cxx1112regex_traitsIcEELb0ELb0EE22_M_add_collate_elementERKNS1_12basic_stringIcSt11char_traitsIcESaIcEEE
FNDA:0,_ZNSt8__detail15_BracketMatcherINSt7__cxx1112regex_traitsIcEELb1ELb1EE24_M_add_equivalence_classERKNS1_12basic_stringIcSt11char_traitsIcESaIcEEE
FNDA:0,_ZNSt8__detail15_BracketMatcherINSt7__cxx1112regex_traitsIcEELb1ELb0EE24_M_add_equivalence_classERKNS1_12basic_stringIcSt11char_traitsIcESaIcEEE
FNDA:0,_ZNSt8__detail15_BracketMatcherINSt7__cxx1112regex_traitsIcEELb0ELb1EE24_M_add_equivalence_classERKNS1_12basic_stringIcSt11char_traitsIcESaIcEEE
FNDA:0,_ZNSt8__detail15_BracketMatcherINSt7__cxx1112regex_traitsIcEELb0ELb0EE24_M_add_equivalence_classERKNS1_12basic_stringIcSt11char_traitsIcESaIcEEE
FNDA:0,_ZNSt8__detail15_BracketMatcherINSt7__cxx1112regex_traitsIcEELb1ELb1EE22_M_add_character_classERKNS1_12basic_stringIcSt11char_traitsIcESaIcEEEb
FNDA:0,_ZNSt8__detail15_BracketMatcherINSt7__cxx1112regex_traitsIcEELb1ELb0EE22_M_add_character_classERKNS1_12basic_stringIcSt11char_traitsIcESaIcEEEb
FNDA:0,_ZNSt8__detail15_BracketMatcherINSt7__cxx1112regex_traitsIcEELb0ELb1EE22_M_add_character_classERKNS1_12basic_stringIcSt11char_traitsIcESaIcEEEb
FNDA:84,_ZNSt8__detail15_BracketMatcherINSt7__cxx1112regex_traitsIcEELb0ELb0EE22_M_add_character_classERKNS1_12basic_stringIcSt11char_traitsIcESaIcEEEb
FNDA:0,_ZNSt8__detail15_BracketMatcherINSt7__cxx1112regex_traitsIcEELb1ELb1EE13_M_make_rangeEcc
FNDA:0,_ZNSt8__detail15_BracketMatcherINSt7__cxx1112regex_traitsIcEELb1ELb0EE13_M_make_rangeEcc
FNDA:0,_ZNSt8__detail15_BracketMatcherINSt7__cxx1112regex_traitsIcEELb0ELb1EE13_M_make_rangeEcc
FNDA:0,_ZNSt8__detail15_BracketMatcherINSt7__cxx1112regex_traitsIcEELb0ELb0EE13_M_make_rangeEcc
FNDA:0,_ZNSt8__detail15_BracketMatcherINSt7__cxx1112regex_traitsIcEELb1ELb1EE8_M_readyEv
FNDA:0,_ZNSt8__detail15_BracketMatcherINSt7__cxx1112regex_traitsIcEELb1ELb0EE8_M_readyEv
FNDA:0,_ZNSt8__detail15_BracketMatcherINSt7__cxx1112regex_traitsIcEELb0ELb1EE8_M_readyEv
FNDA:2383,_ZNSt8__detail15_BracketMatcherINSt7__cxx1112regex_traitsIcEELb0ELb0EE8_M_readyEv
FNDA:0,_ZNKSt8__detail15_BracketMatcherINSt7__cxx1112regex_traitsIcEELb1ELb1EE8_M_applyEcSt17integral_constantIbLb1EE
FNDA:0,_ZNKSt8__detail15_BracketMatcherINSt7__cxx1112regex_traitsIcEELb1ELb0EE8_M_applyEcSt17integral_constantIbLb1EE
FNDA:0,_ZNKSt8__detail15_BracketMatcherINSt7__cxx1112regex_traitsIcEELb0ELb1EE8_M_applyEcSt17integral_constantIbLb1EE
FNDA:21858,_ZNKSt8__detail15_BracketMatcherINSt7__cxx1112regex_traitsIcEELb0ELb0EE8_M_applyEcSt17integral_constantIbLb1EE
FNDA:0,_ZNSt8__detail15_BracketMatcherINSt7__cxx1112regex_traitsIcEELb1ELb1EE13_M_make_cacheESt17integral_constantIbLb1EE
FNDA:0,_ZNSt8__detail15_BracketMatcherINSt7__cxx1112regex_traitsIcEELb1ELb0EE13_M_make_cacheESt17integral_constantIbLb1EE
FNDA:0,_ZNSt8__detail15_BracketMatcherINSt7__cxx1112regex_traitsIcEELb0ELb1EE13_M_make_cacheESt17integral_constantIbLb1EE
FNDA:2383,_ZNSt8__detail15_BracketMatcherINSt7__cxx1112regex_traitsIcEELb0ELb0EE13_M_make_cacheESt17integral_constantIbLb1EE
FNF:105
FNH:19
DA:60,2327
DA:72,2327
DA:73,2327
DA:143,33737
DA:145,33737
DA:146,33737
DA:147,33737
DA:196,2327
DA:200,2327
DA:201,2327
DA:203,2327
DA:228,0
DA:229,0
DA:230,0
DA:233,0
DA:236,0
DA:238,0
DA:244,0
DA:246,0
DA:247,0
DA:254,0
DA:256,0
DA:259,0
DA:262,0
DA:263,0
DA:264,0
DA:265,0
DA:266,0
DA:278,0
DA:290,0
DA:293,0
DA:294,0
DA:297,0
DA:301,0
DA:315,0
DA:318,0
DA:324,0
DA:336,12641
DA:337,12641
DA:340,774482
DA:341,774482
DA:344,591656
DA:345,591656
DA:348,0
DA:349,0
DA:362,0
DA:363,0
DA:364,0
DA:367,0
DA:369,0
DA:370,0
DA:383,0
DA:384,0
DA:385,0
DA:388,0
DA:389,0
DA:392,0
DA:394,0
DA:395,0
DA:396,0
DA:397,0
DA:420,10258
DA:421,10258
DA:422,10258
DA:425,135784
DA:426,135784
DA:434,17529
DA:444,2383
DA:447,2383
DA:448,2383
DA:451,21858
DA:454,21858
DA:458,18392
DA:460,18392
DA:462,18392
DA:465,0
DA:467,0
DA:468,0
DA:469,0
DA:470,0
DA:472,0
DA:474,0
DA:478,0
DA:480,0
DA:481,0
DA:482,0
DA:483,0
DA:485,0
DA:486,0
DA:487,0
DA:489,0
DA:493,84
DA:495,168
DA:496,84
DA:498,84
DA:499,0
DA:501,84
DA:502,84
DA:504,0
DA:506,84
DA:509,0
DA:511,0
DA:512,0
DA:514,0
DA:517,0
DA:520,2383
DA:522,2383
DA:523,2383
DA:524,2383
DA:525,2383
DA:527,2383
DA:549,21858
DA:550,21858
DA:553,2383
DA:555,612431
DA:556,610048
DA:557,2383
LF:117
LH:50
end_of_record
SF:/usr/include/c++/7/bits/regex_compiler.tcc
FN:63,_ZNSt8__detail9_CompilerINSt7__cxx1112regex_traitsIcEEEC2EPKcS6_RKSt6localeNSt15regex_constants18syntax_option_typeE
FN:94,_ZNSt8__detail9_CompilerINSt7__cxx1112regex_traitsIcEEE14_M_disjunctionEv
FN:118,_ZNSt8__detail9_CompilerINSt7__cxx1112regex_traitsIcEEE14_M_alternativeEv
FN:134,_ZNSt8__detail9_CompilerINSt7__cxx1112regex_traitsIcEEE7_M_termEv
FN:149,_ZNSt8__detail9_CompilerINSt7__cxx1112regex_traitsIcEEE12_M_assertionEv
FN:181,_ZNSt8__detail9_CompilerINSt7__cxx1112regex_traitsIcEEE13_M_quantifierEv
FN:185,_ZZNSt8__detail9_CompilerINSt7__cxx1112regex_traitsIcEEE13_M_quantifierEvENKUlvE_clEv
FN:311,_ZNSt8__detail9_CompilerINSt7__cxx1112regex_traitsIcEEE7_M_atomEv
FN:356,_ZNSt8__detail9_CompilerINSt7__cxx1112regex_traitsIcEEE21_M_bracket_expressionEv
FN:371,_ZNSt8__detail9_CompilerINSt7__cxx1112regex_traitsIcEEE26_M_insert_any_matcher_ecmaILb1ELb1EEEvv
FN:371,_ZNSt8__detail9_CompilerINSt7__cxx1112regex_traitsIcEEE26_M_insert_any_matcher_ecmaILb1ELb0EEEvv
FN:371,_ZNSt8__detail9_CompilerINSt7__cxx1112regex_traitsIcEEE26_M_insert_any_matcher_ecmaILb0ELb0EEEvv
FN:371,_ZNSt8__detail9_CompilerINSt7__cxx1112regex_traitsIcEEE26_M_insert_any_matcher_ecmaILb0ELb1EEEvv
FN:383,_ZNSt8__detail9_CompilerINSt7__cxx1112regex_traitsIcEEE27_M_insert_any_matcher_posixILb1ELb1EEEvv
FN:383,_ZNSt8__detail9_CompilerINSt7__cxx1112regex_traitsIcEEE27_M_insert_any_matcher_posixILb0ELb1EEEvv
FN:383,_ZNSt8__detail9_CompilerINSt7__cxx1112regex_traitsIcEEE27_M_insert_any_matcher_posixILb0ELb0EEEvv
FN:383,_ZNSt8__detail9_CompilerINSt7__cxx1112regex_traitsIcEEE27_M_insert_any_matcher_posixILb1ELb0EEEvv
FN:395,_ZNSt8__detail9_CompilerINSt7__cxx1112regex_traitsIcEEE22_M_insert_char_matcherILb0ELb0EEEvv
FN:395,_ZNSt8__detail9_CompilerINSt7__cxx1112regex_traitsIcEEE22_M_insert_char_matcherILb1ELb0EEEvv
FN:395,_ZNSt8__detail9_CompilerINSt7__cxx1112regex_traitsIcEEE22_M_insert_char_matcherILb1ELb1EEEvv
FN:395,_ZNSt8__detail9_CompilerINSt7__cxx1112regex_traitsIcEEE22_M_insert_char_matcherILb0ELb1EEEvv
FN:407,_ZNSt8__detail9_CompilerINSt7__cxx1112regex_traitsIcEEE33_M_insert_character_class_matcherILb0ELb0EEEvv
FN:407,_ZNSt8__detail9_CompilerINSt7__cxx1112regex_traitsIcEEE33_M_insert_character_class_matcherILb1ELb0EEEvv
FN:407,_ZNSt8__detail9_CompilerINSt7__cxx1112regex_traitsIcEEE33_M_insert_character_class_matcherILb0ELb1EEEvv
FN:407,_ZNSt8__detail9_CompilerINSt7__cxx1112regex_traitsIcEEE33_M_insert_character_class_matcherILb1ELb1EEEvv
FN:422,_ZNSt8__detail9_CompilerINSt7__cxx1112regex_traitsIcEEE25_M_insert_bracket_matcherILb1ELb1EEEvb
FN:422,_ZNSt8__detail9_CompilerINSt7__cxx1112regex_traitsIcEEE25_M_insert_bracket_matcherILb0ELb1EEEvb
FN:422,_ZNSt8__detail9_CompilerINSt7__cxx1112regex_traitsIcEEE25_M_insert_bracket_matcherILb0ELb0EEEvb
FN:422,_ZNSt8__detail9_CompilerINSt7__cxx1112regex_traitsIcEEE25_M_insert_bracket_matcherILb1ELb0EEEvb
FN:453,_ZNSt8__detail9_CompilerINSt7__cxx1112regex_traitsIcEEE18_M_expression_termILb0ELb0EEEbRSt4pairIbcERNS_15_BracketMatcherIS3_XT_EXT0_EEE
FN:453,_ZNSt8__detail9_CompilerINSt7__cxx1112regex_traitsIcEEE18_M_expression_termILb1ELb0EEEbRSt4pairIbcERNS_15_BracketMatcherIS3_XT_EXT0_EEE
FN:453,_ZNSt8__detail9_CompilerINSt7__cxx1112regex_traitsIcEEE18_M_expression_termILb0ELb1EEEbRSt4pairIbcERNS_15_BracketMatcherIS3_XT_EXT0_EEE
FN:453,_ZNSt8__detail9_CompilerINSt7__cxx1112regex_traitsIcEEE18_M_expression_termILb1ELb1EEEbRSt4pairIbcERNS_15_BracketMatcherIS3_XT_EXT0_EEE
FN:460,_ZZNSt8__detail9_CompilerINSt7__cxx1112regex_traitsIcEEE18_M_expression_termILb0ELb1EEEbRSt4pairIbcERNS_15_BracketMatcherIS3_XT_EXT0_EEEENKUlcE_clEc
FN:460,_ZZNSt8__detail9_CompilerINSt7__cxx1112regex_traitsIcEEE18_M_expression_termILb1ELb1EEEbRSt4pairIbcERNS_15_BracketMatcherIS3_XT_EXT0_EEEENKUlcE_clEc
FN:460,_ZZNSt8__detail9_CompilerINSt7__cxx1112regex_traitsIcEEE18_M_expression_termILb0ELb0EEEbRSt4pairIbcERNS_15_BracketMatcherIS3_XT_EXT0_EEEENKUlcE_clEc
FN:460,_ZZNSt8__detail9_CompilerINSt7__cxx1112regex_traitsIcEEE18_M_expression_termILb1ELb0EEEbRSt4pairIbcERNS_15_BracketMatcherIS3_XT_EXT0_EEEENKUlcE_clEc
FN:468,_ZZNSt8__detail9_CompilerINSt7__cxx1112regex_traitsIcEEE18_M_expression_termILb1ELb0EEEbRSt4pairIbcERNS_15_BracketMatcherIS3_XT_EXT0_EEEENKUlvE0_clEv
FN:468,_ZZNSt8__detail9_CompilerINSt7__cxx1112regex_traitsIcEEE18_M_expression_termILb0ELb1EEEbRSt4pairIbcERNS_15_BracketMatcherIS3_XT_EXT0_EEEENKUlvE0_clEv
FN:468,_ZZNSt8__detail9_CompilerINSt7__cxx1112regex_traitsIcEEE18_M_expression_termILb0ELb0EEEbRSt4pairIbcERNS_15_BracketMatcherIS3_XT_EXT0_EEEENKUlvE0_clEv
FN:468,_ZZNSt8__detail9_CompilerINSt7__cxx1112regex_traitsIcEEE18_M_expression_termILb1ELb1EEEbRSt4pairIbcERNS_15_BracketMatcherIS3_XT_EXT0_EEEENKUlvE0_clEv
FN:565,_ZNSt8__detail9_CompilerINSt7__cxx1112regex_traitsIcEEE11_M_try_charEv
FN:586,_ZNSt8__detail9_CompilerINSt7__cxx1112regex_traitsIcEEE14_M_match_tokenENS_12_ScannerBase7_TokenTE
FN:600,_ZNSt8__detail9_CompilerINSt7__cxx1112regex_traitsIcEEE16_M_cur_int_valueEi
FN:612,_ZNKSt8__detail15_BracketMatcherINSt7__cxx1112regex_traitsIcEELb1ELb1EE8_M_applyEcSt17integral_constantIbLb0EE
FN:612,_ZNKSt8__detail15_BracketMatcherINSt7__cxx1112regex_traitsIcEELb1ELb0EE8_M_applyEcSt17integral_constantIbLb0EE
FN:612,_ZNKSt8__detail15_BracketMatcherINSt7__cxx1112regex_traitsIcEELb0ELb1EE8_M_applyEcSt17integral_constantIbLb0EE
FN:612,_ZNKSt8__detail15_BracketMatcherINSt7__cxx1112regex_traitsIcEELb0ELb0EE8_M_applyEcSt17integral_constantIbLb0EE
FN:615,_ZZNKSt8__detail15_BracketMatcherINSt7__cxx1112regex_traitsIcEELb0ELb0EE8_M_applyEcSt17integral_constantIbLb0EEENKUlvE_clEv
FN:615,_ZZNKSt8__detail15_BracketMatcherINSt7__cxx1112regex_traitsIcEELb1ELb1EE8_M_applyEcSt17integral_constantIbLb0EEENKUlvE_clEv
FN:615,_ZZNKSt8__detail15_BracketMatcherINSt7__cxx1112regex_traitsIcEELb0ELb1EE8_M_applyEcSt17integral_constantIbLb0EEENKUlvE_clEv
FN:615,_ZZNKSt8__detail15_BracketMatcherINSt7__cxx1112regex_traitsIcEELb1ELb0EE8_M_applyEcSt17integral_constantIbLb0EEENKUlvE_clEv
FNDA:2327,_ZNSt8__detail9_CompilerINSt7__cxx1112regex_traitsIcEEEC2EPKcS6_RKSt6localeNSt15regex_constants18syntax_option_typeE
FNDA:2421,_ZNSt8__detail9_CompilerINSt7__cxx1112regex_traitsIcEEE14_M_disjunctionEv
FNDA:18031,_ZNSt8__detail9_CompilerINSt7__cxx1112regex_traitsIcEEE14_M_alternativeEv
FNDA:18031,_ZNSt8__detail9_CompilerINSt7__cxx1112regex_traitsIcEEE7_M_termEv
FNDA:18031,_ZNSt8__detail9_CompilerINSt7__cxx1112regex_traitsIcEEE12_M_assertionEv
FNDA:12831,_ZNSt8__detail9_CompilerINSt7__cxx1112regex_traitsIcEEE13_M_quantifierEv
FNDA:36,_ZZNSt8__detail9_CompilerINSt7__cxx1112regex_traitsIcEEE13_M_quantifierEvENKUlvE_clEv
FNDA:18031,_ZNSt8__detail9_CompilerINSt7__cxx1112regex_traitsIcEEE7_M_atomEv
FNDA:7595,_ZNSt8__detail9_CompilerINSt7__cxx1112regex_traitsIcEEE21_M_bracket_expressionEv
FNDA:0,_ZNSt8__detail9_CompilerINSt7__cxx1112regex_traitsIcEEE26_M_insert_any_matcher_ecmaILb1ELb1EEEvv
FNDA:0,_ZNSt8__detail9_CompilerINSt7__cxx1112regex_traitsIcEEE26_M_insert_any_matcher_ecmaILb1ELb0EEEvv
FNDA:0,_ZNSt8__detail9_CompilerINSt7__cxx1112regex_traitsIcEEE26_M_insert_any_matcher_ecmaILb0ELb1EEEvv
FNDA:0,_ZNSt8__detail9_CompilerINSt7__cxx1112regex_traitsIcEEE26_M_insert_any_matcher_ecmaILb0ELb0EEEvv
FNDA:0,_ZNSt8__detail9_CompilerINSt7__cxx1112regex_traitsIcEEE27_M_insert_any_matcher_posixILb1ELb1EEEvv
FNDA:0,_ZNSt8__detail9_CompilerINSt7__cxx1112regex_traitsIcEEE27_M_insert_any_matcher_posixILb1ELb0EEEvv
FNDA:0,_ZNSt8__detail9_CompilerINSt7__cxx1112regex_traitsIcEEE27_M_insert_any_matcher_posixILb0ELb1EEEvv
FNDA:0,_ZNSt8__detail9_CompilerINSt7__cxx1112regex_traitsIcEEE27_M_insert_any_matcher_posixILb0ELb0EEEvv
FNDA:0,_ZNSt8__detail9_CompilerINSt7__cxx1112regex_traitsIcEEE22_M_insert_char_matcherILb1ELb1EEEvv
FNDA:0,_ZNSt8__detail9_CompilerINSt7__cxx1112regex_traitsIcEEE22_M_insert_char_matcherILb1ELb0EEEvv
FNDA:0,_ZNSt8__detail9_CompilerINSt7__cxx1112regex_traitsIcEEE22_M_insert_char_matcherILb0ELb1EEEvv
FNDA:10258,_ZNSt8__detail9_CompilerINSt7__cxx1112regex_traitsIcEEE22_M_insert_char_matcherILb0ELb0EEEvv
FNDA:0,_ZNSt8__detail9_CompilerINSt7__cxx1112regex_traitsIcEEE33_M_insert_character_class_matcherILb1ELb1EEEvv
FNDA:0,_ZNSt8__detail9_CompilerINSt7__cxx1112regex_traitsIcEEE33_M_insert_character_class_matcherILb1ELb0EEEvv
FNDA:0,_ZNSt8__detail9_CompilerINSt7__cxx1112regex_traitsIcEEE33_M_insert_character_class_matcherILb0ELb1EEEvv
FNDA:84,_ZNSt8__detail9_CompilerINSt7__cxx1112regex_traitsIcEEE33_M_insert_character_class_matcherILb0ELb0EEEvv
FNDA:0,_ZNSt8__detail9_CompilerINSt7__cxx1112regex_traitsIcEEE25_M_insert_bracket_matcherILb1ELb1EEEvb
FNDA:0,_ZNSt8__detail9_CompilerINSt7__cxx1112regex_traitsIcEEE25_M_insert_bracket_matcherILb1ELb0EEEvb
FNDA:0,_ZNSt8__detail9_CompilerINSt7__cxx1112regex_traitsIcEEE25_M_insert_bracket_matcherILb0ELb1EEEvb
FNDA:2299,_ZNSt8__detail9_CompilerINSt7__cxx1112regex_traitsIcEEE25_M_insert_bracket_matcherILb0ELb0EEEvb
FNDA:0,_ZNSt8__detail9_CompilerINSt7__cxx1112regex_traitsIcEEE18_M_expression_termILb1ELb1EEEbRSt4pairIbcERNS_15_BracketMatcherIS3_XT_EXT0_EEE
FNDA:0,_ZNSt8__detail9_CompilerINSt7__cxx1112regex_traitsIcEEE18_M_expression_termILb1ELb0EEEbRSt4pairIbcERNS_15_BracketMatcherIS3_XT_EXT0_EEE
FNDA:0,_ZNSt8__detail9_CompilerINSt7__cxx1112regex_traitsIcEEE18_M_expression_termILb0ELb1EEEbRSt4pairIbcERNS_15_BracketMatcherIS3_XT_EXT0_EEE
FNDA:20691,_ZNSt8__detail9_CompilerINSt7__cxx1112regex_traitsIcEEE18_M_expression_termILb0ELb0EEEbRSt4pairIbcERNS_15_BracketMatcherIS3_XT_EXT0_EEE
FNDA:0,_ZZNSt8__detail9_CompilerINSt7__cxx1112regex_traitsIcEEE18_M_expression_termILb1ELb1EEEbRSt4pairIbcERNS_15_BracketMatcherIS3_XT_EXT0_EEEENKUlcE_clEc
FNDA:0,_ZZNSt8__detail9_CompilerINSt7__cxx1112regex_traitsIcEEE18_M_expression_termILb1ELb0EEEbRSt4pairIbcERNS_15_BracketMatcherIS3_XT_EXT0_EEEENKUlcE_clEc
FNDA:0,_ZZNSt8__detail9_CompilerINSt7__cxx1112regex_traitsIcEEE18_M_expression_termILb0ELb1EEEbRSt4pairIbcERNS_15_BracketMatcherIS3_XT_EXT0_EEEENKUlcE_clEc
FNDA:18392,_ZZNSt8__detail9_CompilerINSt7__cxx1112regex_traitsIcEEE18_M_expression_termILb0ELb0EEEbRSt4pairIbcERNS_15_BracketMatcherIS3_XT_EXT0_EEEENKUlcE_clEc
FNDA:0,_ZZNSt8__detail9_CompilerINSt7__cxx1112regex_traitsIcEEE18_M_expression_termILb1ELb1EEEbRSt4pairIbcERNS_15_BracketMatcherIS3_XT_EXT0_EEEENKUlvE0_clEv
FNDA:0,_ZZNSt8__detail9_CompilerINSt7__cxx1112regex_traitsIcEEE18_M_expression_termILb1ELb0EEEbRSt4pairIbcERNS_15_BracketMatcherIS3_XT_EXT0_EEEENKUlvE0_clEv
FNDA:0,_ZZNSt8__detail9_CompilerINSt7__cxx1112regex_traitsIcEEE18_M_expression_termILb0ELb1EEEbRSt4pairIbcERNS_15_BracketMatcherIS3_XT_EXT0_EEEENKUlvE0_clEv
FNDA:0,_ZZNSt8__detail9_CompilerINSt7__cxx1112regex_traitsIcEEE18_M_expression_termILb0ELb0EEEbRSt4pairIbcERNS_15_BracketMatcherIS3_XT_EXT0_EEEENKUlvE0_clEv
FNDA:36423,_ZNSt8__detail9_CompilerINSt7__cxx1112regex_traitsIcEEE11_M_try_charEv
FNDA:380722,_ZNSt8__detail9_CompilerINSt7__cxx1112regex_traitsIcEEE14_M_match_tokenENS_12_ScannerBase7_TokenTE
FNDA:120,_ZNSt8__detail9_CompilerINSt7__cxx1112regex_traitsIcEEE16_M_cur_int_valueEi
FNDA:0,_ZNKSt8__detail15_BracketMatcherINSt7__cxx1112regex_traitsIcEELb1ELb1EE8_M_applyEcSt17integral_constantIbLb0EE
FNDA:0,_ZNKSt8__detail15_BracketMatcherINSt7__cxx1112regex_traitsIcEELb1ELb0EE8_M_applyEcSt17integral_constantIbLb0EE
FNDA:0,_ZNKSt8__detail15_BracketMatcherINSt7__cxx1112regex_traitsIcEELb0ELb1EE8_M_applyEcSt17integral_constantIbLb0EE
FNDA:610048,_ZNKSt8__detail15_BracketMatcherINSt7__cxx1112regex_traitsIcEELb0ELb0EE8_M_applyEcSt17integral_constantIbLb0EE
FNDA:0,_ZZNKSt8__detail15_BracketMatcherINSt7__cxx1112regex_traitsIcEELb1ELb1EE8_M_applyEcSt17integral_constantIbLb0EEENKUlvE_clEv
FNDA:0,_ZZNKSt8__detail15_BracketMatcherINSt7__cxx1112regex_traitsIcEELb1ELb0EE8_M_applyEcSt17integral_constantIbLb0EEENKUlvE_clEv
FNDA:0,_ZZNKSt8__detail15_BracketMatcherINSt7__cxx1112regex_traitsIcEELb0ELb1EE8_M_applyEcSt17integral_constantIbLb0EEENKUlvE_clEv
FNDA:610048,_ZZNKSt8__detail15_BracketMatcherINSt7__cxx1112regex_traitsIcEELb0ELb0EE8_M_applyEcSt17integral_constantIbLb0EEENKUlvE_clEv
FNF:52
FNH:19
DA:63,2327
DA:67,2327
DA:77,2327
DA:78,4654
DA:80,2327
DA:81,2327
DA:82,2327
DA:83,2327
DA:84,0
DA:85,2327
DA:87,2327
DA:88,2327
DA:89,2327
DA:90,2327
DA:94,2421
DA:97,2421
DA:98,8171
DA:100,2875
DA:101,2875
DA:102,2875
DA:103,2875
DA:104,2875
DA:105,2875
DA:109,2875
DA:114,2421
DA:118,18031
DA:121,18031
DA:123,12735
DA:124,12735
DA:125,12735
DA:126,12735
DA:129,5296
DA:130,18031
DA:134,18031
DA:137,18031
DA:138,0
DA:139,18031
DA:141,12831
DA:142,12735
DA:144,5296
DA:149,18031
DA:152,18031
DA:153,0
DA:154,18031
DA:155,0
DA:156,18031
DA:158,0
DA:159,0
DA:160,18031
DA:162,0
DA:163,0
DA:164,0
DA:165,0
DA:167,0
DA:168,0
DA:169,0
DA:171,0
DA:175,18031
DA:176,0
DA:181,12831
DA:184,12831
DA:185,12867
DA:186,144
DA:187,36
DA:188,0
DA:190,108
DA:191,36
DA:192,12831
DA:194,0
DA:195,0
DA:196,0
DA:199,0
DA:200,0
DA:202,12831
DA:204,24
DA:205,24
DA:206,24
DA:208,24
DA:210,12807
DA:212,12
DA:213,12
DA:214,12
DA:215,12
DA:218,12
DA:219,12
DA:220,12
DA:222,12795
DA:224,60
DA:225,0
DA:227,60
DA:228,0
DA:230,60
DA:231,60
DA:232,60
DA:233,60
DA:237,60
DA:238,60
DA:239,60
DA:241,0
DA:243,0
DA:244,60
DA:245,0
DA:248,60
DA:250,120
DA:251,60
DA:253,60
DA:255,0
DA:256,0
DA:259,0
DA:260,0
DA:264,60
DA:265,0
DA:267,60
DA:271,120
DA:272,140
DA:274,80
DA:275,80
DA:277,80
DA:278,80
DA:280,60
DA:281,220
DA:283,80
DA:284,80
DA:285,80
DA:288,60
DA:291,12735
DA:292,96
DA:311,18031
DA:314,18031
DA:316,0
DA:317,0
DA:319,0
DA:321,18031
DA:322,10258
DA:323,7773
DA:324,0
DA:325,0
DA:326,7773
DA:327,84
DA:328,7689
DA:330,0
DA:331,0
DA:332,0
DA:333,0
DA:335,0
DA:336,0
DA:338,7689
DA:340,94
DA:341,94
DA:342,94
DA:343,0
DA:345,94
DA:346,94
DA:347,94
DA:349,7595
DA:350,5296
DA:351,12735
DA:356,7595
DA:359,7595
DA:361,7595
DA:362,5296
DA:363,2299
DA:364,2299
DA:371,0
DA:374,0
DA:378,0
DA:383,0
DA:386,0
DA:390,0
DA:395,10258
DA:398,20516
DA:401,10258
DA:402,10258
DA:407,84
DA:411,252
DA:412,84
DA:413,84
DA:414,84
DA:415,168
DA:416,84
DA:417,84
DA:422,2299
DA:425,4598
DA:426,2299
DA:427,2299
DA:428,2299
DA:430,0
DA:432,0
DA:433,0
DA:435,0
DA:437,0
DA:438,0
DA:441,20691
DA:442,2299
DA:443,2299
DA:444,2299
DA:445,6897
DA:446,2299
DA:447,2299
DA:448,2299
DA:453,20691
DA:457,20691
DA:458,2299
DA:460,36784
DA:462,55176
DA:463,32186
DA:465,2299
DA:466,18392
DA:467,18392
DA:468,18392
DA:470,0
DA:472,0
DA:473,0
DA:475,0
DA:477,18392
DA:479,0
DA:480,0
DA:481,0
DA:483,0
DA:485,18392
DA:487,0
DA:488,0
DA:490,18392
DA:492,0
DA:493,0
DA:495,18392
DA:496,18392
DA:507,0
DA:509,0
DA:511,0
DA:513,0
DA:515,0
DA:516,0
DA:518,0
DA:524,0
DA:528,0
DA:530,0
DA:531,0
DA:533,0
DA:535,0
DA:536,0
DA:540,0
DA:541,0
DA:542,0
DA:545,0
DA:549,0
DA:551,0
DA:552,0
DA:553,0
DA:554,0
DA:557,0
DA:560,18392
DA:565,36423
DA:568,36423
DA:569,36423
DA:571,0
DA:572,0
DA:574,36423
DA:576,0
DA:577,0
DA:579,36423
DA:580,28650
DA:581,36423
DA:586,380722
DA:589,380722
DA:591,39058
DA:592,39058
DA:593,39058
DA:595,341664
DA:600,120
DA:603,120
DA:604,240
DA:605,240
DA:606,120
DA:607,120
DA:612,610048
DA:615,610048
DA:616,8352552
DA:617,2440192
DA:619,18392
DA:620,1183312
DA:621,591656
DA:622,0
DA:623,0
DA:624,1183312
DA:625,840
DA:626,2954080
DA:627,590816
DA:628,1772448
DA:629,0
DA:630,590816
DA:631,0
DA:632,0
DA:633,590816
DA:634,610048
LF:295
LH:195
end_of_record
SF:/usr/include/c++/7/bits/regex_constants.h
FN:183,_ZNSt15regex_constantsanENS_18syntax_option_typeES0_
FN:190,_ZNSt15regex_constantsorENS_18syntax_option_typeES0_
FN:374,_ZNSt15regex_constantsanENS_15match_flag_typeES0_
FN:381,_ZNSt15regex_constantsorENS_15match_flag_typeES0_
FN:395,_ZNSt15regex_constantscoENS_15match_flag_typeE
FN:403,_ZNSt15regex_constantsoRERNS_15match_flag_typeES0_
FNDA:124936,_ZNSt15regex_constantsanENS_18syntax_option_typeES0_
FNDA:12129,_ZNSt15regex_constantsorENS_18syntax_option_typeES0_
FNDA:13963,_ZNSt15regex_constantsanENS_15match_flag_typeES0_
FNDA:4638,_ZNSt15regex_constantsorENS_15match_flag_typeES0_
FNDA:0,_ZNSt15regex_constantscoENS_15match_flag_typeE
FNDA:4638,_ZNSt15regex_constantsoRERNS_15match_flag_typeES0_
FNF:6
FNH:5
DA:183,124936
DA:186,124936
DA:190,12129
DA:193,12129
DA:374,13963
DA:377,13963
DA:381,4638
DA:384,4638
DA:395,0
DA:396,0
DA:403,4638
DA:404,4638
LF:12
LH:10
end_of_record
SF:/usr/include/c++/7/bits/regex_error.h
FN:160,_ZNSt11regex_errorC2ENSt15regex_constants10error_typeEPKc
FN:173,_ZSt19__throw_regex_errorNSt15regex_constants10error_typeEPKc
FNDA:0,_ZNSt11regex_errorC2ENSt15regex_constants10error_typeEPKc
FNDA:0,_ZSt19__throw_regex_errorNSt15regex_constants10error_typeEPKc
FNF:2
FNH:0
DA:160,0
DA:161,0
DA:162,0
DA:173,0
DA:174,0
LF:5
LH:0
end_of_record
SF:/usr/include/c++/7/bits/regex_executor.h
FN:52,_ZNSt8__detail9_ExecutorIN9__gnu_cxx17__normal_iteratorIPKcNSt7__cxx1112basic_stringIcSt11char_traitsIcESaIcEEEEESaINS5_9sub_matchISB_EEENS5_12regex_traitsIcEELb0EED2Ev
FN:52,_ZNSt8__detail9_ExecutorIN9__gnu_cxx17__normal_iteratorIPKcNSt7__cxx1112basic_stringIcSt11char_traitsIcESaIcEEEEESaINS5_9sub_matchISB_EEENS5_12regex_traitsIcEELb1EED2Ev
FN:69,_ZNSt8__detail9_ExecutorIN9__gnu_cxx17__normal_iteratorIPKcNSt7__cxx1112basic_stringIcSt11char_traitsIcESaIcEEEEESaINS5_9sub_matchISB_EEENS5_12regex_traitsIcEELb0EEC2ESB_SB_RSt6vectorISD_SE_ERKNS5_11basic_regexIcSG_EENSt15regex_constants15match_flag_typeE
FN:69,_ZNSt8__detail9_ExecutorIN9__gnu_cxx17__normal_iteratorIPKcNSt7__cxx1112basic_stringIcSt11char_traitsIcESaIcEEEEESaINS5_9sub_matchISB_EEENS5_12regex_traitsIcEELb1EEC2ESB_SB_RSt6vectorISD_SE_ERKNS5_11basic_regexIcSG_EENSt15regex_constants15match_flag_typeE
FN:98,_ZNSt8__detail9_ExecutorIN9__gnu_cxx17__normal_iteratorIPKcNSt7__cxx1112basic_stringIcSt11char_traitsIcESaIcEEEEESaINS5_9sub_matchISB_EEENS5_12regex_traitsIcEELb1EE20_M_search_from_firstEv
FN:98,_ZNSt8__detail9_ExecutorIN9__gnu_cxx17__normal_iteratorIPKcNSt7__cxx1112basic_stringIcSt11char_traitsIcESaIcEEEEESaINS5_9sub_matchISB_EEENS5_12regex_traitsIcEELb0EE20_M_search_from_firstEv
FN:148,_ZNSt8__detail9_ExecutorIN9__gnu_cxx17__normal_iteratorIPKcNSt7__cxx1112basic_stringIcSt11char_traitsIcESaIcEEEEESaINS5_9sub_matchISB_EEENS5_12regex_traitsIcEELb1EE7_M_mainENSH_11_Match_modeE
FN:148,_ZNSt8__detail9_ExecutorIN9__gnu_cxx17__normal_iteratorIPKcNSt7__cxx1112basic_stringIcSt11char_traitsIcESaIcEEEEESaINS5_9sub_matchISB_EEENS5_12regex_traitsIcEELb0EE7_M_mainENSH_11_Match_modeE
FN:158,_ZNKSt8__detail9_ExecutorIN9__gnu_cxx17__normal_iteratorIPKcNSt7__cxx1112basic_stringIcSt11char_traitsIcESaIcEEEEESaINS5_9sub_matchISB_EEENS5_12regex_traitsIcEELb1EE10_M_is_wordEc
FN:158,_ZNKSt8__detail9_ExecutorIN9__gnu_cxx17__normal_iteratorIPKcNSt7__cxx1112basic_stringIcSt11char_traitsIcESaIcEEEEESaINS5_9sub_matchISB_EEENS5_12regex_traitsIcEELb0EE10_M_is_wordEc
FN:166,_ZNKSt8__detail9_ExecutorIN9__gnu_cxx17__normal_iteratorIPKcNSt7__cxx1112basic_stringIcSt11char_traitsIcESaIcEEEEESaINS5_9sub_matchISB_EEENS5_12regex_traitsIcEELb0EE11_M_at_beginEv
FN:166,_ZNKSt8__detail9_ExecutorIN9__gnu_cxx17__normal_iteratorIPKcNSt7__cxx1112basic_stringIcSt11char_traitsIcESaIcEEEEESaINS5_9sub_matchISB_EEENS5_12regex_traitsIcEELb1EE11_M_at_beginEv
FN:174,_ZNKSt8__detail9_ExecutorIN9__gnu_cxx17__normal_iteratorIPKcNSt7__cxx1112basic_stringIcSt11char_traitsIcESaIcEEEEESaINS5_9sub_matchISB_EEENS5_12regex_traitsIcEELb1EE9_M_at_endEv
FN:174,_ZNKSt8__detail9_ExecutorIN9__gnu_cxx17__normal_iteratorIPKcNSt7__cxx1112basic_stringIcSt11char_traitsIcESaIcEEEEESaINS5_9sub_matchISB_EEENS5_12regex_traitsIcEELb0EE9_M_at_endEv
FN:191,_ZNSt8__detail9_ExecutorIN9__gnu_cxx17__normal_iteratorIPKcNSt7__cxx1112basic_stringIcSt11char_traitsIcESaIcEEEEESaINS5_9sub_matchISB_EEENS5_12regex_traitsIcEELb0EE11_State_infoISt17integral_constantIbLb0EESt6vectorISD_SE_EED2Ev
FN:194,_ZNSt8__detail9_ExecutorIN9__gnu_cxx17__normal_iteratorIPKcNSt7__cxx1112basic_stringIcSt11char_traitsIcESaIcEEEEESaINS5_9sub_matchISB_EEENS5_12regex_traitsIcEELb0EE11_State_infoISt17integral_constantIbLb0EESt6vectorISD_SE_EEC2Elm
FN:198,_ZNSt8__detail9_ExecutorIN9__gnu_cxx17__normal_iteratorIPKcNSt7__cxx1112basic_stringIcSt11char_traitsIcESaIcEEEEESaINS5_9sub_matchISB_EEENS5_12regex_traitsIcEELb0EE11_State_infoISt17integral_constantIbLb0EESt6vectorISD_SE_EE10_M_visitedEl
FN:206,_ZNSt8__detail9_ExecutorIN9__gnu_cxx17__normal_iteratorIPKcNSt7__cxx1112basic_stringIcSt11char_traitsIcESaIcEEEEESaINS5_9sub_matchISB_EEENS5_12regex_traitsIcEELb0EE11_State_infoISt17integral_constantIbLb0EESt6vectorISD_SE_EE8_M_queueElRKSM_
FN:224,_ZNSt8__detail9_ExecutorIN9__gnu_cxx17__normal_iteratorIPKcNSt7__cxx1112basic_stringIcSt11char_traitsIcESaIcEEEEESaINS5_9sub_matchISB_EEENS5_12regex_traitsIcEELb1EE11_State_infoISt17integral_constantIbLb1EESt6vectorISD_SE_EEC2Elm
FN:228,_ZNKSt8__detail9_ExecutorIN9__gnu_cxx17__normal_iteratorIPKcNSt7__cxx1112basic_stringIcSt11char_traitsIcESaIcEEEEESaINS5_9sub_matchISB_EEENS5_12regex_traitsIcEELb1EE11_State_infoISt17integral_constantIbLb1EESt6vectorISD_SE_EE10_M_visitedEl
FN:231,_ZNSt8__detail9_ExecutorIN9__gnu_cxx17__normal_iteratorIPKcNSt7__cxx1112basic_stringIcSt11char_traitsIcESaIcEEEEESaINS5_9sub_matchISB_EEENS5_12regex_traitsIcEELb1EE11_State_infoISt17integral_constantIbLb1EESt6vectorISD_SE_EE14_M_get_sol_posEv
FNDA:9325,_ZNSt8__detail9_ExecutorIN9__gnu_cxx17__normal_iteratorIPKcNSt7__cxx1112basic_stringIcSt11char_traitsIcESaIcEEEEESaINS5_9sub_matchISB_EEENS5_12regex_traitsIcEELb1EED2Ev
FNDA:0,_ZNSt8__detail9_ExecutorIN9__gnu_cxx17__normal_iteratorIPKcNSt7__cxx1112basic_stringIcSt11char_traitsIcESaIcEEEEESaINS5_9sub_matchISB_EEENS5_12regex_traitsIcEELb0EED2Ev
FNDA:9325,_ZNSt8__detail9_ExecutorIN9__gnu_cxx17__normal_iteratorIPKcNSt7__cxx1112basic_stringIcSt11char_traitsIcESaIcEEEEESaINS5_9sub_matchISB_EEENS5_12regex_traitsIcEELb1EEC2ESB_SB_RSt6vectorISD_SE_ERKNS5_11basic_regexIcSG_EENSt15regex_constants15match_flag_typeE
FNDA:0,_ZNSt8__detail9_ExecutorIN9__gnu_cxx17__normal_iteratorIPKcNSt7__cxx1112basic_stringIcSt11char_traitsIcESaIcEEEEESaINS5_9sub_matchISB_EEENS5_12regex_traitsIcEELb0EEC2ESB_SB_RSt6vectorISD_SE_ERKNS5_11basic_regexIcSG_EENSt15regex_constants15match_flag_typeE
FNDA:50791,_ZNSt8__detail9_ExecutorIN9__gnu_cxx17__normal_iteratorIPKcNSt7__cxx1112basic_stringIcSt11char_traitsIcESaIcEEEEESaINS5_9sub_matchISB_EEENS5_12regex_traitsIcEELb1EE20_M_search_from_firstEv
FNDA:0,_ZNSt8__detail9_ExecutorIN9__gnu_cxx17__normal_iteratorIPKcNSt7__cxx1112basic_stringIcSt11char_traitsIcESaIcEEEEESaINS5_9sub_matchISB_EEENS5_12regex_traitsIcEELb0EE20_M_search_from_firstEv
FNDA:50791,_ZNSt8__detail9_ExecutorIN9__gnu_cxx17__normal_iteratorIPKcNSt7__cxx1112basic_stringIcSt11char_traitsIcESaIcEEEEESaINS5_9sub_matchISB_EEENS5_12regex_traitsIcEELb1EE7_M_mainENSH_11_Match_modeE
FNDA:0,_ZNSt8__detail9_ExecutorIN9__gnu_cxx17__normal_iteratorIPKcNSt7__cxx1112basic_stringIcSt11char_traitsIcESaIcEEEEESaINS5_9sub_matchISB_EEENS5_12regex_traitsIcEELb0EE7_M_mainENSH_11_Match_modeE
FNDA:0,_ZNKSt8__detail9_ExecutorIN9__gnu_cxx17__normal_iteratorIPKcNSt7__cxx1112basic_stringIcSt11char_traitsIcESaIcEEEEESaINS5_9sub_matchISB_EEENS5_12regex_traitsIcEELb1EE10_M_is_wordEc
FNDA:0,_ZNKSt8__detail9_ExecutorIN9__gnu_cxx17__normal_iteratorIPKcNSt7__cxx1112basic_stringIcSt11char_traitsIcESaIcEEEEESaINS5_9sub_matchISB_EEENS5_12regex_traitsIcEELb0EE10_M_is_wordEc
FNDA:0,_ZNKSt8__detail9_ExecutorIN9__gnu_cxx17__normal_iteratorIPKcNSt7__cxx1112basic_stringIcSt11char_traitsIcESaIcEEEEESaINS5_9sub_matchISB_EEENS5_12regex_traitsIcEELb1EE11_M_at_beginEv
FNDA:0,_ZNKSt8__detail9_ExecutorIN9__gnu_cxx17__normal_iteratorIPKcNSt7__cxx1112basic_stringIcSt11char_traitsIcESaIcEEEEESaINS5_9sub_matchISB_EEENS5_12regex_traitsIcEELb0EE11_M_at_beginEv
FNDA:0,_ZNKSt8__detail9_ExecutorIN9__gnu_cxx17__normal_iteratorIPKcNSt7__cxx1112basic_stringIcSt11char_traitsIcESaIcEEEEESaINS5_9sub_matchISB_EEENS5_12regex_traitsIcEELb1EE9_M_at_endEv
FNDA:0,_ZNKSt8__detail9_ExecutorIN9__gnu_cxx17__normal_iteratorIPKcNSt7__cxx1112basic_stringIcSt11char_traitsIcESaIcEEEEESaINS5_9sub_matchISB_EEENS5_12regex_traitsIcEELb0EE9_M_at_endEv
FNDA:0,_ZNSt8__detail9_ExecutorIN9__gnu_cxx17__normal_iteratorIPKcNSt7__cxx1112basic_stringIcSt11char_traitsIcESaIcEEEEESaINS5_9sub_matchISB_EEENS5_12regex_traitsIcEELb0EE11_State_infoISt17integral_constantIbLb0EESt6vectorISD_SE_EED2Ev
FNDA:0,_ZNSt8__detail9_ExecutorIN9__gnu_cxx17__normal_iteratorIPKcNSt7__cxx1112basic_stringIcSt11char_traitsIcESaIcEEEEESaINS5_9sub_matchISB_EEENS5_12regex_traitsIcEELb0EE11_State_infoISt17integral_constantIbLb0EESt6vectorISD_SE_EEC2Elm
FNDA:0,_ZNSt8__detail9_ExecutorIN9__gnu_cxx17__normal_iteratorIPKcNSt7__cxx1112basic_stringIcSt11char_traitsIcESaIcEEEEESaINS5_9sub_matchISB_EEENS5_12regex_traitsIcEELb0EE11_State_infoISt17integral_constantIbLb0EESt6vectorISD_SE_EE10_M_visitedEl
FNDA:0,_ZNSt8__detail9_ExecutorIN9__gnu_cxx17__normal_iteratorIPKcNSt7__cxx1112basic_stringIcSt11char_traitsIcESaIcEEEEESaINS5_9sub_matchISB_EEENS5_12regex_traitsIcEELb0EE11_State_infoISt17integral_constantIbLb0EESt6vectorISD_SE_EE8_M_queueElRKSM_
FNDA:9325,_ZNSt8__detail9_ExecutorIN9__gnu_cxx17__normal_iteratorIPKcNSt7__cxx1112basic_stringIcSt11char_traitsIcESaIcEEEEESaINS5_9sub_matchISB_EEENS5_12regex_traitsIcEELb1EE11_State_infoISt17integral_constantIbLb1EESt6vectorISD_SE_EEC2Elm
FNDA:285519,_ZNKSt8__detail9_ExecutorIN9__gnu_cxx17__normal_iteratorIPKcNSt7__cxx1112basic_stringIcSt11char_traitsIcESaIcEEEEESaINS5_9sub_matchISB_EEENS5_12regex_traitsIcEELb1EE11_State_infoISt17integral_constantIbLb1EESt6vectorISD_SE_EE10_M_visitedEl
FNDA:50791,_ZNSt8__detail9_ExecutorIN9__gnu_cxx17__normal_iteratorIPKcNSt7__cxx1112basic_stringIcSt11char_traitsIcESaIcEEEEESaINS5_9sub_matchISB_EEENS5_12regex_traitsIcEELb1EE11_State_infoISt17integral_constantIbLb1EESt6vectorISD_SE_EE14_M_get_sol_posEv
FNF:21
FNH:7
DA:52,9325
DA:69,9325
DA:77,9325
DA:79,9325
DA:80,18650
DA:81,9325
DA:84,0
DA:85,55950
DA:86,9325
DA:98,50791
DA:100,50791
DA:101,50791
DA:148,50791
DA:149,50791
DA:158,0
DA:161,0
DA:162,0
DA:166,0
DA:168,0
DA:169,0
DA:170,0
DA:174,0
DA:176,0
DA:177,0
DA:191,0
DA:194,0
DA:195,0
DA:196,0
DA:198,0
DA:200,0
DA:201,0
DA:202,0
DA:203,0
DA:206,0
DA:207,0
DA:224,9325
DA:225,9325
DA:228,285519
DA:231,50791
LF:39
LH:17
end_of_record
SF:/usr/include/c++/7/bits/regex_executor.tcc
FN:39,_ZNSt8__detail9_ExecutorIN9__gnu_cxx17__normal_iteratorIPKcNSt7__cxx1112basic_stringIcSt11char_traitsIcESaIcEEEEESaINS5_9sub_matchISB_EEENS5_12regex_traitsIcEELb0EE9_M_searchEv
FN:39,_ZNSt8__detail9_ExecutorIN9__gnu_cxx17__normal_iteratorIPKcNSt7__cxx1112basic_stringIcSt11char_traitsIcESaIcEEEEESaINS5_9sub_matchISB_EEENS5_12regex_traitsIcEELb1EE9_M_searchEv
FN:81,_ZNSt8__detail9_ExecutorIN9__gnu_cxx17__normal_iteratorIPKcNSt7__cxx1112basic_stringIcSt11char_traitsIcESaIcEEEEESaINS5_9sub_matchISB_EEENS5_12regex_traitsIcEELb1EE16_M_main_dispatchENSH_11_Match_modeESt17integral_constantIbLb1EE
FN:115,_ZNSt8__detail9_ExecutorIN9__gnu_cxx17__normal_iteratorIPKcNSt7__cxx1112basic_stringIcSt11char_traitsIcESaIcEEEEESaINS5_9sub_matchISB_EEENS5_12regex_traitsIcEELb0EE16_M_main_dispatchENSH_11_Match_modeESt17integral_constantIbLb0EE
FN:147,_ZNSt8__detail9_ExecutorIN9__gnu_cxx17__normal_iteratorIPKcNSt7__cxx1112basic_stringIcSt11char_traitsIcESaIcEEEEESaINS5_9sub_matchISB_EEENS5_12regex_traitsIcEELb1EE12_M_lookaheadEl
FN:147,_ZNSt8__detail9_ExecutorIN9__gnu_cxx17__normal_iteratorIPKcNSt7__cxx1112basic_stringIcSt11char_traitsIcESaIcEEEEESaINS5_9sub_matchISB_EEENS5_12regex_traitsIcEELb0EE12_M_lookaheadEl
FN:174,_ZNSt8__detail9_ExecutorIN9__gnu_cxx17__normal_iteratorIPKcNSt7__cxx1112basic_stringIcSt11char_traitsIcESaIcEEEEESaINS5_9sub_matchISB_EEENS5_12regex_traitsIcEELb1EE16_M_rep_once_moreENSH_11_Match_modeEl
FN:174,_ZNSt8__detail9_ExecutorIN9__gnu_cxx17__normal_iteratorIPKcNSt7__cxx1112basic_stringIcSt11char_traitsIcESaIcEEEEESaINS5_9sub_matchISB_EEENS5_12regex_traitsIcEELb0EE16_M_rep_once_moreENSH_11_Match_modeEl
FN:204,_ZNSt8__detail9_ExecutorIN9__gnu_cxx17__normal_iteratorIPKcNSt7__cxx1112basic_stringIcSt11char_traitsIcESaIcEEEEESaINS5_9sub_matchISB_EEENS5_12regex_traitsIcEELb0EE16_M_handle_repeatENSH_11_Match_modeEl
FN:204,_ZNSt8__detail9_ExecutorIN9__gnu_cxx17__normal_iteratorIPKcNSt7__cxx1112basic_stringIcSt11char_traitsIcESaIcEEEEESaINS5_9sub_matchISB_EEENS5_12regex_traitsIcEELb1EE16_M_handle_repeatENSH_11_Match_modeEl
FN:246,_ZNSt8__detail9_ExecutorIN9__gnu_cxx17__normal_iteratorIPKcNSt7__cxx1112basic_stringIcSt11char_traitsIcESaIcEEEEESaINS5_9sub_matchISB_EEENS5_12regex_traitsIcEELb0EE23_M_handle_subexpr_beginENSH_11_Match_modeEl
FN:246,_ZNSt8__detail9_ExecutorIN9__gnu_cxx17__normal_iteratorIPKcNSt7__cxx1112basic_stringIcSt11char_traitsIcESaIcEEEEESaINS5_9sub_matchISB_EEENS5_12regex_traitsIcEELb1EE23_M_handle_subexpr_beginENSH_11_Match_modeEl
FN:260,_ZNSt8__detail9_ExecutorIN9__gnu_cxx17__normal_iteratorIPKcNSt7__cxx1112basic_stringIcSt11char_traitsIcESaIcEEEEESaINS5_9sub_matchISB_EEENS5_12regex_traitsIcEELb0EE21_M_handle_subexpr_endENSH_11_Match_modeEl
FN:260,_ZNSt8__detail9_ExecutorIN9__gnu_cxx17__normal_iteratorIPKcNSt7__cxx1112basic_stringIcSt11char_traitsIcESaIcEEEEESaINS5_9sub_matchISB_EEENS5_12regex_traitsIcEELb1EE21_M_handle_subexpr_endENSH_11_Match_modeEl
FN:275,_ZNSt8__detail9_ExecutorIN9__gnu_cxx17__normal_iteratorIPKcNSt7__cxx1112basic_stringIcSt11char_traitsIcESaIcEEEEESaINS5_9sub_matchISB_EEENS5_12regex_traitsIcEELb1EE30_M_handle_line_begin_assertionENSH_11_Match_modeEl
FN:275,_ZNSt8__detail9_ExecutorIN9__gnu_cxx17__normal_iteratorIPKcNSt7__cxx1112basic_stringIcSt11char_traitsIcESaIcEEEEESaINS5_9sub_matchISB_EEENS5_12regex_traitsIcEELb0EE30_M_handle_line_begin_assertionENSH_11_Match_modeEl
FN:285,_ZNSt8__detail9_ExecutorIN9__gnu_cxx17__normal_iteratorIPKcNSt7__cxx1112basic_stringIcSt11char_traitsIcESaIcEEEEESaINS5_9sub_matchISB_EEENS5_12regex_traitsIcEELb1EE28_M_handle_line_end_assertionENSH_11_Match_modeEl
FN:285,_ZNSt8__detail9_ExecutorIN9__gnu_cxx17__normal_iteratorIPKcNSt7__cxx1112basic_stringIcSt11char_traitsIcESaIcEEEEESaINS5_9sub_matchISB_EEENS5_12regex_traitsIcEELb0EE28_M_handle_line_end_assertionENSH_11_Match_modeEl
FN:295,_ZNSt8__detail9_ExecutorIN9__gnu_cxx17__normal_iteratorIPKcNSt7__cxx1112basic_stringIcSt11char_traitsIcESaIcEEEEESaINS5_9sub_matchISB_EEENS5_12regex_traitsIcEELb0EE23_M_handle_word_boundaryENSH_11_Match_modeEl
FN:295,_ZNSt8__detail9_ExecutorIN9__gnu_cxx17__normal_iteratorIPKcNSt7__cxx1112basic_stringIcSt11char_traitsIcESaIcEEEEESaINS5_9sub_matchISB_EEENS5_12regex_traitsIcEELb1EE23_M_handle_word_boundaryENSH_11_Match_modeEl
FN:307,_ZNSt8__detail9_ExecutorIN9__gnu_cxx17__normal_iteratorIPKcNSt7__cxx1112basic_stringIcSt11char_traitsIcESaIcEEEEESaINS5_9sub_matchISB_EEENS5_12regex_traitsIcEELb0EE27_M_handle_subexpr_lookaheadENSH_11_Match_modeEl
FN:307,_ZNSt8__detail9_ExecutorIN9__gnu_cxx17__normal_iteratorIPKcNSt7__cxx1112basic_stringIcSt11char_traitsIcESaIcEEEEESaINS5_9sub_matchISB_EEENS5_12regex_traitsIcEELb1EE27_M_handle_subexpr_lookaheadENSH_11_Match_modeEl
FN:317,_ZNSt8__detail9_ExecutorIN9__gnu_cxx17__normal_iteratorIPKcNSt7__cxx1112basic_stringIcSt11char_traitsIcESaIcEEEEESaINS5_9sub_matchISB_EEENS5_12regex_traitsIcEELb0EE15_M_handle_matchENSH_11_Match_modeEl
FN:317,_ZNSt8__detail9_ExecutorIN9__gnu_cxx17__normal_iteratorIPKcNSt7__cxx1112basic_stringIcSt11char_traitsIcESaIcEEEEESaINS5_9sub_matchISB_EEENS5_12regex_traitsIcEELb1EE15_M_handle_matchENSH_11_Match_modeEl
FN:344,_ZNSt8__detail9_ExecutorIN9__gnu_cxx17__normal_iteratorIPKcNSt7__cxx1112basic_stringIcSt11char_traitsIcESaIcEEEEESaINS5_9sub_matchISB_EEENS5_12regex_traitsIcEELb0EE17_M_handle_backrefENSH_11_Match_modeEl
FN:344,_ZNSt8__detail9_ExecutorIN9__gnu_cxx17__normal_iteratorIPKcNSt7__cxx1112basic_stringIcSt11char_traitsIcESaIcEEEEESaINS5_9sub_matchISB_EEENS5_12regex_traitsIcEELb1EE17_M_handle_backrefENSH_11_Match_modeEl
FN:376,_ZNSt8__detail9_ExecutorIN9__gnu_cxx17__normal_iteratorIPKcNSt7__cxx1112basic_stringIcSt11char_traitsIcESaIcEEEEESaINS5_9sub_matchISB_EEENS5_12regex_traitsIcEELb0EE16_M_handle_acceptENSH_11_Match_modeEl
FN:376,_ZNSt8__detail9_ExecutorIN9__gnu_cxx17__normal_iteratorIPKcNSt7__cxx1112basic_stringIcSt11char_traitsIcESaIcEEEEESaINS5_9sub_matchISB_EEENS5_12regex_traitsIcEELb1EE16_M_handle_acceptENSH_11_Match_modeEl
FN:430,_ZNSt8__detail9_ExecutorIN9__gnu_cxx17__normal_iteratorIPKcNSt7__cxx1112basic_stringIcSt11char_traitsIcESaIcEEEEESaINS5_9sub_matchISB_EEENS5_12regex_traitsIcEELb0EE21_M_handle_alternativeENSH_11_Match_modeEl
FN:430,_ZNSt8__detail9_ExecutorIN9__gnu_cxx17__normal_iteratorIPKcNSt7__cxx1112basic_stringIcSt11char_traitsIcESaIcEEEEESaINS5_9sub_matchISB_EEENS5_12regex_traitsIcEELb1EE21_M_handle_alternativeENSH_11_Match_modeEl
FN:457,_ZNSt8__detail9_ExecutorIN9__gnu_cxx17__normal_iteratorIPKcNSt7__cxx1112basic_stringIcSt11char_traitsIcESaIcEEEEESaINS5_9sub_matchISB_EEENS5_12regex_traitsIcEELb1EE6_M_dfsENSH_11_Match_modeEl
FN:457,_ZNSt8__detail9_ExecutorIN9__gnu_cxx17__normal_iteratorIPKcNSt7__cxx1112basic_stringIcSt11char_traitsIcESaIcEEEEESaINS5_9sub_matchISB_EEENS5_12regex_traitsIcEELb0EE6_M_dfsENSH_11_Match_modeEl
FN:495,_ZNKSt8__detail9_ExecutorIN9__gnu_cxx17__normal_iteratorIPKcNSt7__cxx1112basic_stringIcSt11char_traitsIcESaIcEEEEESaINS5_9sub_matchISB_EEENS5_12regex_traitsIcEELb1EE16_M_word_boundaryEv
FN:495,_ZNKSt8__detail9_ExecutorIN9__gnu_cxx17__normal_iteratorIPKcNSt7__cxx1112basic_stringIcSt11char_traitsIcESaIcEEEEESaINS5_9sub_matchISB_EEENS5_12regex_traitsIcEELb0EE16_M_word_boundaryEv
FNDA:9325,_ZNSt8__detail9_ExecutorIN9__gnu_cxx17__normal_iteratorIPKcNSt7__cxx1112basic_stringIcSt11char_traitsIcESaIcEEEEESaINS5_9sub_matchISB_EEENS5_12regex_traitsIcEELb1EE9_M_searchEv
FNDA:0,_ZNSt8__detail9_ExecutorIN9__gnu_cxx17__normal_iteratorIPKcNSt7__cxx1112basic_stringIcSt11char_traitsIcESaIcEEEEESaINS5_9sub_matchISB_EEENS5_12regex_traitsIcEELb0EE9_M_searchEv
FNDA:50791,_ZNSt8__detail9_ExecutorIN9__gnu_cxx17__normal_iteratorIPKcNSt7__cxx1112basic_stringIcSt11char_traitsIcESaIcEEEEESaINS5_9sub_matchISB_EEENS5_12regex_traitsIcEELb1EE16_M_main_dispatchENSH_11_Match_modeESt17integral_constantIbLb1EE
FNDA:0,_ZNSt8__detail9_ExecutorIN9__gnu_cxx17__normal_iteratorIPKcNSt7__cxx1112basic_stringIcSt11char_traitsIcESaIcEEEEESaINS5_9sub_matchISB_EEENS5_12regex_traitsIcEELb0EE16_M_main_dispatchENSH_11_Match_modeESt17integral_constantIbLb0EE
FNDA:0,_ZNSt8__detail9_ExecutorIN9__gnu_cxx17__normal_iteratorIPKcNSt7__cxx1112basic_stringIcSt11char_traitsIcESaIcEEEEESaINS5_9sub_matchISB_EEENS5_12regex_traitsIcEELb1EE12_M_lookaheadEl
FNDA:0,_ZNSt8__detail9_ExecutorIN9__gnu_cxx17__normal_iteratorIPKcNSt7__cxx1112basic_stringIcSt11char_traitsIcESaIcEEEEESaINS5_9sub_matchISB_EEENS5_12regex_traitsIcEELb0EE12_M_lookaheadEl
FNDA:955,_ZNSt8__detail9_ExecutorIN9__gnu_cxx17__normal_iteratorIPKcNSt7__cxx1112basic_stringIcSt11char_traitsIcESaIcEEEEESaINS5_9sub_matchISB_EEENS5_12regex_traitsIcEELb1EE16_M_rep_once_moreENSH_11_Match_modeEl
FNDA:0,_ZNSt8__detail9_ExecutorIN9__gnu_cxx17__normal_iteratorIPKcNSt7__cxx1112basic_stringIcSt11char_traitsIcESaIcEEEEESaINS5_9sub_matchISB_EEENS5_12regex_traitsIcEELb0EE16_M_rep_once_moreENSH_11_Match_modeEl
FNDA:955,_ZNSt8__detail9_ExecutorIN9__gnu_cxx17__normal_iteratorIPKcNSt7__cxx1112basic_stringIcSt11char_traitsIcESaIcEEEEESaINS5_9sub_matchISB_EEENS5_12regex_traitsIcEELb1EE16_M_handle_repeatENSH_11_Match_modeEl
FNDA:0,_ZNSt8__detail9_ExecutorIN9__gnu_cxx17__normal_iteratorIPKcNSt7__cxx1112basic_stringIcSt11char_traitsIcESaIcEEEEESaINS5_9sub_matchISB_EEENS5_12regex_traitsIcEELb0EE16_M_handle_repeatENSH_11_Match_modeEl
FNDA:51240,_ZNSt8__detail9_ExecutorIN9__gnu_cxx17__normal_iteratorIPKcNSt7__cxx1112basic_stringIcSt11char_traitsIcESaIcEEEEESaINS5_9sub_matchISB_EEENS5_12regex_traitsIcEELb1EE23_M_handle_subexpr_beginENSH_11_Match_modeEl
FNDA:0,_ZNSt8__detail9_ExecutorIN9__gnu_cxx17__normal_iteratorIPKcNSt7__cxx1112basic_stringIcSt11char_traitsIcESaIcEEEEESaINS5_9sub_matchISB_EEENS5_12regex_traitsIcEELb0EE23_M_handle_subexpr_beginENSH_11_Match_modeEl
FNDA:7501,_ZNSt8__detail9_ExecutorIN9__gnu_cxx17__normal_iteratorIPKcNSt7__cxx1112basic_stringIcSt11char_traitsIcESaIcEEEEESaINS5_9sub_matchISB_EEENS5_12regex_traitsIcEELb1EE21_M_handle_subexpr_endENSH_11_Match_modeEl
FNDA:0,_ZNSt8__detail9_ExecutorIN9__gnu_cxx17__normal_iteratorIPKcNSt7__cxx1112basic_stringIcSt11char_traitsIcESaIcEEEEESaINS5_9sub_matchISB_EEENS5_12regex_traitsIcEELb0EE21_M_handle_subexpr_endENSH_11_Match_modeEl
FNDA:0,_ZNSt8__detail9_ExecutorIN9__gnu_cxx17__normal_iteratorIPKcNSt7__cxx1112basic_stringIcSt11char_traitsIcESaIcEEEEESaINS5_9sub_matchISB_EEENS5_12regex_traitsIcEELb1EE30_M_handle_line_begin_assertionENSH_11_Match_modeEl
FNDA:0,_ZNSt8__detail9_ExecutorIN9__gnu_cxx17__normal_iteratorIPKcNSt7__cxx1112basic_stringIcSt11char_traitsIcESaIcEEEEESaINS5_9sub_matchISB_EEENS5_12regex_traitsIcEELb0EE30_M_handle_line_begin_assertionENSH_11_Match_modeEl
FNDA:0,_ZNSt8__detail9_ExecutorIN9__gnu_cxx17__normal_iteratorIPKcNSt7__cxx1112basic_stringIcSt11char_traitsIcESaIcEEEEESaINS5_9sub_matchISB_EEENS5_12regex_traitsIcEELb1EE28_M_handle_line_end_assertionENSH_11_Match_modeEl
FNDA:0,_ZNSt8__detail9_ExecutorIN9__gnu_cxx17__normal_iteratorIPKcNSt7__cxx1112basic_stringIcSt11char_traitsIcESaIcEEEEESaINS5_9sub_matchISB_EEENS5_12regex_traitsIcEELb0EE28_M_handle_line_end_assertionENSH_11_Match_modeEl
FNDA:0,_ZNSt8__detail9_ExecutorIN9__gnu_cxx17__normal_iteratorIPKcNSt7__cxx1112basic_stringIcSt11char_traitsIcESaIcEEEEESaINS5_9sub_matchISB_EEENS5_12regex_traitsIcEELb1EE23_M_handle_word_boundaryENSH_11_Match_modeEl
FNDA:0,_ZNSt8__detail9_ExecutorIN9__gnu_cxx17__normal_iteratorIPKcNSt7__cxx1112basic_stringIcSt11char_traitsIcESaIcEEEEESaINS5_9sub_matchISB_EEENS5_12regex_traitsIcEELb0EE23_M_handle_word_boundaryENSH_11_Match_modeEl
FNDA:0,_ZNSt8__detail9_ExecutorIN9__gnu_cxx17__normal_iteratorIPKcNSt7__cxx1112basic_stringIcSt11char_traitsIcESaIcEEEEESaINS5_9sub_matchISB_EEENS5_12regex_traitsIcEELb1EE27_M_handle_subexpr_lookaheadENSH_11_Match_modeEl
FNDA:0,_ZNSt8__detail9_ExecutorIN9__gnu_cxx17__normal_iteratorIPKcNSt7__cxx1112basic_stringIcSt11char_traitsIcESaIcEEEEESaINS5_9sub_matchISB_EEENS5_12regex_traitsIcEELb0EE27_M_handle_subexpr_lookaheadENSH_11_Match_modeEl
FNDA:162913,_ZNSt8__detail9_ExecutorIN9__gnu_cxx17__normal_iteratorIPKcNSt7__cxx1112basic_stringIcSt11char_traitsIcESaIcEEEEESaINS5_9sub_matchISB_EEENS5_12regex_traitsIcEELb1EE15_M_handle_matchENSH_11_Match_modeEl
FNDA:0,_ZNSt8__detail9_ExecutorIN9__gnu_cxx17__normal_iteratorIPKcNSt7__cxx1112basic_stringIcSt11char_traitsIcESaIcEEEEESaINS5_9sub_matchISB_EEENS5_12regex_traitsIcEELb0EE15_M_handle_matchENSH_11_Match_modeEl
FNDA:0,_ZNSt8__detail9_ExecutorIN9__gnu_cxx17__normal_iteratorIPKcNSt7__cxx1112basic_stringIcSt11char_traitsIcESaIcEEEEESaINS5_9sub_matchISB_EEENS5_12regex_traitsIcEELb1EE17_M_handle_backrefENSH_11_Match_modeEl
FNDA:0,_ZNSt8__detail9_ExecutorIN9__gnu_cxx17__normal_iteratorIPKcNSt7__cxx1112basic_stringIcSt11char_traitsIcESaIcEEEEESaINS5_9sub_matchISB_EEENS5_12regex_traitsIcEELb0EE17_M_handle_backrefENSH_11_Match_modeEl
FNDA:7008,_ZNSt8__detail9_ExecutorIN9__gnu_cxx17__normal_iteratorIPKcNSt7__cxx1112basic_stringIcSt11char_traitsIcESaIcEEEEESaINS5_9sub_matchISB_EEENS5_12regex_traitsIcEELb1EE16_M_handle_acceptENSH_11_Match_modeEl
FNDA:0,_ZNSt8__detail9_ExecutorIN9__gnu_cxx17__normal_iteratorIPKcNSt7__cxx1112basic_stringIcSt11char_traitsIcESaIcEEEEESaINS5_9sub_matchISB_EEENS5_12regex_traitsIcEELb0EE16_M_handle_acceptENSH_11_Match_modeEl
FNDA:55902,_ZNSt8__detail9_ExecutorIN9__gnu_cxx17__normal_iteratorIPKcNSt7__cxx1112basic_stringIcSt11char_traitsIcESaIcEEEEESaINS5_9sub_matchISB_EEENS5_12regex_traitsIcEELb1EE21_M_handle_alternativeENSH_11_Match_modeEl
FNDA:0,_ZNSt8__detail9_ExecutorIN9__gnu_cxx17__normal_iteratorIPKcNSt7__cxx1112basic_stringIcSt11char_traitsIcESaIcEEEEESaINS5_9sub_matchISB_EEENS5_12regex_traitsIcEELb0EE21_M_handle_alternativeENSH_11_Match_modeEl
FNDA:285519,_ZNSt8__detail9_ExecutorIN9__gnu_cxx17__normal_iteratorIPKcNSt7__cxx1112basic_stringIcSt11char_traitsIcESaIcEEEEESaINS5_9sub_matchISB_EEENS5_12regex_traitsIcEELb1EE6_M_dfsENSH_11_Match_modeEl
FNDA:0,_ZNSt8__detail9_ExecutorIN9__gnu_cxx17__normal_iteratorIPKcNSt7__cxx1112basic_stringIcSt11char_traitsIcESaIcEEEEESaINS5_9sub_matchISB_EEENS5_12regex_traitsIcEELb0EE6_M_dfsENSH_11_Match_modeEl
FNDA:0,_ZNKSt8__detail9_ExecutorIN9__gnu_cxx17__normal_iteratorIPKcNSt7__cxx1112basic_stringIcSt11char_traitsIcESaIcEEEEESaINS5_9sub_matchISB_EEENS5_12regex_traitsIcEELb1EE16_M_word_boundaryEv
FNDA:0,_ZNKSt8__detail9_ExecutorIN9__gnu_cxx17__normal_iteratorIPKcNSt7__cxx1112basic_stringIcSt11char_traitsIcESaIcEEEEESaINS5_9sub_matchISB_EEENS5_12regex_traitsIcEELb0EE16_M_word_boundaryEv
FNF:34
FNH:10
DA:39,9325
DA:42,9325
DA:43,4687
DA:44,4638
DA:45,0
DA:46,4638
DA:47,82928
DA:49,41466
DA:50,41466
DA:51,2321
DA:53,2317
DA:81,50791
DA:84,50791
DA:85,50791
DA:86,50791
DA:87,50791
DA:88,50791
DA:115,0
DA:118,0
DA:119,0
DA:120,0
DA:122,0
DA:123,0
DA:124,0
DA:125,0
DA:126,0
DA:127,0
DA:129,0
DA:130,0
DA:132,0
DA:133,0
DA:134,0
DA:135,0
DA:136,0
DA:138,0
DA:139,0
DA:140,0
DA:141,0
DA:147,0
DA:153,0
DA:154,0
DA:155,0
DA:156,0
DA:158,0
DA:159,0
DA:160,0
DA:161,0
DA:163,0
DA:174,955
DA:177,955
DA:178,955
DA:179,955
DA:181,955
DA:182,955
DA:183,955
DA:184,955
DA:185,955
DA:189,0
DA:191,0
DA:192,0
DA:193,0
DA:196,955
DA:204,955
DA:207,955
DA:210,955
DA:212,955
DA:214,955
DA:215,300
DA:222,0
DA:223,0
DA:224,0
DA:231,0
DA:233,0
DA:237,0
DA:238,0
DA:242,955
DA:246,51240
DA:249,51240
DA:251,51240
DA:252,51240
DA:253,51240
DA:254,51240
DA:255,51240
DA:256,51240
DA:260,7501
DA:263,7501
DA:265,7501
DA:266,7501
DA:267,7501
DA:268,7501
DA:269,7501
DA:270,7501
DA:271,7501
DA:275,0
DA:278,0
DA:279,0
DA:280,0
DA:281,0
DA:285,0
DA:288,0
DA:289,0
DA:290,0
DA:291,0
DA:295,0
DA:298,0
DA:299,0
DA:300,0
DA:301,0
DA:307,0
DA:310,0
DA:311,0
DA:312,0
DA:313,0
DA:317,162913
DA:320,162913
DA:322,162913
DA:323,5271
DA:326,157642
DA:328,64198
DA:329,64198
DA:330,64198
DA:334,0
DA:335,0
DA:344,0
DA:349,0
DA:350,0
DA:351,0
DA:352,0
DA:353,0
DA:354,0
DA:355,0
DA:357,0
DA:358,0
DA:360,0
DA:362,0
DA:364,0
DA:365,0
DA:366,0
DA:367,0
DA:370,0
DA:376,7008
DA:382,7008
DA:383,0
DA:385,7008
DA:386,14016
DA:387,7008
DA:388,0
DA:389,7008
DA:391,7008
DA:392,7008
DA:403,0
DA:404,0
DA:405,0
DA:406,0
DA:408,0
DA:409,0
DA:416,0
DA:417,0
DA:418,0
DA:419,0
DA:420,0
DA:422,0
DA:423,0
DA:430,55902
DA:433,55902
DA:435,55902
DA:438,55902
DA:440,55902
DA:441,54632
DA:447,0
DA:448,0
DA:449,0
DA:450,0
DA:451,0
DA:453,55902
DA:457,285519
DA:460,285519
DA:461,0
DA:463,285519
DA:465,955
DA:466,955
DA:467,51240
DA:468,51240
DA:469,7501
DA:470,7501
DA:471,0
DA:472,0
DA:473,0
DA:474,0
DA:475,0
DA:476,0
DA:477,0
DA:478,0
DA:479,162913
DA:480,162913
DA:481,0
DA:482,0
DA:483,7008
DA:484,7008
DA:485,55902
DA:486,55902
DA:495,0
DA:498,0
DA:499,0
DA:500,0
DA:501,0
DA:503,0
DA:504,0
DA:505,0
DA:507,0
DA:508,0
DA:509,0
DA:511,0
DA:512,0
DA:514,0
LF:215
LH:88
end_of_record
SF:/usr/include/c++/7/bits/regex_scanner.h
FN:91,_ZNSt8__detail12_ScannerBaseC2ENSt15regex_constants18syntax_option_typeE
FN:115,_ZNSt8__detail12_ScannerBase14_M_find_escapeEc
FN:125,_ZNKSt8__detail12_ScannerBase10_M_is_ecmaEv
FN:129,_ZNKSt8__detail12_ScannerBase11_M_is_basicEv
FN:145,_ZNKSt8__detail12_ScannerBase9_M_is_awkEv
FN:210,_ZNSt8__detail8_ScannerIcED2Ev
FN:226,_ZNKSt8__detail8_ScannerIcE12_M_get_tokenEv
FN:230,_ZNKSt8__detail8_ScannerIcE12_M_get_valueB5cxx11Ev
FNDA:2327,_ZNSt8__detail12_ScannerBaseC2ENSt15regex_constants18syntax_option_typeE
FNDA:434,_ZNSt8__detail12_ScannerBase14_M_find_escapeEc
FNDA:9374,_ZNKSt8__detail12_ScannerBase10_M_is_ecmaEv
FNDA:494,_ZNKSt8__detail12_ScannerBase11_M_is_basicEv
FNDA:0,_ZNKSt8__detail12_ScannerBase9_M_is_awkEv
FNDA:2327,_ZNSt8__detail8_ScannerIcED2Ev
FNDA:380722,_ZNKSt8__detail8_ScannerIcE12_M_get_tokenEv
FNDA:39058,_ZNKSt8__detail8_ScannerIcE12_M_get_valueB5cxx11Ev
FNF:8
FNH:7
DA:91,2327
DA:92,2327
DA:94,2327
DA:95,2327
DA:97,2327
DA:98,2327
DA:99,0
DA:100,0
DA:101,0
DA:102,0
DA:103,0
DA:104,0
DA:105,0
DA:106,0
DA:107,0
DA:108,0
DA:110,6981
DA:111,2327
DA:115,434
DA:117,434
DA:118,6510
DA:119,3038
DA:120,0
DA:121,434
DA:125,9374
DA:126,9374
DA:129,494
DA:130,494
DA:145,0
DA:146,0
DA:210,2327
DA:226,380722
DA:227,380722
DA:230,39058
DA:231,39058
LF:35
LH:22
end_of_record
SF:/usr/include/c++/7/bits/regex_scanner.tcc
FN:56,_ZNSt8__detail8_ScannerIcEC2EPKcS3_NSt15regex_constants18syntax_option_typeESt6locale
FN:70,_ZNSt8__detail8_ScannerIcE10_M_advanceEv
FN:96,_ZNSt8__detail8_ScannerIcE14_M_scan_normalEv
FN:203,_ZNSt8__detail8_ScannerIcE18_M_scan_in_bracketEv
FN:265,_ZNSt8__detail8_ScannerIcE16_M_scan_in_braceEv
FN:310,_ZNSt8__detail8_ScannerIcE18_M_eat_escape_ecmaEv
FN:389,_ZNSt8__detail8_ScannerIcE19_M_eat_escape_posixEv
FN:431,_ZNSt8__detail8_ScannerIcE17_M_eat_escape_awkEv
FN:469,_ZNSt8__detail8_ScannerIcE12_M_eat_classEc
FNDA:2327,_ZNSt8__detail8_ScannerIcEC2EPKcS3_NSt15regex_constants18syntax_option_typeESt6locale
FNDA:41385,_ZNSt8__detail8_ScannerIcE10_M_advanceEv
FNDA:15800,_ZNSt8__detail8_ScannerIcE14_M_scan_normalEv
FNDA:20691,_ZNSt8__detail8_ScannerIcE18_M_scan_in_bracketEv
FNDA:240,_ZNSt8__detail8_ScannerIcE16_M_scan_in_braceEv
FNDA:434,_ZNSt8__detail8_ScannerIcE18_M_eat_escape_ecmaEv
FNDA:0,_ZNSt8__detail8_ScannerIcE19_M_eat_escape_posixEv
FNDA:0,_ZNSt8__detail8_ScannerIcE17_M_eat_escape_awkEv
FNDA:0,_ZNSt8__detail8_ScannerIcE12_M_eat_classEc
FNF:9
FNH:6
DA:56,2327
DA:62,2327
DA:63,2327
DA:65,6981
DA:66,2327
DA:70,41385
DA:73,41385
DA:75,4654
DA:76,4654
DA:79,36731
DA:80,15800
DA:81,20931
DA:82,20691
DA:83,240
DA:84,240
DA:96,15800
DA:99,15800
DA:101,15800
DA:103,9908
DA:104,9908
DA:105,9908
DA:107,5892
DA:109,434
DA:110,0
DA:114,868
DA:115,868
DA:116,0
DA:117,0
DA:119,434
DA:120,434
DA:122,0
DA:124,5458
DA:126,94
DA:128,0
DA:129,0
DA:133,0
DA:135,0
DA:136,0
DA:138,0
DA:140,0
DA:141,0
DA:142,0
DA:144,0
DA:146,0
DA:147,0
DA:148,0
DA:151,0
DA:155,94
DA:156,0
DA:158,94
DA:160,5364
DA:161,94
DA:162,5270
DA:164,2299
DA:165,2299
DA:166,2299
DA:168,0
DA:169,0
DA:172,2299
DA:174,2971
DA:176,60
DA:177,60
DA:179,2911
DA:181,2911
DA:182,2911
DA:183,37723
DA:184,20317
DA:186,2911
DA:187,2911
DA:189,0
DA:193,0
DA:194,0
DA:203,20691
DA:206,20691
DA:207,0
DA:211,20691
DA:213,20691
DA:214,0
DA:215,20691
DA:217,0
DA:218,0
DA:221,0
DA:223,0
DA:224,0
DA:226,0
DA:228,0
DA:229,0
DA:231,0
DA:233,0
DA:234,0
DA:238,0
DA:239,0
DA:245,20691
DA:247,2299
DA:248,2299
DA:251,18392
DA:252,0
DA:255,18392
DA:256,18392
DA:258,20691
DA:259,20691
DA:265,240
DA:268,240
DA:269,0
DA:273,240
DA:275,240
DA:277,120
DA:278,120
DA:279,120
DA:280,120
DA:281,0
DA:283,120
DA:284,60
DA:286,60
DA:288,0
DA:290,0
DA:291,0
DA:292,0
DA:295,0
DA:298,60
DA:300,60
DA:301,60
DA:304,0
DA:306,240
DA:310,434
DA:313,434
DA:314,0
DA:317,434
DA:318,434
DA:320,434
DA:322,0
DA:323,0
DA:325,434
DA:327,0
DA:328,0
DA:330,434
DA:332,0
DA:333,0
DA:336,434
DA:337,350
DA:338,350
DA:339,350
DA:340,350
DA:341,350
DA:343,84
DA:344,84
DA:346,350
DA:348,0
DA:349,0
DA:352,0
DA:353,0
DA:355,350
DA:357,0
DA:358,0
DA:360,0
DA:361,0
DA:362,0
DA:365,0
DA:367,0
DA:370,350
DA:372,0
DA:373,0
DA:374,0
DA:375,0
DA:376,0
DA:380,350
DA:381,350
DA:383,434
DA:389,0
DA:392,0
DA:393,0
DA:396,0
DA:397,0
DA:399,0
DA:401,0
DA:402,0
DA:405,0
DA:407,0
DA:408,0
DA:410,0
DA:412,0
DA:413,0
DA:422,0
DA:423,0
DA:426,0
DA:431,0
DA:434,0
DA:435,0
DA:437,0
DA:439,0
DA:440,0
DA:443,0
DA:444,0
DA:445,0
DA:447,0
DA:448,0
DA:450,0
DA:451,0
DA:452,0
DA:453,0
DA:455,0
DA:456,0
DA:457,0
DA:460,0
DA:469,0
DA:472,0
DA:473,0
DA:474,0
DA:475,0
DA:476,0
DA:477,0
DA:479,0
DA:480,0
DA:483,0
DA:486,0
LF:215
LH:97
end_of_record
SF:/usr/include/c++/7/bits/shared_ptr.h
FN:93,_ZNSt10shared_ptrIKNSt8__detail4_NFAINSt7__cxx1112regex_traitsIcEEEEED2Ev
FN:93,_ZNSt10shared_ptrINSt8__detail4_NFAINSt7__cxx1112regex_traitsIcEEEEED2Ev
FN:253,_ZNSt10shared_ptrIKNSt8__detail4_NFAINSt7__cxx1112regex_traitsIcEEEEEC2IS5_vEEOS_IT_E
FN:342,_ZNSt10shared_ptrINSt8__detail4_NFAINSt7__cxx1112regex_traitsIcEEEEEC2ISaIS5_EJRKSt6localeRNSt15regex_constants18syntax_option_typeEEEESt19_Sp_make_shared_tagRKT_DpOT0_
FN:373,_ZSteqIKNSt8__detail4_NFAINSt7__cxx1112regex_traitsIcEEEEEbRKSt10shared_ptrIT_EDn
FN:688,_ZSt15allocate_sharedINSt8__detail4_NFAINSt7__cxx1112regex_traitsIcEEEESaIS5_EJRKSt6localeRNSt15regex_constants18syntax_option_typeEEESt10shared_ptrIT_ERKT0_DpOT1_
FN:703,_ZSt11make_sharedINSt8__detail4_NFAINSt7__cxx1112regex_traitsIcEEEEJRKSt6localeRNSt15regex_constants18syntax_option_typeEEESt10shared_ptrIT_EDpOT0_
FNDA:2327,_ZNSt10shared_ptrINSt8__detail4_NFAINSt7__cxx1112regex_traitsIcEEEEED2Ev
FNDA:2327,_ZNSt10shared_ptrIKNSt8__detail4_NFAINSt7__cxx1112regex_traitsIcEEEEED2Ev
FNDA:2327,_ZNSt10shared_ptrIKNSt8__detail4_NFAINSt7__cxx1112regex_traitsIcEEEEEC2IS5_vEEOS_IT_E
FNDA:2327,_ZNSt10shared_ptrINSt8__detail4_NFAINSt7__cxx1112regex_traitsIcEEEEEC2ISaIS5_EJRKSt6localeRNSt15regex_constants18syntax_option_typeEEEESt19_Sp_make_shared_tagRKT_DpOT0_
FNDA:9325,_ZSteqIKNSt8__detail4_NFAINSt7__cxx1112regex_traitsIcEEEEEbRKSt10shared_ptrIT_EDn
FNDA:2327,_ZSt15allocate_sharedINSt8__detail4_NFAINSt7__cxx1112regex_traitsIcEEEESaIS5_EJRKSt6localeRNSt15regex_constants18syntax_option_typeEEESt10shared_ptrIT_ERKT0_DpOT1_
FNDA:2327,_ZSt11make_sharedINSt8__detail4_NFAINSt7__cxx1112regex_traitsIcEEEEJRKSt6localeRNSt15regex_constants18syntax_option_typeEEESt10shared_ptrIT_EDpOT0_
FNF:7
FNH:7
DA:93,4654
DA:253,2327
DA:254,2327
DA:342,2327
DA:344,2327
DA:345,2327
DA:373,9325
DA:374,9325
DA:688,2327
DA:691,2327
DA:703,2327
DA:707,2327
LF:12
LH:12
end_of_record
SF:/usr/include/c++/7/bits/shared_ptr_base.h
FN:116,_ZNSt16_Sp_counted_baseILN9__gnu_cxx12_Lock_policyE2EEC2Ev
FN:120,_ZNSt16_Sp_counted_baseILN9__gnu_cxx12_Lock_policyE2EED2Ev
FN:120,_ZNSt16_Sp_counted_baseILN9__gnu_cxx12_Lock_policyE2EED0Ev
FN:130,_ZNSt16_Sp_counted_baseILN9__gnu_cxx12_Lock_policyE2EE10_M_destroyEv
FN:147,_ZNSt16_Sp_counted_baseILN9__gnu_cxx12_Lock_policyE2EE10_M_releaseEv
FN:411,_ZNSt14_Sp_ebo_helperILi0ESaINSt8__detail4_NFAINSt7__cxx1112regex_traitsIcEEEEELb1EED2Ev
FN:413,_ZNSt14_Sp_ebo_helperILi0ESaINSt8__detail4_NFAINSt7__cxx1112regex_traitsIcEEEEELb1EEC2ERKS6_
FN:417,_ZNSt14_Sp_ebo_helperILi0ESaINSt8__detail4_NFAINSt7__cxx1112regex_traitsIcEEEEELb1EE6_S_getERS7_
FN:505,_ZNSt23_Sp_counted_ptr_inplaceINSt8__detail4_NFAINSt7__cxx1112regex_traitsIcEEEESaIS5_ELN9__gnu_cxx12_Lock_policyE2EE5_ImplD2Ev
FN:510,_ZNSt23_Sp_counted_ptr_inplaceINSt8__detail4_NFAINSt7__cxx1112regex_traitsIcEEEESaIS5_ELN9__gnu_cxx12_Lock_policyE2EE5_ImplC2ES6_
FN:512,_ZNSt23_Sp_counted_ptr_inplaceINSt8__detail4_NFAINSt7__cxx1112regex_traitsIcEEEESaIS5_ELN9__gnu_cxx12_Lock_policyE2EE5_Impl8_M_allocEv
FN:521,_ZNSt23_Sp_counted_ptr_inplaceINSt8__detail4_NFAINSt7__cxx1112regex_traitsIcEEEESaIS5_ELN9__gnu_cxx12_Lock_policyE2EEC2IJRKSt6localeRNSt15regex_constants18syntax_option_typeEEEES6_DpOT_
FN:530,_ZNSt23_Sp_counted_ptr_inplaceINSt8__detail4_NFAINSt7__cxx1112regex_traitsIcEEEESaIS5_ELN9__gnu_cxx12_Lock_policyE2EED2Ev
FN:530,_ZNSt23_Sp_counted_ptr_inplaceINSt8__detail4_NFAINSt7__cxx1112regex_traitsIcEEEESaIS5_ELN9__gnu_cxx12_Lock_policyE2EED0Ev
FN:533,_ZNSt23_Sp_counted_ptr_inplaceINSt8__detail4_NFAINSt7__cxx1112regex_traitsIcEEEESaIS5_ELN9__gnu_cxx12_Lock_policyE2EE10_M_disposeEv
FN:540,_ZNSt23_Sp_counted_ptr_inplaceINSt8__detail4_NFAINSt7__cxx1112regex_traitsIcEEEESaIS5_ELN9__gnu_cxx12_Lock_policyE2EE10_M_destroyEv
FN:549,_ZNSt23_Sp_counted_ptr_inplaceINSt8__detail4_NFAINSt7__cxx1112regex_traitsIcEEEESaIS5_ELN9__gnu_cxx12_Lock_policyE2EE14_M_get_deleterERKSt9type_info
FN:559,_ZNSt23_Sp_counted_ptr_inplaceINSt8__detail4_NFAINSt7__cxx1112regex_traitsIcEEEESaIS5_ELN9__gnu_cxx12_Lock_policyE2EE6_M_ptrEv
FN:575,_ZNSt14__shared_countILN9__gnu_cxx12_Lock_policyE2EEC2Ev
FN:629,_ZNSt14__shared_countILN9__gnu_cxx12_Lock_policyE2EEC2INSt8__detail4_NFAINSt7__cxx1112regex_traitsIcEEEESaIS9_EJRKSt6localeRNSt15regex_constants18syntax_option_typeEEEESt19_Sp_make_shared_tagPT_RKT0_DpOT1_
FN:681,_ZNSt14__shared_countILN9__gnu_cxx12_Lock_policyE2EED2Ev
FN:710,_ZNSt14__shared_countILN9__gnu_cxx12_Lock_policyE2EE7_M_swapERS2_
FN:726,_ZNKSt14__shared_countILN9__gnu_cxx12_Lock_policyE2EE14_M_get_deleterERKSt9type_info
FN:959,_ZNKSt19__shared_ptr_accessINSt8__detail4_NFAINSt7__cxx1112regex_traitsIcEEEELN9__gnu_cxx12_Lock_policyE2ELb0ELb0EEdeEv
FN:959,_ZNKSt19__shared_ptr_accessIKNSt8__detail4_NFAINSt7__cxx1112regex_traitsIcEEEELN9__gnu_cxx12_Lock_policyE2ELb0ELb0EEdeEv
FN:966,_ZNKSt19__shared_ptr_accessINSt8__detail4_NFAINSt7__cxx1112regex_traitsIcEEEELN9__gnu_cxx12_Lock_policyE2ELb0ELb0EEptEv
FN:966,_ZNKSt19__shared_ptr_accessIKNSt8__detail4_NFAINSt7__cxx1112regex_traitsIcEEEELN9__gnu_cxx12_Lock_policyE2ELb0ELb0EEptEv
FN:974,_ZNKSt19__shared_ptr_accessIKNSt8__detail4_NFAINSt7__cxx1112regex_traitsIcEEEELN9__gnu_cxx12_Lock_policyE2ELb0ELb0EE6_M_getEv
FN:974,_ZNKSt19__shared_ptr_accessINSt8__detail4_NFAINSt7__cxx1112regex_traitsIcEEEELN9__gnu_cxx12_Lock_policyE2ELb0ELb0EE6_M_getEv
FN:1123,_ZNSt12__shared_ptrIKNSt8__detail4_NFAINSt7__cxx1112regex_traitsIcEEEELN9__gnu_cxx12_Lock_policyE2EED2Ev
FN:1123,_ZNSt12__shared_ptrINSt8__detail4_NFAINSt7__cxx1112regex_traitsIcEEEELN9__gnu_cxx12_Lock_policyE2EED2Ev
FN:1138,_ZNSt12__shared_ptrIKNSt8__detail4_NFAINSt7__cxx1112regex_traitsIcEEEELN9__gnu_cxx12_Lock_policyE2EEC2IS5_vEEOS_IT_LS8_2EE
FN:1257,_ZNKSt12__shared_ptrIKNSt8__detail4_NFAINSt7__cxx1112regex_traitsIcEEEELN9__gnu_cxx12_Lock_policyE2EE3getEv
FN:1257,_ZNKSt12__shared_ptrINSt8__detail4_NFAINSt7__cxx1112regex_traitsIcEEEELN9__gnu_cxx12_Lock_policyE2EE3getEv
FN:1260,_ZNKSt12__shared_ptrIKNSt8__detail4_NFAINSt7__cxx1112regex_traitsIcEEEELN9__gnu_cxx12_Lock_policyE2EEcvbEv
FN:1292,_ZNSt12__shared_ptrINSt8__detail4_NFAINSt7__cxx1112regex_traitsIcEEEELN9__gnu_cxx12_Lock_policyE2EEC2ISaIS5_EJRKSt6localeRNSt15regex_constants18syntax_option_typeEEEESt19_Sp_make_shared_tagRKT_DpOT0_
FN:1378,_ZNSt12__shared_ptrINSt8__detail4_NFAINSt7__cxx1112regex_traitsIcEEEELN9__gnu_cxx12_Lock_policyE2EE31_M_enable_shared_from_this_withIS5_S5_EENSt9enable_ifIXntsrNS8_15__has_esft_baseIT0_vEE5valueEvE4typeEPT_
FNDA:2327,_ZNSt16_Sp_counted_baseILN9__gnu_cxx12_Lock_policyE2EEC2Ev
FNDA:0,_ZNSt16_Sp_counted_baseILN9__gnu_cxx12_Lock_policyE2EED0Ev
FNDA:2327,_ZNSt16_Sp_counted_baseILN9__gnu_cxx12_Lock_policyE2EED2Ev
FNDA:0,_ZNSt16_Sp_counted_baseILN9__gnu_cxx12_Lock_policyE2EE10_M_destroyEv
FNDA:2327,_ZNSt16_Sp_counted_baseILN9__gnu_cxx12_Lock_policyE2EE10_M_releaseEv
FNDA:2327,_ZNSt14_Sp_ebo_helperILi0ESaINSt8__detail4_NFAINSt7__cxx1112regex_traitsIcEEEEELb1EED2Ev
FNDA:2327,_ZNSt14_Sp_ebo_helperILi0ESaINSt8__detail4_NFAINSt7__cxx1112regex_traitsIcEEEEELb1EEC2ERKS6_
FNDA:4654,_ZNSt14_Sp_ebo_helperILi0ESaINSt8__detail4_NFAINSt7__cxx1112regex_traitsIcEEEEELb1EE6_S_getERS7_
FNDA:2327,_ZNSt23_Sp_counted_ptr_inplaceINSt8__detail4_NFAINSt7__cxx1112regex_traitsIcEEEESaIS5_ELN9__gnu_cxx12_Lock_policyE2EE5_ImplD2Ev
FNDA:2327,_ZNSt23_Sp_counted_ptr_inplaceINSt8__detail4_NFAINSt7__cxx1112regex_traitsIcEEEESaIS5_ELN9__gnu_cxx12_Lock_policyE2EE5_ImplC2ES6_
FNDA:4654,_ZNSt23_Sp_counted_ptr_inplaceINSt8__detail4_NFAINSt7__cxx1112regex_traitsIcEEEESaIS5_ELN9__gnu_cxx12_Lock_policyE2EE5_Impl8_M_allocEv
FNDA:2327,_ZNSt23_Sp_counted_ptr_inplaceINSt8__detail4_NFAINSt7__cxx1112regex_traitsIcEEEESaIS5_ELN9__gnu_cxx12_Lock_policyE2EEC2IJRKSt6localeRNSt15regex_constants18syntax_option_typeEEEES6_DpOT_
FNDA:0,_ZNSt23_Sp_counted_ptr_inplaceINSt8__detail4_NFAINSt7__cxx1112regex_traitsIcEEEESaIS5_ELN9__gnu_cxx12_Lock_policyE2EED0Ev
FNDA:2327,_ZNSt23_Sp_counted_ptr_inplaceINSt8__detail4_NFAINSt7__cxx1112regex_traitsIcEEEESaIS5_ELN9__gnu_cxx12_Lock_policyE2EED2Ev
FNDA:2327,_ZNSt23_Sp_counted_ptr_inplaceINSt8__detail4_NFAINSt7__cxx1112regex_traitsIcEEEESaIS5_ELN9__gnu_cxx12_Lock_policyE2EE10_M_disposeEv
FNDA:2327,_ZNSt23_Sp_counted_ptr_inplaceINSt8__detail4_NFAINSt7__cxx1112regex_traitsIcEEEESaIS5_ELN9__gnu_cxx12_Lock_policyE2EE10_M_destroyEv
FNDA:2327,_ZNSt23_Sp_counted_ptr_inplaceINSt8__detail4_NFAINSt7__cxx1112regex_traitsIcEEEESaIS5_ELN9__gnu_cxx12_Lock_policyE2EE14_M_get_deleterERKSt9type_info
FNDA:6981,_ZNSt23_Sp_counted_ptr_inplaceINSt8__detail4_NFAINSt7__cxx1112regex_traitsIcEEEESaIS5_ELN9__gnu_cxx12_Lock_policyE2EE6_M_ptrEv
FNDA:2327,_ZNSt14__shared_countILN9__gnu_cxx12_Lock_policyE2EEC2Ev
FNDA:2327,_ZNSt14__shared_countILN9__gnu_cxx12_Lock_policyE2EEC2INSt8__detail4_NFAINSt7__cxx1112regex_traitsIcEEEESaIS9_EJRKSt6localeRNSt15regex_constants18syntax_option_typeEEEESt19_Sp_make_shared_tagPT_RKT0_DpOT1_
FNDA:4654,_ZNSt14__shared_countILN9__gnu_cxx12_Lock_policyE2EED2Ev
FNDA:2327,_ZNSt14__shared_countILN9__gnu_cxx12_Lock_policyE2EE7_M_swapERS2_
FNDA:2327,_ZNKSt14__shared_countILN9__gnu_cxx12_Lock_policyE2EE14_M_get_deleterERKSt9type_info
FNDA:23465,_ZNKSt19__shared_ptr_accessINSt8__detail4_NFAINSt7__cxx1112regex_traitsIcEEEELN9__gnu_cxx12_Lock_policyE2ELb0ELb0EEdeEv
FNDA:9325,_ZNKSt19__shared_ptr_accessIKNSt8__detail4_NFAINSt7__cxx1112regex_traitsIcEEEELN9__gnu_cxx12_Lock_policyE2ELb0ELb0EEdeEv
FNDA:38085,_ZNKSt19__shared_ptr_accessINSt8__detail4_NFAINSt7__cxx1112regex_traitsIcEEEELN9__gnu_cxx12_Lock_policyE2ELb0ELb0EEptEv
FNDA:9325,_ZNKSt19__shared_ptr_accessIKNSt8__detail4_NFAINSt7__cxx1112regex_traitsIcEEEELN9__gnu_cxx12_Lock_policyE2ELb0ELb0EEptEv
FNDA:61550,_ZNKSt19__shared_ptr_accessINSt8__detail4_NFAINSt7__cxx1112regex_traitsIcEEEELN9__gnu_cxx12_Lock_policyE2ELb0ELb0EE6_M_getEv
FNDA:18650,_ZNKSt19__shared_ptr_accessIKNSt8__detail4_NFAINSt7__cxx1112regex_traitsIcEEEELN9__gnu_cxx12_Lock_policyE2ELb0ELb0EE6_M_getEv
FNDA:2327,_ZNSt12__shared_ptrINSt8__detail4_NFAINSt7__cxx1112regex_traitsIcEEEELN9__gnu_cxx12_Lock_policyE2EED2Ev
FNDA:2327,_ZNSt12__shared_ptrIKNSt8__detail4_NFAINSt7__cxx1112regex_traitsIcEEEELN9__gnu_cxx12_Lock_policyE2EED2Ev
FNDA:2327,_ZNSt12__shared_ptrIKNSt8__detail4_NFAINSt7__cxx1112regex_traitsIcEEEELN9__gnu_cxx12_Lock_policyE2EEC2IS5_vEEOS_IT_LS8_2EE
FNDA:61550,_ZNKSt12__shared_ptrINSt8__detail4_NFAINSt7__cxx1112regex_traitsIcEEEELN9__gnu_cxx12_Lock_policyE2EE3getEv
FNDA:18650,_ZNKSt12__shared_ptrIKNSt8__detail4_NFAINSt7__cxx1112regex_traitsIcEEEELN9__gnu_cxx12_Lock_policyE2EE3getEv
FNDA:9325,_ZNKSt12__shared_ptrIKNSt8__detail4_NFAINSt7__cxx1112regex_traitsIcEEEELN9__gnu_cxx12_Lock_policyE2EEcvbEv
FNDA:2327,_ZNSt12__shared_ptrINSt8__detail4_NFAINSt7__cxx1112regex_traitsIcEEEELN9__gnu_cxx12_Lock_policyE2EEC2ISaIS5_EJRKSt6localeRNSt15regex_constants18syntax_option_typeEEEESt19_Sp_make_shared_tagRKT_DpOT0_
FNDA:2327,_ZNSt12__shared_ptrINSt8__detail4_NFAINSt7__cxx1112regex_traitsIcEEEELN9__gnu_cxx12_Lock_policyE2EE31_M_enable_shared_from_this_withIS5_S5_EENSt9enable_ifIXntsrNS8_15__has_esft_baseIT0_vEE5valueEvE4typeEPT_
FNF:37
FNH:34
DA:116,2327
DA:117,2327
DA:120,2327
DA:121,2327
DA:130,0
DA:131,0
DA:147,2327
DA:151,2327
DA:154,2327
DA:166,4654
DA:167,2327
DA:170,2327
DA:173,2327
DA:411,2327
DA:413,2327
DA:417,4654
DA:505,2327
DA:510,2327
DA:512,4654
DA:521,2327
DA:522,2327
DA:526,2327
DA:528,2327
DA:530,2327
DA:533,2327
DA:535,2327
DA:536,2327
DA:540,2327
DA:542,4654
DA:543,4654
DA:544,2327
DA:545,2327
DA:549,2327
DA:552,2327
DA:553,2327
DA:555,0
DA:559,6981
DA:575,2327
DA:576,2327
DA:629,2327
DA:631,2327
DA:634,4654
DA:635,4654
DA:636,2327
DA:637,2327
DA:639,2327
DA:640,2327
DA:641,2327
DA:681,4654
DA:683,4654
DA:684,2327
DA:685,4654
DA:710,2327
DA:712,2327
DA:713,2327
DA:714,2327
DA:715,2327
DA:726,2327
DA:727,2327
DA:959,32790
DA:962,32790
DA:966,47410
DA:969,47410
DA:974,80200
DA:975,80200
DA:1123,4654
DA:1138,2327
DA:1139,2327
DA:1141,2327
DA:1142,2327
DA:1143,2327
DA:1257,80200
DA:1258,80200
DA:1260,9325
DA:1261,9325
DA:1292,2327
DA:1295,2327
DA:1299,2327
DA:1300,2327
DA:1301,2327
DA:1302,2327
DA:1378,2327
DA:1379,2327
LF:83
LH:80
end_of_record
SF:/usr/include/c++/7/bits/std_function.h
FN:106,_ZNSt9_Any_data9_M_accessEv
FN:107,_ZNKSt9_Any_data9_M_accessEv
FN:111,_ZNSt9_Any_data9_M_accessINSt8__detail12_CharMatcherINSt7__cxx1112regex_traitsIcEELb0ELb0EEEEERT_v
FN:111,_ZNSt9_Any_data9_M_accessIPNSt8__detail11_AnyMatcherINSt7__cxx1112regex_traitsIcEELb0ELb0ELb1EEEEERT_v
FN:111,_ZNSt9_Any_data9_M_accessIPNSt8__detail11_AnyMatcherINSt7__cxx1112regex_traitsIcEELb1ELb0ELb1EEEEERT_v
FN:111,_ZNSt9_Any_data9_M_accessINSt8__detail11_AnyMatcherINSt7__cxx1112regex_traitsIcEELb1ELb0ELb1EEEEERT_v
FN:111,_ZNSt9_Any_data9_M_accessIPNSt8__detail12_CharMatcherINSt7__cxx1112regex_traitsIcEELb1ELb1EEEEERT_v
FN:111,_ZNSt9_Any_data9_M_accessINSt8__detail12_CharMatcherINSt7__cxx1112regex_traitsIcEELb1ELb0EEEEERT_v
FN:111,_ZNSt9_Any_data9_M_accessIPNSt8__detail12_CharMatcherINSt7__cxx1112regex_traitsIcEELb0ELb0EEEEERT_v
FN:111,_ZNSt9_Any_data9_M_accessINSt8__detail11_AnyMatcherINSt7__cxx1112regex_traitsIcEELb0ELb1ELb1EEEEERT_v
FN:111,_ZNSt9_Any_data9_M_accessIPNSt8__detail12_CharMatcherINSt7__cxx1112regex_traitsIcEELb1ELb0EEEEERT_v
FN:111,_ZNSt9_Any_data9_M_accessINSt8__detail12_CharMatcherINSt7__cxx1112regex_traitsIcEELb1ELb1EEEEERT_v
FN:111,_ZNSt9_Any_data9_M_accessINSt8__detail11_AnyMatcherINSt7__cxx1112regex_traitsIcEELb1ELb0ELb0EEEEERT_v
FN:111,_ZNSt9_Any_data9_M_accessIPNSt8__detail15_BracketMatcherINSt7__cxx1112regex_traitsIcEELb1ELb0EEEEERT_v
FN:111,_ZNSt9_Any_data9_M_accessIPNSt8__detail11_AnyMatcherINSt7__cxx1112regex_traitsIcEELb0ELb1ELb1EEEEERT_v
FN:111,_ZNSt9_Any_data9_M_accessIPNSt8__detail11_AnyMatcherINSt7__cxx1112regex_traitsIcEELb0ELb1ELb0EEEEERT_v
FN:111,_ZNSt9_Any_data9_M_accessIPNSt8__detail11_AnyMatcherINSt7__cxx1112regex_traitsIcEELb0ELb0ELb0EEEEERT_v
FN:111,_ZNSt9_Any_data9_M_accessINSt8__detail11_AnyMatcherINSt7__cxx1112regex_traitsIcEELb1ELb1ELb1EEEEERT_v
FN:111,_ZNSt9_Any_data9_M_accessINSt8__detail12_CharMatcherINSt7__cxx1112regex_traitsIcEELb0ELb1EEEEERT_v
FN:111,_ZNSt9_Any_data9_M_accessIPKSt9type_infoEERT_v
FN:111,_ZNSt9_Any_data9_M_accessIPNSt8__detail15_BracketMatcherINSt7__cxx1112regex_traitsIcEELb1ELb1EEEEERT_v
FN:111,_ZNSt9_Any_data9_M_accessINSt8__detail11_AnyMatcherINSt7__cxx1112regex_traitsIcEELb0ELb0ELb0EEEEERT_v
FN:111,_ZNSt9_Any_data9_M_accessIPNSt8__detail15_BracketMatcherINSt7__cxx1112regex_traitsIcEELb0ELb1EEEEERT_v
FN:111,_ZNSt9_Any_data9_M_accessIPNSt8__detail11_AnyMatcherINSt7__cxx1112regex_traitsIcEELb1ELb0ELb0EEEEERT_v
FN:111,_ZNSt9_Any_data9_M_accessINSt8__detail11_AnyMatcherINSt7__cxx1112regex_traitsIcEELb0ELb1ELb0EEEEERT_v
FN:111,_ZNSt9_Any_data9_M_accessIPNSt8__detail11_AnyMatcherINSt7__cxx1112regex_traitsIcEELb1ELb1ELb0EEEEERT_v
FN:111,_ZNSt9_Any_data9_M_accessIPNSt8__detail15_BracketMatcherINSt7__cxx1112regex_traitsIcEELb0ELb0EEEEERT_v
FN:111,_ZNSt9_Any_data9_M_accessINSt8__detail11_AnyMatcherINSt7__cxx1112regex_traitsIcEELb1ELb1ELb0EEEEERT_v
FN:111,_ZNSt9_Any_data9_M_accessIPNSt8__detail12_CharMatcherINSt7__cxx1112regex_traitsIcEELb0ELb1EEEEERT_v
FN:111,_ZNSt9_Any_data9_M_accessINSt8__detail11_AnyMatcherINSt7__cxx1112regex_traitsIcEELb0ELb0ELb1EEEEERT_v
FN:111,_ZNSt9_Any_data9_M_accessIPNSt8__detail11_AnyMatcherINSt7__cxx1112regex_traitsIcEELb1ELb1ELb1EEEEERT_v
FN:116,_ZNKSt9_Any_data9_M_accessINSt8__detail11_AnyMatcherINSt7__cxx1112regex_traitsIcEELb0ELb1ELb0EEEEERKT_v
FN:116,_ZNKSt9_Any_data9_M_accessIPNSt8__detail15_BracketMatcherINSt7__cxx1112regex_traitsIcEELb1ELb0EEEEERKT_v
FN:116,_ZNKSt9_Any_data9_M_accessINSt8__detail12_CharMatcherINSt7__cxx1112regex_traitsIcEELb0ELb0EEEEERKT_v
FN:116,_ZNKSt9_Any_data9_M_accessINSt8__detail12_CharMatcherINSt7__cxx1112regex_traitsIcEELb1ELb0EEEEERKT_v
FN:116,_ZNKSt9_Any_data9_M_accessINSt8__detail11_AnyMatcherINSt7__cxx1112regex_traitsIcEELb1ELb0ELb0EEEEERKT_v
FN:116,_ZNKSt9_Any_data9_M_accessINSt8__detail12_CharMatcherINSt7__cxx1112regex_traitsIcEELb0ELb1EEEEERKT_v
FN:116,_ZNKSt9_Any_data9_M_accessINSt8__detail11_AnyMatcherINSt7__cxx1112regex_traitsIcEELb0ELb0ELb0EEEEERKT_v
FN:116,_ZNKSt9_Any_data9_M_accessIPNSt8__detail15_BracketMatcherINSt7__cxx1112regex_traitsIcEELb0ELb1EEEEERKT_v
FN:116,_ZNKSt9_Any_data9_M_accessINSt8__detail12_CharMatcherINSt7__cxx1112regex_traitsIcEELb1ELb1EEEEERKT_v
FN:116,_ZNKSt9_Any_data9_M_accessINSt8__detail11_AnyMatcherINSt7__cxx1112regex_traitsIcEELb0ELb0ELb1EEEEERKT_v
FN:116,_ZNKSt9_Any_data9_M_accessINSt8__detail11_AnyMatcherINSt7__cxx1112regex_traitsIcEELb0ELb1ELb1EEEEERKT_v
FN:116,_ZNKSt9_Any_data9_M_accessIPNSt8__detail15_BracketMatcherINSt7__cxx1112regex_traitsIcEELb1ELb1EEEEERKT_v
FN:116,_ZNKSt9_Any_data9_M_accessINSt8__detail11_AnyMatcherINSt7__cxx1112regex_traitsIcEELb1ELb1ELb1EEEEERKT_v
FN:116,_ZNKSt9_Any_data9_M_accessIPNSt8__detail15_BracketMatcherINSt7__cxx1112regex_traitsIcEELb0ELb0EEEEERKT_v
FN:116,_ZNKSt9_Any_data9_M_accessINSt8__detail11_AnyMatcherINSt7__cxx1112regex_traitsIcEELb1ELb1ELb0EEEEERKT_v
FN:116,_ZNKSt9_Any_data9_M_accessINSt8__detail11_AnyMatcherINSt7__cxx1112regex_traitsIcEELb1ELb0ELb1EEEEERKT_v
FN:170,_ZNSt14_Function_base13_Base_managerINSt8__detail12_CharMatcherINSt7__cxx1112regex_traitsIcEELb1ELb1EEEE14_M_get_pointerERKSt9_Any_data
FN:170,_ZNSt14_Function_base13_Base_managerINSt8__detail15_BracketMatcherINSt7__cxx1112regex_traitsIcEELb1ELb0EEEE14_M_get_pointerERKSt9_Any_data
FN:170,_ZNSt14_Function_base13_Base_managerINSt8__detail11_AnyMatcherINSt7__cxx1112regex_traitsIcEELb1ELb1ELb0EEEE14_M_get_pointerERKSt9_Any_data
FN:170,_ZNSt14_Function_base13_Base_managerINSt8__detail11_AnyMatcherINSt7__cxx1112regex_traitsIcEELb1ELb1ELb1EEEE14_M_get_pointerERKSt9_Any_data
FN:170,_ZNSt14_Function_base13_Base_managerINSt8__detail11_AnyMatcherINSt7__cxx1112regex_traitsIcEELb1ELb0ELb1EEEE14_M_get_pointerERKSt9_Any_data
FN:170,_ZNSt14_Function_base13_Base_managerINSt8__detail11_AnyMatcherINSt7__cxx1112regex_traitsIcEELb1ELb0ELb0EEEE14_M_get_pointerERKSt9_Any_data
FN:170,_ZNSt14_Function_base13_Base_managerINSt8__detail11_AnyMatcherINSt7__cxx1112regex_traitsIcEELb0ELb1ELb1EEEE14_M_get_pointerERKSt9_Any_data
FN:170,_ZNSt14_Function_base13_Base_managerINSt8__detail11_AnyMatcherINSt7__cxx1112regex_traitsIcEELb0ELb1ELb0EEEE14_M_get_pointerERKSt9_Any_data
FN:170,_ZNSt14_Function_base13_Base_managerINSt8__detail11_AnyMatcherINSt7__cxx1112regex_traitsIcEELb0ELb0ELb1EEEE14_M_get_pointerERKSt9_Any_data
FN:170,_ZNSt14_Function_base13_Base_managerINSt8__detail15_BracketMatcherINSt7__cxx1112regex_traitsIcEELb0ELb0EEEE14_M_get_pointerERKSt9_Any_data
FN:170,_ZNSt14_Function_base13_Base_managerINSt8__detail12_CharMatcherINSt7__cxx1112regex_traitsIcEELb1ELb0EEEE14_M_get_pointerERKSt9_Any_data
FN:170,_ZNSt14_Function_base13_Base_managerINSt8__detail11_AnyMatcherINSt7__cxx1112regex_traitsIcEELb0ELb0ELb0EEEE14_M_get_pointerERKSt9_Any_data
FN:170,_ZNSt14_Function_base13_Base_managerINSt8__detail12_CharMatcherINSt7__cxx1112regex_traitsIcEELb0ELb1EEEE14_M_get_pointerERKSt9_Any_data
FN:170,_ZNSt14_Function_base13_Base_managerINSt8__detail12_CharMatcherINSt7__cxx1112regex_traitsIcEELb0ELb0EEEE14_M_get_pointerERKSt9_Any_data
FN:170,_ZNSt14_Function_base13_Base_managerINSt8__detail15_BracketMatcherINSt7__cxx1112regex_traitsIcEELb0ELb1EEEE14_M_get_pointerERKSt9_Any_data
FN:170,_ZNSt14_Function_base13_Base_managerINSt8__detail15_BracketMatcherINSt7__cxx1112regex_traitsIcEELb1ELb1EEEE14_M_get_pointerERKSt9_Any_data
FN:181,_ZNSt14_Function_base13_Base_managerINSt8__detail12_CharMatcherINSt7__cxx1112regex_traitsIcEELb1ELb0EEEE8_M_cloneERSt9_Any_dataRKS8_St17integral_constantIbLb1EE
FN:181,_ZNSt14_Function_base13_Base_managerINSt8__detail11_AnyMatcherINSt7__cxx1112regex_traitsIcEELb0ELb0ELb1EEEE8_M_cloneERSt9_Any_dataRKS8_St17integral_constantIbLb1EE
FN:181,_ZNSt14_Function_base13_Base_managerINSt8__detail12_CharMatcherINSt7__cxx1112regex_traitsIcEELb0ELb0EEEE8_M_cloneERSt9_Any_dataRKS8_St17integral_constantIbLb1EE
FN:181,_ZNSt14_Function_base13_Base_managerINSt8__detail11_AnyMatcherINSt7__cxx1112regex_traitsIcEELb0ELb0ELb0EEEE8_M_cloneERSt9_Any_dataRKS8_St17integral_constantIbLb1EE
FN:181,_ZNSt14_Function_base13_Base_managerINSt8__detail11_AnyMatcherINSt7__cxx1112regex_traitsIcEELb1ELb0ELb0EEEE8_M_cloneERSt9_Any_dataRKS8_St17integral_constantIbLb1EE
FN:181,_ZNSt14_Function_base13_Base_managerINSt8__detail11_AnyMatcherINSt7__cxx1112regex_traitsIcEELb0ELb1ELb1EEEE8_M_cloneERSt9_Any_dataRKS8_St17integral_constantIbLb1EE
FN:181,_ZNSt14_Function_base13_Base_managerINSt8__detail11_AnyMatcherINSt7__cxx1112regex_traitsIcEELb1ELb1ELb0EEEE8_M_cloneERSt9_Any_dataRKS8_St17integral_constantIbLb1EE
FN:181,_ZNSt14_Function_base13_Base_managerINSt8__detail12_CharMatcherINSt7__cxx1112regex_traitsIcEELb0ELb1EEEE8_M_cloneERSt9_Any_dataRKS8_St17integral_constantIbLb1EE
FN:181,_ZNSt14_Function_base13_Base_managerINSt8__detail11_AnyMatcherINSt7__cxx1112regex_traitsIcEELb1ELb1ELb1EEEE8_M_cloneERSt9_Any_dataRKS8_St17integral_constantIbLb1EE
FN:181,_ZNSt14_Function_base13_Base_managerINSt8__detail11_AnyMatcherINSt7__cxx1112regex_traitsIcEELb1ELb0ELb1EEEE8_M_cloneERSt9_Any_dataRKS8_St17integral_constantIbLb1EE
FN:181,_ZNSt14_Function_base13_Base_managerINSt8__detail12_CharMatcherINSt7__cxx1112regex_traitsIcEELb1ELb1EEEE8_M_cloneERSt9_Any_dataRKS8_St17integral_constantIbLb1EE
FN:181,_ZNSt14_Function_base13_Base_managerINSt8__detail11_AnyMatcherINSt7__cxx1112regex_traitsIcEELb0ELb1ELb0EEEE8_M_cloneERSt9_Any_dataRKS8_St17integral_constantIbLb1EE
FN:189,_ZNSt14_Function_base13_Base_managerINSt8__detail15_BracketMatcherINSt7__cxx1112regex_traitsIcEELb0ELb0EEEE8_M_cloneERSt9_Any_dataRKS8_St17integral_constantIbLb0EE
FN:189,_ZNSt14_Function_base13_Base_managerINSt8__detail15_BracketMatcherINSt7__cxx1112regex_traitsIcEELb1ELb0EEEE8_M_cloneERSt9_Any_dataRKS8_St17integral_constantIbLb0EE
FN:189,_ZNSt14_Function_base13_Base_managerINSt8__detail15_BracketMatcherINSt7__cxx1112regex_traitsIcEELb0ELb1EEEE8_M_cloneERSt9_Any_dataRKS8_St17integral_constantIbLb0EE
FN:189,_ZNSt14_Function_base13_Base_managerINSt8__detail15_BracketMatcherINSt7__cxx1112regex_traitsIcEELb1ELb1EEEE8_M_cloneERSt9_Any_dataRKS8_St17integral_constantIbLb0EE
FN:198,_ZNSt14_Function_base13_Base_managerINSt8__detail12_CharMatcherINSt7__cxx1112regex_traitsIcEELb0ELb1EEEE10_M_destroyERSt9_Any_dataSt17integral_constantIbLb1EE
FN:198,_ZNSt14_Function_base13_Base_managerINSt8__detail11_AnyMatcherINSt7__cxx1112regex_traitsIcEELb1ELb0ELb0EEEE10_M_destroyERSt9_Any_dataSt17integral_constantIbLb1EE
FN:198,_ZNSt14_Function_base13_Base_managerINSt8__detail11_AnyMatcherINSt7__cxx1112regex_traitsIcEELb1ELb1ELb1EEEE10_M_destroyERSt9_Any_dataSt17integral_constantIbLb1EE
FN:198,_ZNSt14_Function_base13_Base_managerINSt8__detail12_CharMatcherINSt7__cxx1112regex_traitsIcEELb1ELb1EEEE10_M_destroyERSt9_Any_dataSt17integral_constantIbLb1EE
FN:198,_ZNSt14_Function_base13_Base_managerINSt8__detail11_AnyMatcherINSt7__cxx1112regex_traitsIcEELb0ELb1ELb0EEEE10_M_destroyERSt9_Any_dataSt17integral_constantIbLb1EE
FN:198,_ZNSt14_Function_base13_Base_managerINSt8__detail12_CharMatcherINSt7__cxx1112regex_traitsIcEELb0ELb0EEEE10_M_destroyERSt9_Any_dataSt17integral_constantIbLb1EE
FN:198,_ZNSt14_Function_base13_Base_managerINSt8__detail12_CharMatcherINSt7__cxx1112regex_traitsIcEELb1ELb0EEEE10_M_destroyERSt9_Any_dataSt17integral_constantIbLb1EE
FN:198,_ZNSt14_Function_base13_Base_managerINSt8__detail11_AnyMatcherINSt7__cxx1112regex_traitsIcEELb0ELb0ELb0EEEE10_M_destroyERSt9_Any_dataSt17integral_constantIbLb1EE
FN:198,_ZNSt14_Function_base13_Base_managerINSt8__detail11_AnyMatcherINSt7__cxx1112regex_traitsIcEELb1ELb0ELb1EEEE10_M_destroyERSt9_Any_dataSt17integral_constantIbLb1EE
FN:198,_ZNSt14_Function_base13_Base_managerINSt8__detail11_AnyMatcherINSt7__cxx1112regex_traitsIcEELb0ELb1ELb1EEEE10_M_destroyERSt9_Any_dataSt17integral_constantIbLb1EE
FN:198,_ZNSt14_Function_base13_Base_managerINSt8__detail11_AnyMatcherINSt7__cxx1112regex_traitsIcEELb1ELb1ELb0EEEE10_M_destroyERSt9_Any_dataSt17integral_constantIbLb1EE
FN:198,_ZNSt14_Function_base13_Base_managerINSt8__detail11_AnyMatcherINSt7__cxx1112regex_traitsIcEELb0ELb0ELb1EEEE10_M_destroyERSt9_Any_dataSt17integral_constantIbLb1EE
FN:205,_ZNSt14_Function_base13_Base_managerINSt8__detail15_BracketMatcherINSt7__cxx1112regex_traitsIcEELb0ELb0EEEE10_M_destroyERSt9_Any_dataSt17integral_constantIbLb0EE
FN:205,_ZNSt14_Function_base13_Base_managerINSt8__detail15_BracketMatcherINSt7__cxx1112regex_traitsIcEELb1ELb0EEEE10_M_destroyERSt9_Any_dataSt17integral_constantIbLb0EE
FN:205,_ZNSt14_Function_base13_Base_managerINSt8__detail15_BracketMatcherINSt7__cxx1112regex_traitsIcEELb0ELb1EEEE10_M_destroyERSt9_Any_dataSt17integral_constantIbLb0EE
FN:205,_ZNSt14_Function_base13_Base_managerINSt8__detail15_BracketMatcherINSt7__cxx1112regex_traitsIcEELb1ELb1EEEE10_M_destroyERSt9_Any_dataSt17integral_constantIbLb0EE
FN:212,_ZNSt14_Function_base13_Base_managerINSt8__detail15_BracketMatcherINSt7__cxx1112regex_traitsIcEELb1ELb1EEEE10_M_managerERSt9_Any_dataRKS8_St18_Manager_operation
FN:212,_ZNSt14_Function_base13_Base_managerINSt8__detail11_AnyMatcherINSt7__cxx1112regex_traitsIcEELb1ELb0ELb1EEEE10_M_managerERSt9_Any_dataRKS8_St18_Manager_operation
FN:212,_ZNSt14_Function_base13_Base_managerINSt8__detail11_AnyMatcherINSt7__cxx1112regex_traitsIcEELb0ELb1ELb0EEEE10_M_managerERSt9_Any_dataRKS8_St18_Manager_operation
FN:212,_ZNSt14_Function_base13_Base_managerINSt8__detail11_AnyMatcherINSt7__cxx1112regex_traitsIcEELb0ELb0ELb1EEEE10_M_managerERSt9_Any_dataRKS8_St18_Manager_operation
FN:212,_ZNSt14_Function_base13_Base_managerINSt8__detail11_AnyMatcherINSt7__cxx1112regex_traitsIcEELb1ELb1ELb0EEEE10_M_managerERSt9_Any_dataRKS8_St18_Manager_operation
FN:212,_ZNSt14_Function_base13_Base_managerINSt8__detail12_CharMatcherINSt7__cxx1112regex_traitsIcEELb0ELb0EEEE10_M_managerERSt9_Any_dataRKS8_St18_Manager_operation
FN:212,_ZNSt14_Function_base13_Base_managerINSt8__detail11_AnyMatcherINSt7__cxx1112regex_traitsIcEELb1ELb1ELb1EEEE10_M_managerERSt9_Any_dataRKS8_St18_Manager_operation
FN:212,_ZNSt14_Function_base13_Base_managerINSt8__detail15_BracketMatcherINSt7__cxx1112regex_traitsIcEELb0ELb0EEEE10_M_managerERSt9_Any_dataRKS8_St18_Manager_operation
FN:212,_ZNSt14_Function_base13_Base_managerINSt8__detail15_BracketMatcherINSt7__cxx1112regex_traitsIcEELb0ELb1EEEE10_M_managerERSt9_Any_dataRKS8_St18_Manager_operation
FN:212,_ZNSt14_Function_base13_Base_managerINSt8__detail15_BracketMatcherINSt7__cxx1112regex_traitsIcEELb1ELb0EEEE10_M_managerERSt9_Any_dataRKS8_St18_Manager_operation
FN:212,_ZNSt14_Function_base13_Base_managerINSt8__detail11_AnyMatcherINSt7__cxx1112regex_traitsIcEELb1ELb0ELb0EEEE10_M_managerERSt9_Any_dataRKS8_St18_Manager_operation
FN:212,_ZNSt14_Function_base13_Base_managerINSt8__detail12_CharMatcherINSt7__cxx1112regex_traitsIcEELb1ELb0EEEE10_M_managerERSt9_Any_dataRKS8_St18_Manager_operation
FN:212,_ZNSt14_Function_base13_Base_managerINSt8__detail11_AnyMatcherINSt7__cxx1112regex_traitsIcEELb0ELb0ELb0EEEE10_M_managerERSt9_Any_dataRKS8_St18_Manager_operation
FN:212,_ZNSt14_Function_base13_Base_managerINSt8__detail12_CharMatcherINSt7__cxx1112regex_traitsIcEELb1ELb1EEEE10_M_managerERSt9_Any_dataRKS8_St18_Manager_operation
FN:212,_ZNSt14_Function_base13_Base_managerINSt8__detail12_CharMatcherINSt7__cxx1112regex_traitsIcEELb0ELb1EEEE10_M_managerERSt9_Any_dataRKS8_St18_Manager_operation
FN:212,_ZNSt14_Function_base13_Base_managerINSt8__detail11_AnyMatcherINSt7__cxx1112regex_traitsIcEELb0ELb1ELb1EEEE10_M_managerERSt9_Any_dataRKS8_St18_Manager_operation
FN:238,_ZNSt14_Function_base13_Base_managerINSt8__detail15_BracketMatcherINSt7__cxx1112regex_traitsIcEELb1ELb1EEEE15_M_init_functorERSt9_Any_dataOS6_
FN:238,_ZNSt14_Function_base13_Base_managerINSt8__detail11_AnyMatcherINSt7__cxx1112regex_traitsIcEELb1ELb1ELb1EEEE15_M_init_functorERSt9_Any_dataOS6_
FN:238,_ZNSt14_Function_base13_Base_managerINSt8__detail11_AnyMatcherINSt7__cxx1112regex_traitsIcEELb0ELb1ELb0EEEE15_M_init_functorERSt9_Any_dataOS6_
FN:238,_ZNSt14_Function_base13_Base_managerINSt8__detail12_CharMatcherINSt7__cxx1112regex_traitsIcEELb1ELb0EEEE15_M_init_functorERSt9_Any_dataOS6_
FN:238,_ZNSt14_Function_base13_Base_managerINSt8__detail12_CharMatcherINSt7__cxx1112regex_traitsIcEELb0ELb1EEEE15_M_init_functorERSt9_Any_dataOS6_
FN:238,_ZNSt14_Function_base13_Base_managerINSt8__detail12_CharMatcherINSt7__cxx1112regex_traitsIcEELb0ELb0EEEE15_M_init_functorERSt9_Any_dataOS6_
FN:238,_ZNSt14_Function_base13_Base_managerINSt8__detail15_BracketMatcherINSt7__cxx1112regex_traitsIcEELb0ELb0EEEE15_M_init_functorERSt9_Any_dataOS6_
FN:238,_ZNSt14_Function_base13_Base_managerINSt8__detail11_AnyMatcherINSt7__cxx1112regex_traitsIcEELb0ELb0ELb1EEEE15_M_init_functorERSt9_Any_dataOS6_
FN:238,_ZNSt14_Function_base13_Base_managerINSt8__detail12_CharMatcherINSt7__cxx1112regex_traitsIcEELb1ELb1EEEE15_M_init_functorERSt9_Any_dataOS6_
FN:238,_ZNSt14_Function_base13_Base_managerINSt8__detail15_BracketMatcherINSt7__cxx1112regex_traitsIcEELb0ELb1EEEE15_M_init_functorERSt9_Any_dataOS6_
FN:238,_ZNSt14_Function_base13_Base_managerINSt8__detail15_BracketMatcherINSt7__cxx1112regex_traitsIcEELb1ELb0EEEE15_M_init_functorERSt9_Any_dataOS6_
FN:238,_ZNSt14_Function_base13_Base_managerINSt8__detail11_AnyMatcherINSt7__cxx1112regex_traitsIcEELb0ELb0ELb0EEEE15_M_init_functorERSt9_Any_dataOS6_
FN:238,_ZNSt14_Function_base13_Base_managerINSt8__detail11_AnyMatcherINSt7__cxx1112regex_traitsIcEELb1ELb0ELb0EEEE15_M_init_functorERSt9_Any_dataOS6_
FN:238,_ZNSt14_Function_base13_Base_managerINSt8__detail11_AnyMatcherINSt7__cxx1112regex_traitsIcEELb1ELb0ELb1EEEE15_M_init_functorERSt9_Any_dataOS6_
FN:238,_ZNSt14_Function_base13_Base_managerINSt8__detail11_AnyMatcherINSt7__cxx1112regex_traitsIcEELb0ELb1ELb1EEEE15_M_init_functorERSt9_Any_dataOS6_
FN:238,_ZNSt14_Function_base13_Base_managerINSt8__detail11_AnyMatcherINSt7__cxx1112regex_traitsIcEELb1ELb1ELb0EEEE15_M_init_functorERSt9_Any_dataOS6_
FN:258,_ZNSt14_Function_base13_Base_managerINSt8__detail12_CharMatcherINSt7__cxx1112regex_traitsIcEELb1ELb1EEEE21_M_not_empty_functionIS6_EEbRKT_
FN:258,_ZNSt14_Function_base13_Base_managerINSt8__detail12_CharMatcherINSt7__cxx1112regex_traitsIcEELb0ELb0EEEE21_M_not_empty_functionIS6_EEbRKT_
FN:258,_ZNSt14_Function_base13_Base_managerINSt8__detail12_CharMatcherINSt7__cxx1112regex_traitsIcEELb0ELb1EEEE21_M_not_empty_functionIS6_EEbRKT_
FN:258,_ZNSt14_Function_base13_Base_managerINSt8__detail15_BracketMatcherINSt7__cxx1112regex_traitsIcEELb0ELb1EEEE21_M_not_empty_functionIS6_EEbRKT_
FN:258,_ZNSt14_Function_base13_Base_managerINSt8__detail11_AnyMatcherINSt7__cxx1112regex_traitsIcEELb0ELb1ELb1EEEE21_M_not_empty_functionIS6_EEbRKT_
FN:258,_ZNSt14_Function_base13_Base_managerINSt8__detail11_AnyMatcherINSt7__cxx1112regex_traitsIcEELb1ELb0ELb1EEEE21_M_not_empty_functionIS6_EEbRKT_
FN:258,_ZNSt14_Function_base13_Base_managerINSt8__detail15_BracketMatcherINSt7__cxx1112regex_traitsIcEELb1ELb1EEEE21_M_not_empty_functionIS6_EEbRKT_
FN:258,_ZNSt14_Function_base13_Base_managerINSt8__detail11_AnyMatcherINSt7__cxx1112regex_traitsIcEELb1ELb1ELb1EEEE21_M_not_empty_functionIS6_EEbRKT_
FN:258,_ZNSt14_Function_base13_Base_managerINSt8__detail11_AnyMatcherINSt7__cxx1112regex_traitsIcEELb1ELb1ELb0EEEE21_M_not_empty_functionIS6_EEbRKT_
FN:258,_ZNSt14_Function_base13_Base_managerINSt8__detail15_BracketMatcherINSt7__cxx1112regex_traitsIcEELb0ELb0EEEE21_M_not_empty_functionIS6_EEbRKT_
FN:258,_ZNSt14_Function_base13_Base_managerINSt8__detail11_AnyMatcherINSt7__cxx1112regex_traitsIcEELb0ELb1ELb0EEEE21_M_not_empty_functionIS6_EEbRKT_
FN:258,_ZNSt14_Function_base13_Base_managerINSt8__detail11_AnyMatcherINSt7__cxx1112regex_traitsIcEELb1ELb0ELb0EEEE21_M_not_empty_functionIS6_EEbRKT_
FN:258,_ZNSt14_Function_base13_Base_managerINSt8__detail11_AnyMatcherINSt7__cxx1112regex_traitsIcEELb0ELb0ELb1EEEE21_M_not_empty_functionIS6_EEbRKT_
FN:258,_ZNSt14_Function_base13_Base_managerINSt8__detail11_AnyMatcherINSt7__cxx1112regex_traitsIcEELb0ELb0ELb0EEEE21_M_not_empty_functionIS6_EEbRKT_
FN:258,_ZNSt14_Function_base13_Base_managerINSt8__detail15_BracketMatcherINSt7__cxx1112regex_traitsIcEELb1ELb0EEEE21_M_not_empty_functionIS6_EEbRKT_
FN:258,_ZNSt14_Function_base13_Base_managerINSt8__detail12_CharMatcherINSt7__cxx1112regex_traitsIcEELb1ELb0EEEE21_M_not_empty_functionIS6_EEbRKT_
FN:263,_ZNSt14_Function_base13_Base_managerINSt8__detail11_AnyMatcherINSt7__cxx1112regex_traitsIcEELb1ELb1ELb1EEEE15_M_init_functorERSt9_Any_dataOS6_St17integral_constantIbLb1EE
FN:263,_ZNSt14_Function_base13_Base_managerINSt8__detail11_AnyMatcherINSt7__cxx1112regex_traitsIcEELb0ELb0ELb0EEEE15_M_init_functorERSt9_Any_dataOS6_St17integral_constantIbLb1EE
FN:263,_ZNSt14_Function_base13_Base_managerINSt8__detail12_CharMatcherINSt7__cxx1112regex_traitsIcEELb1ELb0EEEE15_M_init_functorERSt9_Any_dataOS6_St17integral_constantIbLb1EE
FN:263,_ZNSt14_Function_base13_Base_managerINSt8__detail12_CharMatcherINSt7__cxx1112regex_traitsIcEELb1ELb1EEEE15_M_init_functorERSt9_Any_dataOS6_St17integral_constantIbLb1EE
FN:263,_ZNSt14_Function_base13_Base_managerINSt8__detail11_AnyMatcherINSt7__cxx1112regex_traitsIcEELb0ELb0ELb1EEEE15_M_init_functorERSt9_Any_dataOS6_St17integral_constantIbLb1EE
FN:263,_ZNSt14_Function_base13_Base_managerINSt8__detail12_CharMatcherINSt7__cxx1112regex_traitsIcEELb0ELb1EEEE15_M_init_functorERSt9_Any_dataOS6_St17integral_constantIbLb1EE
FN:263,_ZNSt14_Function_base13_Base_managerINSt8__detail11_AnyMatcherINSt7__cxx1112regex_traitsIcEELb1ELb0ELb1EEEE15_M_init_functorERSt9_Any_dataOS6_St17integral_constantIbLb1EE
FN:263,_ZNSt14_Function_base13_Base_managerINSt8__detail12_CharMatcherINSt7__cxx1112regex_traitsIcEELb0ELb0EEEE15_M_init_functorERSt9_Any_dataOS6_St17integral_constantIbLb1EE
FN:263,_ZNSt14_Function_base13_Base_managerINSt8__detail11_AnyMatcherINSt7__cxx1112regex_traitsIcEELb0ELb1ELb1EEEE15_M_init_functorERSt9_Any_dataOS6_St17integral_constantIbLb1EE
FN:263,_ZNSt14_Function_base13_Base_managerINSt8__detail11_AnyMatcherINSt7__cxx1112regex_traitsIcEELb1ELb0ELb0EEEE15_M_init_functorERSt9_Any_dataOS6_St17integral_constantIbLb1EE
FN:263,_ZNSt14_Function_base13_Base_managerINSt8__detail11_AnyMatcherINSt7__cxx1112regex_traitsIcEELb0ELb1ELb0EEEE15_M_init_functorERSt9_Any_dataOS6_St17integral_constantIbLb1EE
FN:263,_ZNSt14_Function_base13_Base_managerINSt8__detail11_AnyMatcherINSt7__cxx1112regex_traitsIcEELb1ELb1ELb0EEEE15_M_init_functorERSt9_Any_dataOS6_St17integral_constantIbLb1EE
FN:267,_ZNSt14_Function_base13_Base_managerINSt8__detail15_BracketMatcherINSt7__cxx1112regex_traitsIcEELb0ELb1EEEE15_M_init_functorERSt9_Any_dataOS6_St17integral_constantIbLb0EE
FN:267,_ZNSt14_Function_base13_Base_managerINSt8__detail15_BracketMatcherINSt7__cxx1112regex_traitsIcEELb0ELb0EEEE15_M_init_functorERSt9_Any_dataOS6_St17integral_constantIbLb0EE
FN:267,_ZNSt14_Function_base13_Base_managerINSt8__detail15_BracketMatcherINSt7__cxx1112regex_traitsIcEELb1ELb1EEEE15_M_init_functorERSt9_Any_dataOS6_St17integral_constantIbLb0EE
FN:267,_ZNSt14_Function_base13_Base_managerINSt8__detail15_BracketMatcherINSt7__cxx1112regex_traitsIcEELb1ELb0EEEE15_M_init_functorERSt9_Any_dataOS6_St17integral_constantIbLb0EE
FN:271,_ZNSt14_Function_baseC2Ev
FN:273,_ZNSt14_Function_baseD2Ev
FN:279,_ZNKSt14_Function_base8_M_emptyEv
FN:299,_ZNSt17_Function_handlerIFbcENSt8__detail11_AnyMatcherINSt7__cxx1112regex_traitsIcEELb0ELb1ELb1EEEE9_M_invokeERKSt9_Any_dataOc
FN:299,_ZNSt17_Function_handlerIFbcENSt8__detail12_CharMatcherINSt7__cxx1112regex_traitsIcEELb1ELb0EEEE9_M_invokeERKSt9_Any_dataOc
FN:299,_ZNSt17_Function_handlerIFbcENSt8__detail11_AnyMatcherINSt7__cxx1112regex_traitsIcEELb0ELb1ELb0EEEE9_M_invokeERKSt9_Any_dataOc
FN:299,_ZNSt17_Function_handlerIFbcENSt8__detail11_AnyMatcherINSt7__cxx1112regex_traitsIcEELb1ELb1ELb1EEEE9_M_invokeERKSt9_Any_dataOc
FN:299,_ZNSt17_Function_handlerIFbcENSt8__detail15_BracketMatcherINSt7__cxx1112regex_traitsIcEELb0ELb1EEEE9_M_invokeERKSt9_Any_dataOc
FN:299,_ZNSt17_Function_handlerIFbcENSt8__detail12_CharMatcherINSt7__cxx1112regex_traitsIcEELb1ELb1EEEE9_M_invokeERKSt9_Any_dataOc
FN:299,_ZNSt17_Function_handlerIFbcENSt8__detail11_AnyMatcherINSt7__cxx1112regex_traitsIcEELb0ELb0ELb1EEEE9_M_invokeERKSt9_Any_dataOc
FN:299,_ZNSt17_Function_handlerIFbcENSt8__detail11_AnyMatcherINSt7__cxx1112regex_traitsIcEELb1ELb1ELb0EEEE9_M_invokeERKSt9_Any_dataOc
FN:299,_ZNSt17_Function_handlerIFbcENSt8__detail11_AnyMatcherINSt7__cxx1112regex_traitsIcEELb1ELb0ELb1EEEE9_M_invokeERKSt9_Any_dataOc
FN:299,_ZNSt17_Function_handlerIFbcENSt8__detail15_BracketMatcherINSt7__cxx1112regex_traitsIcEELb1ELb1EEEE9_M_invokeERKSt9_Any_dataOc
FN:299,_ZNSt17_Function_handlerIFbcENSt8__detail12_CharMatcherINSt7__cxx1112regex_traitsIcEELb0ELb0EEEE9_M_invokeERKSt9_Any_dataOc
FN:299,_ZNSt17_Function_handlerIFbcENSt8__detail11_AnyMatcherINSt7__cxx1112regex_traitsIcEELb1ELb0ELb0EEEE9_M_invokeERKSt9_Any_dataOc
FN:299,_ZNSt17_Function_handlerIFbcENSt8__detail15_BracketMatcherINSt7__cxx1112regex_traitsIcEELb1ELb0EEEE9_M_invokeERKSt9_Any_dataOc
FN:299,_ZNSt17_Function_handlerIFbcENSt8__detail12_CharMatcherINSt7__cxx1112regex_traitsIcEELb0ELb1EEEE9_M_invokeERKSt9_Any_dataOc
FN:299,_ZNSt17_Function_handlerIFbcENSt8__detail15_BracketMatcherINSt7__cxx1112regex_traitsIcEELb0ELb0EEEE9_M_invokeERKSt9_Any_dataOc
FN:299,_ZNSt17_Function_handlerIFbcENSt8__detail11_AnyMatcherINSt7__cxx1112regex_traitsIcEELb0ELb0ELb0EEEE9_M_invokeERKSt9_Any_dataOc
FN:389,_ZNSt8functionIFbcEED2Ev
FN:414,_ZNSt8functionIFbcEEC2Ev
FN:441,_ZNSt8functionIFbcEEC2EOS1_
FN:498,_ZNSt8functionIFbcEEaSEOS1_
FN:565,_ZNSt8functionIFbcEE4swapERS1_
FN:582,_ZNKSt8functionIFbcEEcvbEv
FN:671,_ZNSt8functionIFbcEEC2ERKS1_
FN:685,_ZNSt8functionIFbcEEC2INSt8__detail12_CharMatcherINSt7__cxx1112regex_traitsIcEELb1ELb1EEEvvEET_
FN:685,_ZNSt8functionIFbcEEC2INSt8__detail11_AnyMatcherINSt7__cxx1112regex_traitsIcEELb1ELb0ELb1EEEvvEET_
FN:685,_ZNSt8functionIFbcEEC2INSt8__detail11_AnyMatcherINSt7__cxx1112regex_traitsIcEELb1ELb1ELb0EEEvvEET_
FN:685,_ZNSt8functionIFbcEEC2INSt8__detail11_AnyMatcherINSt7__cxx1112regex_traitsIcEELb1ELb1ELb1EEEvvEET_
FN:685,_ZNSt8functionIFbcEEC2INSt8__detail11_AnyMatcherINSt7__cxx1112regex_traitsIcEELb1ELb0ELb0EEEvvEET_
FN:685,_ZNSt8functionIFbcEEC2INSt8__detail11_AnyMatcherINSt7__cxx1112regex_traitsIcEELb0ELb1ELb0EEEvvEET_
FN:685,_ZNSt8functionIFbcEEC2INSt8__detail15_BracketMatcherINSt7__cxx1112regex_traitsIcEELb0ELb0EEEvvEET_
FN:685,_ZNSt8functionIFbcEEC2INSt8__detail12_CharMatcherINSt7__cxx1112regex_traitsIcEELb0ELb0EEEvvEET_
FN:685,_ZNSt8functionIFbcEEC2INSt8__detail12_CharMatcherINSt7__cxx1112regex_traitsIcEELb1ELb0EEEvvEET_
FN:685,_ZNSt8functionIFbcEEC2INSt8__detail11_AnyMatcherINSt7__cxx1112regex_traitsIcEELb0ELb1ELb1EEEvvEET_
FN:685,_ZNSt8functionIFbcEEC2INSt8__detail12_CharMatcherINSt7__cxx1112regex_traitsIcEELb0ELb1EEEvvEET_
FN:685,_ZNSt8functionIFbcEEC2INSt8__detail15_BracketMatcherINSt7__cxx1112regex_traitsIcEELb1ELb0EEEvvEET_
FN:685,_ZNSt8functionIFbcEEC2INSt8__detail15_BracketMatcherINSt7__cxx1112regex_traitsIcEELb0ELb1EEEvvEET_
FN:685,_ZNSt8functionIFbcEEC2INSt8__detail11_AnyMatcherINSt7__cxx1112regex_traitsIcEELb0ELb0ELb1EEEvvEET_
FN:685,_ZNSt8functionIFbcEEC2INSt8__detail15_BracketMatcherINSt7__cxx1112regex_traitsIcEELb1ELb1EEEvvEET_
FN:685,_ZNSt8functionIFbcEEC2INSt8__detail11_AnyMatcherINSt7__cxx1112regex_traitsIcEELb0ELb0ELb0EEEvvEET_
FN:701,_ZNKSt8functionIFbcEEclEc
FNDA:65162,_ZNSt9_Any_data9_M_accessEv
FNDA:177582,_ZNKSt9_Any_data9_M_accessEv
FNDA:0,_ZNSt9_Any_data9_M_accessINSt8__detail12_CharMatcherINSt7__cxx1112regex_traitsIcEELb1ELb1EEEEERT_v
FNDA:0,_ZNSt9_Any_data9_M_accessINSt8__detail12_CharMatcherINSt7__cxx1112regex_traitsIcEELb1ELb0EEEEERT_v
FNDA:0,_ZNSt9_Any_data9_M_accessINSt8__detail12_CharMatcherINSt7__cxx1112regex_traitsIcEELb0ELb1EEEEERT_v
FNDA:27391,_ZNSt9_Any_data9_M_accessINSt8__detail12_CharMatcherINSt7__cxx1112regex_traitsIcEELb0ELb0EEEEERT_v
FNDA:0,_ZNSt9_Any_data9_M_accessINSt8__detail11_AnyMatcherINSt7__cxx1112regex_traitsIcEELb1ELb1ELb1EEEEERT_v
FNDA:0,_ZNSt9_Any_data9_M_accessINSt8__detail11_AnyMatcherINSt7__cxx1112regex_traitsIcEELb1ELb1ELb0EEEEERT_v
FNDA:0,_ZNSt9_Any_data9_M_accessINSt8__detail11_AnyMatcherINSt7__cxx1112regex_traitsIcEELb1ELb0ELb1EEEEERT_v
FNDA:0,_ZNSt9_Any_data9_M_accessINSt8__detail11_AnyMatcherINSt7__cxx1112regex_traitsIcEELb1ELb0ELb0EEEEERT_v
FNDA:0,_ZNSt9_Any_data9_M_accessINSt8__detail11_AnyMatcherINSt7__cxx1112regex_traitsIcEELb0ELb1ELb1EEEEERT_v
FNDA:0,_ZNSt9_Any_data9_M_accessINSt8__detail11_AnyMatcherINSt7__cxx1112regex_traitsIcEELb0ELb1ELb0EEEEERT_v
FNDA:0,_ZNSt9_Any_data9_M_accessINSt8__detail11_AnyMatcherINSt7__cxx1112regex_traitsIcEELb0ELb0ELb1EEEEERT_v
FNDA:0,_ZNSt9_Any_data9_M_accessINSt8__detail11_AnyMatcherINSt7__cxx1112regex_traitsIcEELb0ELb0ELb0EEEEERT_v
FNDA:0,_ZNSt9_Any_data9_M_accessIPNSt8__detail15_BracketMatcherINSt7__cxx1112regex_traitsIcEELb1ELb1EEEEERT_v
FNDA:0,_ZNSt9_Any_data9_M_accessIPNSt8__detail15_BracketMatcherINSt7__cxx1112regex_traitsIcEELb1ELb0EEEEERT_v
FNDA:0,_ZNSt9_Any_data9_M_accessIPNSt8__detail15_BracketMatcherINSt7__cxx1112regex_traitsIcEELb0ELb1EEEEERT_v
FNDA:10380,_ZNSt9_Any_data9_M_accessIPNSt8__detail15_BracketMatcherINSt7__cxx1112regex_traitsIcEELb0ELb0EEEEERT_v
FNDA:0,_ZNSt9_Any_data9_M_accessIPNSt8__detail12_CharMatcherINSt7__cxx1112regex_traitsIcEELb1ELb1EEEEERT_v
FNDA:0,_ZNSt9_Any_data9_M_accessIPNSt8__detail12_CharMatcherINSt7__cxx1112regex_traitsIcEELb1ELb0EEEEERT_v
FNDA:0,_ZNSt9_Any_data9_M_accessIPNSt8__detail12_CharMatcherINSt7__cxx1112regex_traitsIcEELb0ELb1EEEEERT_v
FNDA:0,_ZNSt9_Any_data9_M_accessIPNSt8__detail12_CharMatcherINSt7__cxx1112regex_traitsIcEELb0ELb0EEEEERT_v
FNDA:0,_ZNSt9_Any_data9_M_accessIPNSt8__detail11_AnyMatcherINSt7__cxx1112regex_traitsIcEELb1ELb1ELb1EEEEERT_v
FNDA:0,_ZNSt9_Any_data9_M_accessIPNSt8__detail11_AnyMatcherINSt7__cxx1112regex_traitsIcEELb1ELb1ELb0EEEEERT_v
FNDA:0,_ZNSt9_Any_data9_M_accessIPNSt8__detail11_AnyMatcherINSt7__cxx1112regex_traitsIcEELb1ELb0ELb1EEEEERT_v
FNDA:0,_ZNSt9_Any_data9_M_accessIPNSt8__detail11_AnyMatcherINSt7__cxx1112regex_traitsIcEELb1ELb0ELb0EEEEERT_v
FNDA:0,_ZNSt9_Any_data9_M_accessIPNSt8__detail11_AnyMatcherINSt7__cxx1112regex_traitsIcEELb0ELb1ELb1EEEEERT_v
FNDA:0,_ZNSt9_Any_data9_M_accessIPNSt8__detail11_AnyMatcherINSt7__cxx1112regex_traitsIcEELb0ELb1ELb0EEEEERT_v
FNDA:0,_ZNSt9_Any_data9_M_accessIPNSt8__detail11_AnyMatcherINSt7__cxx1112regex_traitsIcEELb0ELb0ELb1EEEEERT_v
FNDA:0,_ZNSt9_Any_data9_M_accessIPNSt8__detail11_AnyMatcherINSt7__cxx1112regex_traitsIcEELb0ELb0ELb0EEEEERT_v
FNDA:0,_ZNSt9_Any_data9_M_accessIPKSt9type_infoEERT_v
FNDA:0,_ZNKSt9_Any_data9_M_accessIPNSt8__detail15_BracketMatcherINSt7__cxx1112regex_traitsIcEELb1ELb1EEEEERKT_v
FNDA:0,_ZNKSt9_Any_data9_M_accessIPNSt8__detail15_BracketMatcherINSt7__cxx1112regex_traitsIcEELb1ELb0EEEEERKT_v
FNDA:0,_ZNKSt9_Any_data9_M_accessIPNSt8__detail15_BracketMatcherINSt7__cxx1112regex_traitsIcEELb0ELb1EEEEERKT_v
FNDA:24665,_ZNKSt9_Any_data9_M_accessIPNSt8__detail15_BracketMatcherINSt7__cxx1112regex_traitsIcEELb0ELb0EEEEERKT_v
FNDA:0,_ZNKSt9_Any_data9_M_accessINSt8__detail12_CharMatcherINSt7__cxx1112regex_traitsIcEELb1ELb1EEEEERKT_v
FNDA:0,_ZNKSt9_Any_data9_M_accessINSt8__detail12_CharMatcherINSt7__cxx1112regex_traitsIcEELb1ELb0EEEEERKT_v
FNDA:0,_ZNKSt9_Any_data9_M_accessINSt8__detail12_CharMatcherINSt7__cxx1112regex_traitsIcEELb0ELb1EEEEERKT_v
FNDA:152917,_ZNKSt9_Any_data9_M_accessINSt8__detail12_CharMatcherINSt7__cxx1112regex_traitsIcEELb0ELb0EEEEERKT_v
FNDA:0,_ZNKSt9_Any_data9_M_accessINSt8__detail11_AnyMatcherINSt7__cxx1112regex_traitsIcEELb1ELb1ELb1EEEEERKT_v
FNDA:0,_ZNKSt9_Any_data9_M_accessINSt8__detail11_AnyMatcherINSt7__cxx1112regex_traitsIcEELb1ELb1ELb0EEEEERKT_v
FNDA:0,_ZNKSt9_Any_data9_M_accessINSt8__detail11_AnyMatcherINSt7__cxx1112regex_traitsIcEELb1ELb0ELb1EEEEERKT_v
FNDA:0,_ZNKSt9_Any_data9_M_accessINSt8__detail11_AnyMatcherINSt7__cxx1112regex_traitsIcEELb1ELb0ELb0EEEEERKT_v
FNDA:0,_ZNKSt9_Any_data9_M_accessINSt8__detail11_AnyMatcherINSt7__cxx1112regex_traitsIcEELb0ELb1ELb1EEEEERKT_v
FNDA:0,_ZNKSt9_Any_data9_M_accessINSt8__detail11_AnyMatcherINSt7__cxx1112regex_traitsIcEELb0ELb1ELb0EEEEERKT_v
FNDA:0,_ZNKSt9_Any_data9_M_accessINSt8__detail11_AnyMatcherINSt7__cxx1112regex_traitsIcEELb0ELb0ELb1EEEEERKT_v
FNDA:0,_ZNKSt9_Any_data9_M_accessINSt8__detail11_AnyMatcherINSt7__cxx1112regex_traitsIcEELb0ELb0ELb0EEEEERKT_v
FNDA:0,_ZNSt14_Function_base13_Base_managerINSt8__detail15_BracketMatcherINSt7__cxx1112regex_traitsIcEELb1ELb1EEEE14_M_get_pointerERKSt9_Any_data
FNDA:0,_ZNSt14_Function_base13_Base_managerINSt8__detail15_BracketMatcherINSt7__cxx1112regex_traitsIcEELb1ELb0EEEE14_M_get_pointerERKSt9_Any_data
FNDA:0,_ZNSt14_Function_base13_Base_managerINSt8__detail15_BracketMatcherINSt7__cxx1112regex_traitsIcEELb0ELb1EEEE14_M_get_pointerERKSt9_Any_data
FNDA:21858,_ZNSt14_Function_base13_Base_managerINSt8__detail15_BracketMatcherINSt7__cxx1112regex_traitsIcEELb0ELb0EEEE14_M_get_pointerERKSt9_Any_data
FNDA:0,_ZNSt14_Function_base13_Base_managerINSt8__detail12_CharMatcherINSt7__cxx1112regex_traitsIcEELb1ELb1EEEE14_M_get_pointerERKSt9_Any_data
FNDA:0,_ZNSt14_Function_base13_Base_managerINSt8__detail12_CharMatcherINSt7__cxx1112regex_traitsIcEELb1ELb0EEEE14_M_get_pointerERKSt9_Any_data
FNDA:0,_ZNSt14_Function_base13_Base_managerINSt8__detail12_CharMatcherINSt7__cxx1112regex_traitsIcEELb0ELb1EEEE14_M_get_pointerERKSt9_Any_data
FNDA:135784,_ZNSt14_Function_base13_Base_managerINSt8__detail12_CharMatcherINSt7__cxx1112regex_traitsIcEELb0ELb0EEEE14_M_get_pointerERKSt9_Any_data
FNDA:0,_ZNSt14_Function_base13_Base_managerINSt8__detail11_AnyMatcherINSt7__cxx1112regex_traitsIcEELb1ELb1ELb1EEEE14_M_get_pointerERKSt9_Any_data
FNDA:0,_ZNSt14_Function_base13_Base_managerINSt8__detail11_AnyMatcherINSt7__cxx1112regex_traitsIcEELb1ELb1ELb0EEEE14_M_get_pointerERKSt9_Any_data
FNDA:0,_ZNSt14_Function_base13_Base_managerINSt8__detail11_AnyMatcherINSt7__cxx1112regex_traitsIcEELb1ELb0ELb1EEEE14_M_get_pointerERKSt9_Any_data
FNDA:0,_ZNSt14_Function_base13_Base_managerINSt8__detail11_AnyMatcherINSt7__cxx1112regex_traitsIcEELb1ELb0ELb0EEEE14_M_get_pointerERKSt9_Any_data
FNDA:0,_ZNSt14_Function_base13_Base_managerINSt8__detail11_AnyMatcherINSt7__cxx1112regex_traitsIcEELb0ELb1ELb1EEEE14_M_get_pointerERKSt9_Any_data
FNDA:0,_ZNSt14_Function_base13_Base_managerINSt8__detail11_AnyMatcherINSt7__cxx1112regex_traitsIcEELb0ELb1ELb0EEEE14_M_get_pointerERKSt9_Any_data
FNDA:0,_ZNSt14_Function_base13_Base_managerINSt8__detail11_AnyMatcherINSt7__cxx1112regex_traitsIcEELb0ELb0ELb1EEEE14_M_get_pointerERKSt9_Any_data
FNDA:0,_ZNSt14_Function_base13_Base_managerINSt8__detail11_AnyMatcherINSt7__cxx1112regex_traitsIcEELb0ELb0ELb0EEEE14_M_get_pointerERKSt9_Any_data
FNDA:0,_ZNSt14_Function_base13_Base_managerINSt8__detail12_CharMatcherINSt7__cxx1112regex_traitsIcEELb1ELb1EEEE8_M_cloneERSt9_Any_dataRKS8_St17integral_constantIbLb1EE
FNDA:0,_ZNSt14_Function_base13_Base_managerINSt8__detail12_CharMatcherINSt7__cxx1112regex_traitsIcEELb1ELb0EEEE8_M_cloneERSt9_Any_dataRKS8_St17integral_constantIbLb1EE
FNDA:0,_ZNSt14_Function_base13_Base_managerINSt8__detail12_CharMatcherINSt7__cxx1112regex_traitsIcEELb0ELb1EEEE8_M_cloneERSt9_Any_dataRKS8_St17integral_constantIbLb1EE
FNDA:17133,_ZNSt14_Function_base13_Base_managerINSt8__detail12_CharMatcherINSt7__cxx1112regex_traitsIcEELb0ELb0EEEE8_M_cloneERSt9_Any_dataRKS8_St17integral_constantIbLb1EE
FNDA:0,_ZNSt14_Function_base13_Base_managerINSt8__detail11_AnyMatcherINSt7__cxx1112regex_traitsIcEELb1ELb1ELb1EEEE8_M_cloneERSt9_Any_dataRKS8_St17integral_constantIbLb1EE
FNDA:0,_ZNSt14_Function_base13_Base_managerINSt8__detail11_AnyMatcherINSt7__cxx1112regex_traitsIcEELb1ELb1ELb0EEEE8_M_cloneERSt9_Any_dataRKS8_St17integral_constantIbLb1EE
FNDA:0,_ZNSt14_Function_base13_Base_managerINSt8__detail11_AnyMatcherINSt7__cxx1112regex_traitsIcEELb1ELb0ELb1EEEE8_M_cloneERSt9_Any_dataRKS8_St17integral_constantIbLb1EE
FNDA:0,_ZNSt14_Function_base13_Base_managerINSt8__detail11_AnyMatcherINSt7__cxx1112regex_traitsIcEELb1ELb0ELb0EEEE8_M_cloneERSt9_Any_dataRKS8_St17integral_constantIbLb1EE
FNDA:0,_ZNSt14_Function_base13_Base_managerINSt8__detail11_AnyMatcherINSt7__cxx1112regex_traitsIcEELb0ELb1ELb1EEEE8_M_cloneERSt9_Any_dataRKS8_St17integral_constantIbLb1EE
FNDA:0,_ZNSt14_Function_base13_Base_managerINSt8__detail11_AnyMatcherINSt7__cxx1112regex_traitsIcEELb0ELb1ELb0EEEE8_M_cloneERSt9_Any_dataRKS8_St17integral_constantIbLb1EE
FNDA:0,_ZNSt14_Function_base13_Base_managerINSt8__detail11_AnyMatcherINSt7__cxx1112regex_traitsIcEELb0ELb0ELb1EEEE8_M_cloneERSt9_Any_dataRKS8_St17integral_constantIbLb1EE
FNDA:0,_ZNSt14_Function_base13_Base_managerINSt8__detail11_AnyMatcherINSt7__cxx1112regex_traitsIcEELb0ELb0ELb0EEEE8_M_cloneERSt9_Any_dataRKS8_St17integral_constantIbLb1EE
FNDA:0,_ZNSt14_Function_base13_Base_managerINSt8__detail15_BracketMatcherINSt7__cxx1112regex_traitsIcEELb1ELb1EEEE8_M_cloneERSt9_Any_dataRKS8_St17integral_constantIbLb0EE
FNDA:0,_ZNSt14_Function_base13_Base_managerINSt8__detail15_BracketMatcherINSt7__cxx1112regex_traitsIcEELb1ELb0EEEE8_M_cloneERSt9_Any_dataRKS8_St17integral_constantIbLb0EE
FNDA:0,_ZNSt14_Function_base13_Base_managerINSt8__detail15_BracketMatcherINSt7__cxx1112regex_traitsIcEELb0ELb1EEEE8_M_cloneERSt9_Any_dataRKS8_St17integral_constantIbLb0EE
FNDA:2807,_ZNSt14_Function_base13_Base_managerINSt8__detail15_BracketMatcherINSt7__cxx1112regex_traitsIcEELb0ELb0EEEE8_M_cloneERSt9_Any_dataRKS8_St17integral_constantIbLb0EE
FNDA:0,_ZNSt14_Function_base13_Base_managerINSt8__detail12_CharMatcherINSt7__cxx1112regex_traitsIcEELb1ELb1EEEE10_M_destroyERSt9_Any_dataSt17integral_constantIbLb1EE
FNDA:0,_ZNSt14_Function_base13_Base_managerINSt8__detail12_CharMatcherINSt7__cxx1112regex_traitsIcEELb1ELb0EEEE10_M_destroyERSt9_Any_dataSt17integral_constantIbLb1EE
FNDA:0,_ZNSt14_Function_base13_Base_managerINSt8__detail12_CharMatcherINSt7__cxx1112regex_traitsIcEELb0ELb1EEEE10_M_destroyERSt9_Any_dataSt17integral_constantIbLb1EE
FNDA:27391,_ZNSt14_Function_base13_Base_managerINSt8__detail12_CharMatcherINSt7__cxx1112regex_traitsIcEELb0ELb0EEEE10_M_destroyERSt9_Any_dataSt17integral_constantIbLb1EE
FNDA:0,_ZNSt14_Function_base13_Base_managerINSt8__detail11_AnyMatcherINSt7__cxx1112regex_traitsIcEELb1ELb1ELb1EEEE10_M_destroyERSt9_Any_dataSt17integral_constantIbLb1EE
FNDA:0,_ZNSt14_Function_base13_Base_managerINSt8__detail11_AnyMatcherINSt7__cxx1112regex_traitsIcEELb1ELb1ELb0EEEE10_M_destroyERSt9_Any_dataSt17integral_constantIbLb1EE
FNDA:0,_ZNSt14_Function_base13_Base_managerINSt8__detail11_AnyMatcherINSt7__cxx1112regex_traitsIcEELb1ELb0ELb1EEEE10_M_destroyERSt9_Any_dataSt17integral_constantIbLb1EE
FNDA:0,_ZNSt14_Function_base13_Base_managerINSt8__detail11_AnyMatcherINSt7__cxx1112regex_traitsIcEELb1ELb0ELb0EEEE10_M_destroyERSt9_Any_dataSt17integral_constantIbLb1EE
FNDA:0,_ZNSt14_Function_base13_Base_managerINSt8__detail11_AnyMatcherINSt7__cxx1112regex_traitsIcEELb0ELb1ELb1EEEE10_M_destroyERSt9_Any_dataSt17integral_constantIbLb1EE
FNDA:0,_ZNSt14_Function_base13_Base_managerINSt8__detail11_AnyMatcherINSt7__cxx1112regex_traitsIcEELb0ELb1ELb0EEEE10_M_destroyERSt9_Any_dataSt17integral_constantIbLb1EE
FNDA:0,_ZNSt14_Function_base13_Base_managerINSt8__detail11_AnyMatcherINSt7__cxx1112regex_traitsIcEELb0ELb0ELb1EEEE10_M_destroyERSt9_Any_dataSt17integral_constantIbLb1EE
FNDA:0,_ZNSt14_Function_base13_Base_managerINSt8__detail11_AnyMatcherINSt7__cxx1112regex_traitsIcEELb0ELb0ELb0EEEE10_M_destroyERSt9_Any_dataSt17integral_constantIbLb1EE
FNDA:0,_ZNSt14_Function_base13_Base_managerINSt8__detail15_BracketMatcherINSt7__cxx1112regex_traitsIcEELb1ELb1EEEE10_M_destroyERSt9_Any_dataSt17integral_constantIbLb0EE
FNDA:0,_ZNSt14_Function_base13_Base_managerINSt8__detail15_BracketMatcherINSt7__cxx1112regex_traitsIcEELb1ELb0EEEE10_M_destroyERSt9_Any_dataSt17integral_constantIbLb0EE
FNDA:0,_ZNSt14_Function_base13_Base_managerINSt8__detail15_BracketMatcherINSt7__cxx1112regex_traitsIcEELb0ELb1EEEE10_M_destroyERSt9_Any_dataSt17integral_constantIbLb0EE
FNDA:5190,_ZNSt14_Function_base13_Base_managerINSt8__detail15_BracketMatcherINSt7__cxx1112regex_traitsIcEELb0ELb0EEEE10_M_destroyERSt9_Any_dataSt17integral_constantIbLb0EE
FNDA:0,_ZNSt14_Function_base13_Base_managerINSt8__detail15_BracketMatcherINSt7__cxx1112regex_traitsIcEELb1ELb1EEEE10_M_managerERSt9_Any_dataRKS8_St18_Manager_operation
FNDA:0,_ZNSt14_Function_base13_Base_managerINSt8__detail15_BracketMatcherINSt7__cxx1112regex_traitsIcEELb1ELb0EEEE10_M_managerERSt9_Any_dataRKS8_St18_Manager_operation
FNDA:0,_ZNSt14_Function_base13_Base_managerINSt8__detail15_BracketMatcherINSt7__cxx1112regex_traitsIcEELb0ELb1EEEE10_M_managerERSt9_Any_dataRKS8_St18_Manager_operation
FNDA:7997,_ZNSt14_Function_base13_Base_managerINSt8__detail15_BracketMatcherINSt7__cxx1112regex_traitsIcEELb0ELb0EEEE10_M_managerERSt9_Any_dataRKS8_St18_Manager_operation
FNDA:0,_ZNSt14_Function_base13_Base_managerINSt8__detail12_CharMatcherINSt7__cxx1112regex_traitsIcEELb1ELb1EEEE10_M_managerERSt9_Any_dataRKS8_St18_Manager_operation
FNDA:0,_ZNSt14_Function_base13_Base_managerINSt8__detail12_CharMatcherINSt7__cxx1112regex_traitsIcEELb1ELb0EEEE10_M_managerERSt9_Any_dataRKS8_St18_Manager_operation
FNDA:0,_ZNSt14_Function_base13_Base_managerINSt8__detail12_CharMatcherINSt7__cxx1112regex_traitsIcEELb0ELb1EEEE10_M_managerERSt9_Any_dataRKS8_St18_Manager_operation
FNDA:44524,_ZNSt14_Function_base13_Base_managerINSt8__detail12_CharMatcherINSt7__cxx1112regex_traitsIcEELb0ELb0EEEE10_M_managerERSt9_Any_dataRKS8_St18_Manager_operation
FNDA:0,_ZNSt14_Function_base13_Base_managerINSt8__detail11_AnyMatcherINSt7__cxx1112regex_traitsIcEELb1ELb1ELb1EEEE10_M_managerERSt9_Any_dataRKS8_St18_Manager_operation
FNDA:0,_ZNSt14_Function_base13_Base_managerINSt8__detail11_AnyMatcherINSt7__cxx1112regex_traitsIcEELb1ELb1ELb0EEEE10_M_managerERSt9_Any_dataRKS8_St18_Manager_operation
FNDA:0,_ZNSt14_Function_base13_Base_managerINSt8__detail11_AnyMatcherINSt7__cxx1112regex_traitsIcEELb1ELb0ELb1EEEE10_M_managerERSt9_Any_dataRKS8_St18_Manager_operation
FNDA:0,_ZNSt14_Function_base13_Base_managerINSt8__detail11_AnyMatcherINSt7__cxx1112regex_traitsIcEELb1ELb0ELb0EEEE10_M_managerERSt9_Any_dataRKS8_St18_Manager_operation
FNDA:0,_ZNSt14_Function_base13_Base_managerINSt8__detail11_AnyMatcherINSt7__cxx1112regex_traitsIcEELb0ELb1ELb1EEEE10_M_managerERSt9_Any_dataRKS8_St18_Manager_operation
FNDA:0,_ZNSt14_Function_base13_Base_managerINSt8__detail11_AnyMatcherINSt7__cxx1112regex_traitsIcEELb0ELb1ELb0EEEE10_M_managerERSt9_Any_dataRKS8_St18_Manager_operation
FNDA:0,_ZNSt14_Function_base13_Base_managerINSt8__detail11_AnyMatcherINSt7__cxx1112regex_traitsIcEELb0ELb0ELb1EEEE10_M_managerERSt9_Any_dataRKS8_St18_Manager_operation
FNDA:0,_ZNSt14_Function_base13_Base_managerINSt8__detail11_AnyMatcherINSt7__cxx1112regex_traitsIcEELb0ELb0ELb0EEEE10_M_managerERSt9_Any_dataRKS8_St18_Manager_operation
FNDA:0,_ZNSt14_Function_base13_Base_managerINSt8__detail15_BracketMatcherINSt7__cxx1112regex_traitsIcEELb1ELb1EEEE15_M_init_functorERSt9_Any_dataOS6_
FNDA:0,_ZNSt14_Function_base13_Base_managerINSt8__detail15_BracketMatcherINSt7__cxx1112regex_traitsIcEELb1ELb0EEEE15_M_init_functorERSt9_Any_dataOS6_
FNDA:0,_ZNSt14_Function_base13_Base_managerINSt8__detail15_BracketMatcherINSt7__cxx1112regex_traitsIcEELb0ELb1EEEE15_M_init_functorERSt9_Any_dataOS6_
FNDA:2383,_ZNSt14_Function_base13_Base_managerINSt8__detail15_BracketMatcherINSt7__cxx1112regex_traitsIcEELb0ELb0EEEE15_M_init_functorERSt9_Any_dataOS6_
FNDA:0,_ZNSt14_Function_base13_Base_managerINSt8__detail12_CharMatcherINSt7__cxx1112regex_traitsIcEELb1ELb1EEEE15_M_init_functorERSt9_Any_dataOS6_
FNDA:0,_ZNSt14_Function_base13_Base_managerINSt8__detail12_CharMatcherINSt7__cxx1112regex_traitsIcEELb1ELb0EEEE15_M_init_functorERSt9_Any_dataOS6_
FNDA:0,_ZNSt14_Function_base13_Base_managerINSt8__detail12_CharMatcherINSt7__cxx1112regex_traitsIcEELb0ELb1EEEE15_M_init_functorERSt9_Any_dataOS6_
FNDA:10258,_ZNSt14_Function_base13_Base_managerINSt8__detail12_CharMatcherINSt7__cxx1112regex_traitsIcEELb0ELb0EEEE15_M_init_functorERSt9_Any_dataOS6_
FNDA:0,_ZNSt14_Function_base13_Base_managerINSt8__detail11_AnyMatcherINSt7__cxx1112regex_traitsIcEELb1ELb1ELb1EEEE15_M_init_functorERSt9_Any_dataOS6_
FNDA:0,_ZNSt14_Function_base13_Base_managerINSt8__detail11_AnyMatcherINSt7__cxx1112regex_traitsIcEELb1ELb1ELb0EEEE15_M_init_functorERSt9_Any_dataOS6_
FNDA:0,_ZNSt14_Function_base13_Base_managerINSt8__detail11_AnyMatcherINSt7__cxx1112regex_traitsIcEELb1ELb0ELb1EEEE15_M_init_functorERSt9_Any_dataOS6_
FNDA:0,_ZNSt14_Function_base13_Base_managerINSt8__detail11_AnyMatcherINSt7__cxx1112regex_traitsIcEELb1ELb0ELb0EEEE15_M_init_functorERSt9_Any_dataOS6_
FNDA:0,_ZNSt14_Function_base13_Base_managerINSt8__detail11_AnyMatcherINSt7__cxx1112regex_traitsIcEELb0ELb1ELb1EEEE15_M_init_functorERSt9_Any_dataOS6_
FNDA:0,_ZNSt14_Function_base13_Base_managerINSt8__detail11_AnyMatcherINSt7__cxx1112regex_traitsIcEELb0ELb1ELb0EEEE15_M_init_functorERSt9_Any_dataOS6_
FNDA:0,_ZNSt14_Function_base13_Base_managerINSt8__detail11_AnyMatcherINSt7__cxx1112regex_traitsIcEELb0ELb0ELb1EEEE15_M_init_functorERSt9_Any_dataOS6_
FNDA:0,_ZNSt14_Function_base13_Base_managerINSt8__detail11_AnyMatcherINSt7__cxx1112regex_traitsIcEELb0ELb0ELb0EEEE15_M_init_functorERSt9_Any_dataOS6_
FNDA:0,_ZNSt14_Function_base13_Base_managerINSt8__detail15_BracketMatcherINSt7__cxx1112regex_traitsIcEELb1ELb1EEEE21_M_not_empty_functionIS6_EEbRKT_
FNDA:0,_ZNSt14_Function_base13_Base_managerINSt8__detail15_BracketMatcherINSt7__cxx1112regex_traitsIcEELb1ELb0EEEE21_M_not_empty_functionIS6_EEbRKT_
FNDA:0,_ZNSt14_Function_base13_Base_managerINSt8__detail15_BracketMatcherINSt7__cxx1112regex_traitsIcEELb0ELb1EEEE21_M_not_empty_functionIS6_EEbRKT_
FNDA:2383,_ZNSt14_Function_base13_Base_managerINSt8__detail15_BracketMatcherINSt7__cxx1112regex_traitsIcEELb0ELb0EEEE21_M_not_empty_functionIS6_EEbRKT_
FNDA:0,_ZNSt14_Function_base13_Base_managerINSt8__detail12_CharMatcherINSt7__cxx1112regex_traitsIcEELb1ELb1EEEE21_M_not_empty_functionIS6_EEbRKT_
FNDA:0,_ZNSt14_Function_base13_Base_managerINSt8__detail12_CharMatcherINSt7__cxx1112regex_traitsIcEELb1ELb0EEEE21_M_not_empty_functionIS6_EEbRKT_
FNDA:0,_ZNSt14_Function_base13_Base_managerINSt8__detail12_CharMatcherINSt7__cxx1112regex_traitsIcEELb0ELb1EEEE21_M_not_empty_functionIS6_EEbRKT_
FNDA:10258,_ZNSt14_Function_base13_Base_managerINSt8__detail12_CharMatcherINSt7__cxx1112regex_traitsIcEELb0ELb0EEEE21_M_not_empty_functionIS6_EEbRKT_
FNDA:0,_ZNSt14_Function_base13_Base_managerINSt8__detail11_AnyMatcherINSt7__cxx1112regex_traitsIcEELb1ELb1ELb1EEEE21_M_not_empty_functionIS6_EEbRKT_
FNDA:0,_ZNSt14_Function_base13_Base_managerINSt8__detail11_AnyMatcherINSt7__cxx1112regex_traitsIcEELb1ELb1ELb0EEEE21_M_not_empty_functionIS6_EEbRKT_
FNDA:0,_ZNSt14_Function_base13_Base_managerINSt8__detail11_AnyMatcherINSt7__cxx1112regex_traitsIcEELb1ELb0ELb1EEEE21_M_not_empty_functionIS6_EEbRKT_
FNDA:0,_ZNSt14_Function_base13_Base_managerINSt8__detail11_AnyMatcherINSt7__cxx1112regex_traitsIcEELb1ELb0ELb0EEEE21_M_not_empty_functionIS6_EEbRKT_
FNDA:0,_ZNSt14_Function_base13_Base_managerINSt8__detail11_AnyMatcherINSt7__cxx1112regex_traitsIcEELb0ELb1ELb1EEEE21_M_not_empty_functionIS6_EEbRKT_
FNDA:0,_ZNSt14_Function_base13_Base_managerINSt8__detail11_AnyMatcherINSt7__cxx1112regex_traitsIcEELb0ELb1ELb0EEEE21_M_not_empty_functionIS6_EEbRKT_
FNDA:0,_ZNSt14_Function_base13_Base_managerINSt8__detail11_AnyMatcherINSt7__cxx1112regex_traitsIcEELb0ELb0ELb1EEEE21_M_not_empty_functionIS6_EEbRKT_
FNDA:0,_ZNSt14_Function_base13_Base_managerINSt8__detail11_AnyMatcherINSt7__cxx1112regex_traitsIcEELb0ELb0ELb0EEEE21_M_not_empty_functionIS6_EEbRKT_
FNDA:0,_ZNSt14_Function_base13_Base_managerINSt8__detail12_CharMatcherINSt7__cxx1112regex_traitsIcEELb1ELb1EEEE15_M_init_functorERSt9_Any_dataOS6_St17integral_constantIbLb1EE
FNDA:0,_ZNSt14_Function_base13_Base_managerINSt8__detail12_CharMatcherINSt7__cxx1112regex_traitsIcEELb1ELb0EEEE15_M_init_functorERSt9_Any_dataOS6_St17integral_constantIbLb1EE
FNDA:0,_ZNSt14_Function_base13_Base_managerINSt8__detail12_CharMatcherINSt7__cxx1112regex_traitsIcEELb0ELb1EEEE15_M_init_functorERSt9_Any_dataOS6_St17integral_constantIbLb1EE
FNDA:10258,_ZNSt14_Function_base13_Base_managerINSt8__detail12_CharMatcherINSt7__cxx1112regex_traitsIcEELb0ELb0EEEE15_M_init_functorERSt9_Any_dataOS6_St17integral_constantIbLb1EE
FNDA:0,_ZNSt14_Function_base13_Base_managerINSt8__detail11_AnyMatcherINSt7__cxx1112regex_traitsIcEELb1ELb1ELb1EEEE15_M_init_functorERSt9_Any_dataOS6_St17integral_constantIbLb1EE
FNDA:0,_ZNSt14_Function_base13_Base_managerINSt8__detail11_AnyMatcherINSt7__cxx1112regex_traitsIcEELb1ELb1ELb0EEEE15_M_init_functorERSt9_Any_dataOS6_St17integral_constantIbLb1EE
FNDA:0,_ZNSt14_Function_base13_Base_managerINSt8__detail11_AnyMatcherINSt7__cxx1112regex_traitsIcEELb1ELb0ELb1EEEE15_M_init_functorERSt9_Any_dataOS6_St17integral_constantIbLb1EE
FNDA:0,_ZNSt14_Function_base13_Base_managerINSt8__detail11_AnyMatcherINSt7__cxx1112regex_traitsIcEELb1ELb0ELb0EEEE15_M_init_functorERSt9_Any_dataOS6_St17integral_constantIbLb1EE
FNDA:0,_ZNSt14_Function_base13_Base_managerINSt8__detail11_AnyMatcherINSt7__cxx1112regex_traitsIcEELb0ELb1ELb1EEEE15_M_init_functorERSt9_Any_dataOS6_St17integral_constantIbLb1EE
FNDA:0,_ZNSt14_Function_base13_Base_managerINSt8__detail11_AnyMatcherINSt7__cxx1112regex_traitsIcEELb0ELb1ELb0EEEE15_M_init_functorERSt9_Any_dataOS6_St17integral_constantIbLb1EE
FNDA:0,_ZNSt14_Function_base13_Base_managerINSt8__detail11_AnyMatcherINSt7__cxx1112regex_traitsIcEELb0ELb0ELb1EEEE15_M_init_functorERSt9_Any_dataOS6_St17integral_constantIbLb1EE
FNDA:0,_ZNSt14_Function_base13_Base_managerINSt8__detail11_AnyMatcherINSt7__cxx1112regex_traitsIcEELb0ELb0ELb0EEEE15_M_init_functorERSt9_Any_dataOS6_St17integral_constantIbLb1EE
FNDA:0,_ZNSt14_Function_base13_Base_managerINSt8__detail15_BracketMatcherINSt7__cxx1112regex_traitsIcEELb1ELb1EEEE15_M_init_functorERSt9_Any_dataOS6_St17integral_constantIbLb0EE
FNDA:0,_ZNSt14_Function_base13_Base_managerINSt8__detail15_BracketMatcherINSt7__cxx1112regex_traitsIcEELb1ELb0EEEE15_M_init_functorERSt9_Any_dataOS6_St17integral_constantIbLb0EE
FNDA:0,_ZNSt14_Function_base13_Base_managerINSt8__detail15_BracketMatcherINSt7__cxx1112regex_traitsIcEELb0ELb1EEEE15_M_init_functorERSt9_Any_dataOS6_St17integral_constantIbLb0EE
FNDA:2383,_ZNSt14_Function_base13_Base_managerINSt8__detail15_BracketMatcherINSt7__cxx1112regex_traitsIcEELb0ELb0EEEE15_M_init_functorERSt9_Any_dataOS6_St17integral_constantIbLb0EE
FNDA:83425,_ZNSt14_Function_baseC2Ev
FNDA:83425,_ZNSt14_Function_baseD2Ev
FNDA:177582,_ZNKSt14_Function_base8_M_emptyEv
FNDA:0,_ZNSt17_Function_handlerIFbcENSt8__detail15_BracketMatcherINSt7__cxx1112regex_traitsIcEELb1ELb1EEEE9_M_invokeERKSt9_Any_dataOc
FNDA:0,_ZNSt17_Function_handlerIFbcENSt8__detail15_BracketMatcherINSt7__cxx1112regex_traitsIcEELb1ELb0EEEE9_M_invokeERKSt9_Any_dataOc
FNDA:0,_ZNSt17_Function_handlerIFbcENSt8__detail15_BracketMatcherINSt7__cxx1112regex_traitsIcEELb0ELb1EEEE9_M_invokeERKSt9_Any_dataOc
FNDA:21858,_ZNSt17_Function_handlerIFbcENSt8__detail15_BracketMatcherINSt7__cxx1112regex_traitsIcEELb0ELb0EEEE9_M_invokeERKSt9_Any_dataOc
FNDA:0,_ZNSt17_Function_handlerIFbcENSt8__detail12_CharMatcherINSt7__cxx1112regex_traitsIcEELb1ELb1EEEE9_M_invokeERKSt9_Any_dataOc
FNDA:0,_ZNSt17_Function_handlerIFbcENSt8__detail12_CharMatcherINSt7__cxx1112regex_traitsIcEELb1ELb0EEEE9_M_invokeERKSt9_Any_dataOc
FNDA:0,_ZNSt17_Function_handlerIFbcENSt8__detail12_CharMatcherINSt7__cxx1112regex_traitsIcEELb0ELb1EEEE9_M_invokeERKSt9_Any_dataOc
FNDA:135784,_ZNSt17_Function_handlerIFbcENSt8__detail12_CharMatcherINSt7__cxx1112regex_traitsIcEELb0ELb0EEEE9_M_invokeERKSt9_Any_dataOc
FNDA:0,_ZNSt17_Function_handlerIFbcENSt8__detail11_AnyMatcherINSt7__cxx1112regex_traitsIcEELb1ELb1ELb1EEEE9_M_invokeERKSt9_Any_dataOc
FNDA:0,_ZNSt17_Function_handlerIFbcENSt8__detail11_AnyMatcherINSt7__cxx1112regex_traitsIcEELb1ELb1ELb0EEEE9_M_invokeERKSt9_Any_dataOc
FNDA:0,_ZNSt17_Function_handlerIFbcENSt8__detail11_AnyMatcherINSt7__cxx1112regex_traitsIcEELb1ELb0ELb1EEEE9_M_invokeERKSt9_Any_dataOc
FNDA:0,_ZNSt17_Function_handlerIFbcENSt8__detail11_AnyMatcherINSt7__cxx1112regex_traitsIcEELb1ELb0ELb0EEEE9_M_invokeERKSt9_Any_dataOc
FNDA:0,_ZNSt17_Function_handlerIFbcENSt8__detail11_AnyMatcherINSt7__cxx1112regex_traitsIcEELb0ELb1ELb1EEEE9_M_invokeERKSt9_Any_dataOc
FNDA:0,_ZNSt17_Function_handlerIFbcENSt8__detail11_AnyMatcherINSt7__cxx1112regex_traitsIcEELb0ELb1ELb0EEEE9_M_invokeERKSt9_Any_dataOc
FNDA:0,_ZNSt17_Function_handlerIFbcENSt8__detail11_AnyMatcherINSt7__cxx1112regex_traitsIcEELb0ELb0ELb1EEEE9_M_invokeERKSt9_Any_dataOc
FNDA:0,_ZNSt17_Function_handlerIFbcENSt8__detail11_AnyMatcherINSt7__cxx1112regex_traitsIcEELb0ELb0ELb0EEEE9_M_invokeERKSt9_Any_dataOc
FNDA:83425,_ZNSt8functionIFbcEED2Ev
FNDA:12641,_ZNSt8functionIFbcEEC2Ev
FNDA:38203,_ZNSt8functionIFbcEEC2EOS1_
FNDA:12641,_ZNSt8functionIFbcEEaSEOS1_
FNDA:50844,_ZNSt8functionIFbcEE4swapERS1_
FNDA:19940,_ZNKSt8functionIFbcEEcvbEv
FNDA:19940,_ZNSt8functionIFbcEEC2ERKS1_
FNDA:0,_ZNSt8functionIFbcEEC2INSt8__detail15_BracketMatcherINSt7__cxx1112regex_traitsIcEELb1ELb1EEEvvEET_
FNDA:0,_ZNSt8functionIFbcEEC2INSt8__detail15_BracketMatcherINSt7__cxx1112regex_traitsIcEELb1ELb0EEEvvEET_
FNDA:0,_ZNSt8functionIFbcEEC2INSt8__detail15_BracketMatcherINSt7__cxx1112regex_traitsIcEELb0ELb1EEEvvEET_
FNDA:2383,_ZNSt8functionIFbcEEC2INSt8__detail15_BracketMatcherINSt7__cxx1112regex_traitsIcEELb0ELb0EEEvvEET_
FNDA:0,_ZNSt8functionIFbcEEC2INSt8__detail12_CharMatcherINSt7__cxx1112regex_traitsIcEELb1ELb1EEEvvEET_
FNDA:0,_ZNSt8functionIFbcEEC2INSt8__detail12_CharMatcherINSt7__cxx1112regex_traitsIcEELb1ELb0EEEvvEET_
FNDA:0,_ZNSt8functionIFbcEEC2INSt8__detail12_CharMatcherINSt7__cxx1112regex_traitsIcEELb0ELb1EEEvvEET_
FNDA:10258,_ZNSt8functionIFbcEEC2INSt8__detail12_CharMatcherINSt7__cxx1112regex_traitsIcEELb0ELb0EEEvvEET_
FNDA:0,_ZNSt8functionIFbcEEC2INSt8__detail11_AnyMatcherINSt7__cxx1112regex_traitsIcEELb1ELb1ELb1EEEvvEET_
FNDA:0,_ZNSt8functionIFbcEEC2INSt8__detail11_AnyMatcherINSt7__cxx1112regex_traitsIcEELb1ELb1ELb0EEEvvEET_
FNDA:0,_ZNSt8functionIFbcEEC2INSt8__detail11_AnyMatcherINSt7__cxx1112regex_traitsIcEELb1ELb0ELb1EEEvvEET_
FNDA:0,_ZNSt8functionIFbcEEC2INSt8__detail11_AnyMatcherINSt7__cxx1112regex_traitsIcEELb1ELb0ELb0EEEvvEET_
FNDA:0,_ZNSt8functionIFbcEEC2INSt8__detail11_AnyMatcherINSt7__cxx1112regex_traitsIcEELb0ELb1ELb1EEEvvEET_
FNDA:0,_ZNSt8functionIFbcEEC2INSt8__detail11_AnyMatcherINSt7__cxx1112regex_traitsIcEELb0ELb1ELb0EEEvvEET_
FNDA:0,_ZNSt8functionIFbcEEC2INSt8__detail11_AnyMatcherINSt7__cxx1112regex_traitsIcEELb0ELb0ELb1EEEvvEET_
FNDA:0,_ZNSt8functionIFbcEEC2INSt8__detail11_AnyMatcherINSt7__cxx1112regex_traitsIcEELb0ELb0ELb0EEEvvEET_
FNDA:157642,_ZNKSt8functionIFbcEEclEc
FNF:202
FNH:35
DA:106,65162
DA:107,177582
DA:111,37771
DA:112,37771
DA:116,177582
DA:117,177582
DA:170,157642
DA:172,157642
DA:173,157642
DA:175,157642
DA:181,17133
DA:183,17133
DA:184,17133
DA:189,2807
DA:191,5614
DA:192,5614
DA:193,2807
DA:198,27391
DA:200,27391
DA:201,27391
DA:205,5190
DA:207,5190
DA:208,5190
DA:212,52521
DA:215,52521
DA:218,0
DA:219,0
DA:220,0
DA:222,0
DA:223,0
DA:224,0
DA:226,19940
DA:227,19940
DA:228,19940
DA:230,32581
DA:231,32581
DA:232,32581
DA:234,52521
DA:238,12641
DA:239,12641
DA:258,12641
DA:259,12641
DA:263,10258
DA:264,10258
DA:267,2383
DA:268,2383
DA:271,83425
DA:273,83425
DA:274,83425
DA:275,83425
DA:276,32581
DA:277,83425
DA:279,177582
DA:299,157642
DA:301,315284
DA:302,315284
DA:389,83425
DA:414,12641
DA:415,12641
DA:441,38203
DA:443,38203
DA:444,38203
DA:498,12641
DA:500,12641
DA:501,12641
DA:565,50844
DA:567,50844
DA:568,50844
DA:569,50844
DA:570,50844
DA:582,19940
DA:583,19940
DA:671,19940
DA:673,19940
DA:675,19940
DA:677,19940
DA:678,19940
DA:679,19940
DA:681,19940
DA:685,12641
DA:687,12641
DA:691,12641
DA:693,12641
DA:694,12641
DA:695,12641
DA:697,12641
DA:701,157642
DA:704,157642
DA:705,0
DA:706,157642
LF:90
LH:83
end_of_record
SF:/usr/include/c++/7/bits/stl_algo.h
FN:78,_ZSt22__move_median_to_firstIN9__gnu_cxx17__normal_iteratorIPcSt6vectorIcSaIcEEEENS0_5__ops15_Iter_less_iterEEvT_S9_S9_S9_T0_
FN:112,_ZSt9__find_ifIN9__gnu_cxx17__normal_iteratorIPKNSt7__cxx1112basic_stringIcSt11char_traitsIcESaIcEEESt6vectorIS7_SaIS7_EEEENS0_5__ops16_Iter_equals_valIS8_EEET_SH_SH_T0_St26random_access_iterator_tag
FN:159,_ZSt9__find_ifIN9__gnu_cxx17__normal_iteratorIPKNSt7__cxx1112basic_stringIcSt11char_traitsIcESaIcEEESt6vectorIS7_SaIS7_EEEENS0_5__ops16_Iter_equals_valIS8_EEET_SH_SH_T0_
FN:945,_ZSt15__adjacent_findIN9__gnu_cxx17__normal_iteratorIPcSt6vectorIcSaIcEEEENS0_5__ops19_Iter_equal_to_iterEET_S9_S9_T0_
FN:962,_ZSt8__uniqueIN9__gnu_cxx17__normal_iteratorIPcSt6vectorIcSaIcEEEENS0_5__ops19_Iter_equal_to_iterEET_S9_S9_T0_
FN:995,_ZSt6uniqueIN9__gnu_cxx17__normal_iteratorIPcSt6vectorIcSaIcEEEEET_S7_S7_
FN:1668,_ZSt13__heap_selectIN9__gnu_cxx17__normal_iteratorIPcSt6vectorIcSaIcEEEENS0_5__ops15_Iter_less_iterEEvT_S9_S9_T0_
FN:1821,_ZSt25__unguarded_linear_insertIN9__gnu_cxx17__normal_iteratorIPcSt6vectorIcSaIcEEEENS0_5__ops14_Val_less_iterEEvT_T0_
FN:1840,_ZSt16__insertion_sortIN9__gnu_cxx17__normal_iteratorIPcSt6vectorIcSaIcEEEENS0_5__ops15_Iter_less_iterEEvT_S9_T0_
FN:1863,_ZSt26__unguarded_insertion_sortIN9__gnu_cxx17__normal_iteratorIPcSt6vectorIcSaIcEEEENS0_5__ops15_Iter_less_iterEEvT_S9_T0_
FN:1880,_ZSt22__final_insertion_sortIN9__gnu_cxx17__normal_iteratorIPcSt6vectorIcSaIcEEEENS0_5__ops15_Iter_less_iterEEvT_S9_T0_
FN:1896,_ZSt21__unguarded_partitionIN9__gnu_cxx17__normal_iteratorIPcSt6vectorIcSaIcEEEENS0_5__ops15_Iter_less_iterEET_S9_S9_S9_T0_
FN:1917,_ZSt27__unguarded_partition_pivotIN9__gnu_cxx17__normal_iteratorIPcSt6vectorIcSaIcEEEENS0_5__ops15_Iter_less_iterEET_S9_S9_T0_
FN:1928,_ZSt14__partial_sortIN9__gnu_cxx17__normal_iteratorIPcSt6vectorIcSaIcEEEENS0_5__ops15_Iter_less_iterEEvT_S9_S9_T0_
FN:1940,_ZSt16__introsort_loopIN9__gnu_cxx17__normal_iteratorIPcSt6vectorIcSaIcEEEElNS0_5__ops15_Iter_less_iterEEvT_S9_T0_T1_
FN:1963,_ZSt6__sortIN9__gnu_cxx17__normal_iteratorIPcSt6vectorIcSaIcEEEENS0_5__ops15_Iter_less_iterEEvT_S9_T0_
FN:2247,_ZSt13binary_searchIN9__gnu_cxx17__normal_iteratorIPKcSt6vectorIcSaIcEEEEcEbT_S8_RKT0_
FN:3899,_ZSt4findIN9__gnu_cxx17__normal_iteratorIPKNSt7__cxx1112basic_stringIcSt11char_traitsIcESaIcEEESt6vectorIS7_SaIS7_EEEES7_ET_SE_SE_RKT0_
FN:4826,_ZSt4sortIN9__gnu_cxx17__normal_iteratorIPcSt6vectorIcSaIcEEEEEvT_S7_
FNDA:0,_ZSt22__move_median_to_firstIN9__gnu_cxx17__normal_iteratorIPcSt6vectorIcSaIcEEEENS0_5__ops15_Iter_less_iterEEvT_S9_S9_S9_T0_
FNDA:592882,_ZSt9__find_ifIN9__gnu_cxx17__normal_iteratorIPKNSt7__cxx1112basic_stringIcSt11char_traitsIcESaIcEEESt6vectorIS7_SaIS7_EEEENS0_5__ops16_Iter_equals_valIS8_EEET_SH_SH_T0_St26random_access_iterator_tag
FNDA:592882,_ZSt9__find_ifIN9__gnu_cxx17__normal_iteratorIPKNSt7__cxx1112basic_stringIcSt11char_traitsIcESaIcEEESt6vectorIS7_SaIS7_EEEENS0_5__ops16_Iter_equals_valIS8_EEET_SH_SH_T0_
FNDA:2383,_ZSt15__adjacent_findIN9__gnu_cxx17__normal_iteratorIPcSt6vectorIcSaIcEEEENS0_5__ops19_Iter_equal_to_iterEET_S9_S9_T0_
FNDA:2383,_ZSt8__uniqueIN9__gnu_cxx17__normal_iteratorIPcSt6vectorIcSaIcEEEENS0_5__ops19_Iter_equal_to_iterEET_S9_S9_T0_
FNDA:2383,_ZSt6uniqueIN9__gnu_cxx17__normal_iteratorIPcSt6vectorIcSaIcEEEEET_S7_S7_
FNDA:0,_ZSt13__heap_selectIN9__gnu_cxx17__normal_iteratorIPcSt6vectorIcSaIcEEEENS0_5__ops15_Iter_less_iterEEvT_S9_S9_T0_
FNDA:13794,_ZSt25__unguarded_linear_insertIN9__gnu_cxx17__normal_iteratorIPcSt6vectorIcSaIcEEEENS0_5__ops14_Val_less_iterEEvT_T0_
FNDA:2299,_ZSt16__insertion_sortIN9__gnu_cxx17__normal_iteratorIPcSt6vectorIcSaIcEEEENS0_5__ops15_Iter_less_iterEEvT_S9_T0_
FNDA:0,_ZSt26__unguarded_insertion_sortIN9__gnu_cxx17__normal_iteratorIPcSt6vectorIcSaIcEEEENS0_5__ops15_Iter_less_iterEEvT_S9_T0_
FNDA:2299,_ZSt22__final_insertion_sortIN9__gnu_cxx17__normal_iteratorIPcSt6vectorIcSaIcEEEENS0_5__ops15_Iter_less_iterEEvT_S9_T0_
FNDA:0,_ZSt21__unguarded_partitionIN9__gnu_cxx17__normal_iteratorIPcSt6vectorIcSaIcEEEENS0_5__ops15_Iter_less_iterEET_S9_S9_S9_T0_
FNDA:0,_ZSt27__unguarded_partition_pivotIN9__gnu_cxx17__normal_iteratorIPcSt6vectorIcSaIcEEEENS0_5__ops15_Iter_less_iterEET_S9_S9_T0_
FNDA:0,_ZSt14__partial_sortIN9__gnu_cxx17__normal_iteratorIPcSt6vectorIcSaIcEEEENS0_5__ops15_Iter_less_iterEEvT_S9_S9_T0_
FNDA:2299,_ZSt16__introsort_loopIN9__gnu_cxx17__normal_iteratorIPcSt6vectorIcSaIcEEEElNS0_5__ops15_Iter_less_iterEEvT_S9_T0_T1_
FNDA:2383,_ZSt6__sortIN9__gnu_cxx17__normal_iteratorIPcSt6vectorIcSaIcEEEENS0_5__ops15_Iter_less_iterEEvT_S9_T0_
FNDA:610048,_ZSt13binary_searchIN9__gnu_cxx17__normal_iteratorIPKcSt6vectorIcSaIcEEEEcEbT_S8_RKT0_
FNDA:592882,_ZSt4findIN9__gnu_cxx17__normal_iteratorIPKNSt7__cxx1112basic_stringIcSt11char_traitsIcESaIcEEESt6vectorIS7_SaIS7_EEEES7_ET_SE_SE_RKT0_
FNDA:2383,_ZSt4sortIN9__gnu_cxx17__normal_iteratorIPcSt6vectorIcSaIcEEEEEvT_S7_
FNF:19
FNH:13
DA:78,0
DA:81,0
DA:83,0
DA:84,0
DA:85,0
DA:86,0
DA:88,0
DA:90,0
DA:91,0
DA:92,0
DA:93,0
DA:95,0
DA:96,0
DA:112,592882
DA:116,592882
DA:118,592998
DA:120,2072
DA:121,502
DA:122,1570
DA:124,1570
DA:125,504
DA:126,1066
DA:128,1066
DA:129,504
DA:130,562
DA:132,562
DA:133,504
DA:134,58
DA:137,590868
DA:139,0
DA:140,0
DA:141,0
DA:142,0
DA:143,52
DA:144,52
DA:145,26
DA:146,26
DA:147,26
DA:148,26
DA:149,26
DA:150,0
DA:151,590816
DA:153,590816
DA:159,592882
DA:162,592882
DA:945,2383
DA:948,2383
DA:949,84
DA:950,2299
DA:951,34485
DA:953,16093
DA:954,0
DA:955,16093
DA:957,2299
DA:962,2383
DA:966,2383
DA:967,2383
DA:968,2383
DA:971,0
DA:972,0
DA:973,0
DA:974,0
DA:975,0
DA:976,0
DA:995,2383
DA:1005,2383
DA:1668,0
DA:1672,0
DA:1673,0
DA:1674,0
DA:1675,0
DA:1676,0
DA:1821,13794
DA:1825,13794
DA:1826,13794
DA:1827,13794
DA:1828,36784
DA:1830,11495
DA:1831,11495
DA:1832,11495
DA:1834,13794
DA:1835,13794
DA:1840,2299
DA:1843,2299
DA:1845,18392
DA:1847,16093
DA:1850,2299
DA:1851,2299
DA:1852,2299
DA:1855,13794
DA:1856,27588
DA:1863,0
DA:1866,0
DA:1867,0
DA:1868,0
DA:1869,0
DA:1880,2299
DA:1883,2299
DA:1885,0
DA:1886,0
DA:1890,2299
DA:1891,2299
DA:1896,0
DA:1900,0
DA:1902,0
DA:1903,0
DA:1904,0
DA:1905,0
DA:1906,0
DA:1907,0
DA:1908,0
DA:1909,0
DA:1910,0
DA:1917,0
DA:1920,0
DA:1921,0
DA:1923,0
DA:1928,0
DA:1933,0
DA:1934,0
DA:1935,0
DA:1940,2299
DA:1944,2299
DA:1946,0
DA:1948,0
DA:1949,0
DA:1951,0
DA:1952,0
DA:1954,0
DA:1955,0
DA:1963,2383
DA:1966,2383
DA:1968,2299
DA:1969,2299
DA:1971,2299
DA:1973,2383
DA:2247,610048
DA:2257,610048
DA:2259,1220096
DA:2260,610048
DA:3899,592882
DA:3907,592882
DA:3908,592882
DA:4826,2383
DA:4836,2383
DA:4837,2383
LF:146
LH:82
end_of_record
SF:/usr/include/c++/7/bits/stl_algobase.h
FN:120,_ZSt9iter_swapIN9__gnu_cxx17__normal_iteratorIPcSt6vectorIcSaIcEEEES6_EvT_T0_
FN:219,_ZSt3maxImERKT_S2_S2_
FN:277,_ZSt12__niter_baseIPmET_S1_
FN:277,_ZSt12__niter_baseIPPlET_S2_
FN:277,_ZSt12__niter_baseIPKcET_S2_
FN:277,_ZSt12__niter_baseIPbET_S1_
FN:277,_ZSt12__niter_baseIPcET_S1_
FN:277,_ZSt12__niter_baseIPNSt7__cxx119sub_matchIN9__gnu_cxx17__normal_iteratorIPKcNS0_12basic_stringIcSt11char_traitsIcESaIcEEEEEEEET_SE_
FN:277,_ZSt12__niter_baseIPPNSt8__detail9_StateSeqINSt7__cxx1112regex_traitsIcEEEEET_S8_
FN:319,_ZNSt11__copy_moveILb0ELb0ESt26random_access_iterator_tagE8__copy_mIPNSt7__cxx119sub_matchIN9__gnu_cxx17__normal_iteratorIPKcNS3_12basic_stringIcSt11char_traitsIcESaIcEEEEEEESG_EET0_T_SI_SH_
FN:319,_ZNSt11__copy_moveILb0ELb0ESt26random_access_iterator_tagE8__copy_mIPKNSt7__cxx119sub_matchIN9__gnu_cxx17__normal_iteratorIPKcNS3_12basic_stringIcSt11char_traitsIcESaIcEEEEEEEPSF_EET0_T_SK_SJ_
FN:357,_ZNSt11__copy_moveILb0ELb1ESt26random_access_iterator_tagE8__copy_mIcEEPT_PKS3_S6_S4_
FN:357,_ZNSt11__copy_moveILb1ELb1ESt26random_access_iterator_tagE8__copy_mIcEEPT_PKS3_S6_S4_
FN:357,_ZNSt11__copy_moveILb0ELb1ESt26random_access_iterator_tagE8__copy_mIPNSt8__detail9_StateSeqINSt7__cxx1112regex_traitsIcEEEEEEPT_PKSA_SD_SB_
FN:357,_ZNSt11__copy_moveILb0ELb1ESt26random_access_iterator_tagE8__copy_mIPlEEPT_PKS4_S7_S5_
FN:357,_ZNSt11__copy_moveILb1ELb1ESt26random_access_iterator_tagE8__copy_mImEEPT_PKS3_S6_S4_
FN:375,_ZSt13__copy_move_aILb0EPPlS1_ET1_T0_S3_S2_
FN:375,_ZSt13__copy_move_aILb1EPmS0_ET1_T0_S2_S1_
FN:375,_ZSt13__copy_move_aILb0EPKcPcET1_T0_S4_S3_
FN:375,_ZSt13__copy_move_aILb0EPPNSt8__detail9_StateSeqINSt7__cxx1112regex_traitsIcEEEES7_ET1_T0_S9_S8_
FN:375,_ZSt13__copy_move_aILb0EPNSt7__cxx119sub_matchIN9__gnu_cxx17__normal_iteratorIPKcNS0_12basic_stringIcSt11char_traitsIcESaIcEEEEEEESD_ET1_T0_SF_SE_
FN:375,_ZSt13__copy_move_aILb1EPcS0_ET1_T0_S2_S1_
FN:375,_ZSt13__copy_move_aILb0EPKNSt7__cxx119sub_matchIN9__gnu_cxx17__normal_iteratorIPKcNS0_12basic_stringIcSt11char_traitsIcESaIcEEEEEEEPSC_ET1_T0_SH_SG_
FN:420,_ZSt14__copy_move_a2ILb1EPmS0_ET1_T0_S2_S1_
FN:420,_ZSt14__copy_move_a2ILb0EPKcPcET1_T0_S4_S3_
FN:420,_ZSt14__copy_move_a2ILb0EPPNSt8__detail9_StateSeqINSt7__cxx1112regex_traitsIcEEEES7_ET1_T0_S9_S8_
FN:420,_ZSt14__copy_move_a2ILb1EPcS0_ET1_T0_S2_S1_
FN:420,_ZSt14__copy_move_a2ILb0EN9__gnu_cxx17__normal_iteratorIPKcSt6vectorIcSaIcEEEEPcET1_T0_SA_S9_
FN:420,_ZSt14__copy_move_a2ILb0EPNSt7__cxx119sub_matchIN9__gnu_cxx17__normal_iteratorIPKcNS0_12basic_stringIcSt11char_traitsIcESaIcEEEEEEESD_ET1_T0_SF_SE_
FN:420,_ZSt14__copy_move_a2ILb0EPPlS1_ET1_T0_S3_S2_
FN:420,_ZSt14__copy_move_a2ILb1EN9__gnu_cxx17__normal_iteratorIPcSt6vectorIcSaIcEEEES6_ET1_T0_S8_S7_
FN:420,_ZSt14__copy_move_a2ILb0EN9__gnu_cxx17__normal_iteratorIPKNSt7__cxx119sub_matchINS1_IPKcNS2_12basic_stringIcSt11char_traitsIcESaIcEEEEEEESt6vectorISC_SaISC_EEEENS1_IPSC_SH_EEET1_T0_SM_SL_
FN:446,_ZSt4copyIN9__gnu_cxx17__normal_iteratorIPKNSt7__cxx119sub_matchINS1_IPKcNS2_12basic_stringIcSt11char_traitsIcESaIcEEEEEEESt6vectorISC_SaISC_EEEENS1_IPSC_SH_EEET0_T_SM_SL_
FN:446,_ZSt4copyIPKcPcET0_T_S4_S3_
FN:446,_ZSt4copyIN9__gnu_cxx17__normal_iteratorIPKcSt6vectorIcSaIcEEEEPcET0_T_SA_S9_
FN:446,_ZSt4copyIPNSt7__cxx119sub_matchIN9__gnu_cxx17__normal_iteratorIPKcNS0_12basic_stringIcSt11char_traitsIcESaIcEEEEEEESD_ET0_T_SF_SE_
FN:446,_ZSt4copyISt13move_iteratorIPcES1_ET0_T_S4_S3_
FN:446,_ZSt4copyIPPlS1_ET0_T_S3_S2_
FN:446,_ZSt4copyISt13move_iteratorIPmES1_ET0_T_S4_S3_
FN:446,_ZSt4copyIPPNSt8__detail9_StateSeqINSt7__cxx1112regex_traitsIcEEEES7_ET0_T_S9_S8_
FN:479,_ZSt4moveIN9__gnu_cxx17__normal_iteratorIPcSt6vectorIcSaIcEEEES6_ET0_T_S8_S7_
FN:559,_ZNSt20__copy_move_backwardILb1ELb1ESt26random_access_iterator_tagE13__copy_move_bIcEEPT_PKS3_S6_S4_
FN:559,_ZNSt20__copy_move_backwardILb0ELb1ESt26random_access_iterator_tagE13__copy_move_bIPlEEPT_PKS4_S7_S5_
FN:559,_ZNSt20__copy_move_backwardILb0ELb1ESt26random_access_iterator_tagE13__copy_move_bIPNSt8__detail9_StateSeqINSt7__cxx1112regex_traitsIcEEEEEEPT_PKSA_SD_SB_
FN:577,_ZSt22__copy_move_backward_aILb0EPPNSt8__detail9_StateSeqINSt7__cxx1112regex_traitsIcEEEES7_ET1_T0_S9_S8_
FN:577,_ZSt22__copy_move_backward_aILb0EPPlS1_ET1_T0_S3_S2_
FN:577,_ZSt22__copy_move_backward_aILb1EPcS0_ET1_T0_S2_S1_
FN:595,_ZSt23__copy_move_backward_a2ILb0EPPlS1_ET1_T0_S3_S2_
FN:595,_ZSt23__copy_move_backward_a2ILb0EPPNSt8__detail9_StateSeqINSt7__cxx1112regex_traitsIcEEEES7_ET1_T0_S9_S8_
FN:595,_ZSt23__copy_move_backward_a2ILb1EN9__gnu_cxx17__normal_iteratorIPcSt6vectorIcSaIcEEEES6_ET1_T0_S8_S7_
FN:622,_ZSt13copy_backwardIPPlS1_ET0_T_S3_S2_
FN:622,_ZSt13copy_backwardIPPNSt8__detail9_StateSeqINSt7__cxx1112regex_traitsIcEEEES7_ET0_T_S9_S8_
FN:658,_ZSt13move_backwardIN9__gnu_cxx17__normal_iteratorIPcSt6vectorIcSaIcEEEES6_ET0_T_S8_S7_
FN:749,_ZSt10__fill_n_aIPbmbEN9__gnu_cxx11__enable_ifIXsrSt11__is_scalarIT1_E7__valueET_E6__typeES6_T0_RKS4_
FN:784,_ZSt6fill_nIPbmbET_S1_T0_RKT1_
FN:946,_ZSt13__lower_boundIN9__gnu_cxx17__normal_iteratorIPKcSt6vectorIcSaIcEEEEcNS0_5__ops14_Iter_less_valEET_SA_SA_RKT0_T1_
FN:1008,_ZSt4__lgl
FNDA:0,_ZSt9iter_swapIN9__gnu_cxx17__normal_iteratorIPcSt6vectorIcSaIcEEEES6_EvT_T0_
FNDA:28461,_ZSt3maxImERKT_S2_S2_
FNDA:1181632,_ZSt12__niter_baseIPKcET_S2_
FNDA:648799,_ZSt12__niter_baseIPcET_S1_
FNDA:0,_ZSt12__niter_baseIPPlET_S2_
FNDA:0,_ZSt12__niter_baseIPPNSt8__detail9_StateSeqINSt7__cxx1112regex_traitsIcEEEEET_S8_
FNDA:0,_ZSt12__niter_baseIPNSt7__cxx119sub_matchIN9__gnu_cxx17__normal_iteratorIPKcNS0_12basic_stringIcSt11char_traitsIcESaIcEEEEEEEET_SE_
FNDA:0,_ZSt12__niter_baseIPbET_S1_
FNDA:14058,_ZSt12__niter_baseIPmET_S1_
FNDA:0,_ZNSt11__copy_moveILb0ELb0ESt26random_access_iterator_tagE8__copy_mIPNSt7__cxx119sub_matchIN9__gnu_cxx17__normal_iteratorIPKcNS3_12basic_stringIcSt11char_traitsIcESaIcEEEEEEESG_EET0_T_SI_SH_
FNDA:48474,_ZNSt11__copy_moveILb0ELb0ESt26random_access_iterator_tagE8__copy_mIPKNSt7__cxx119sub_matchIN9__gnu_cxx17__normal_iteratorIPKcNS3_12basic_stringIcSt11char_traitsIcESaIcEEEEEEEPSF_EET0_T_SK_SJ_
FNDA:593623,_ZNSt11__copy_moveILb0ELb1ESt26random_access_iterator_tagE8__copy_mIcEEPT_PKS3_S6_S4_
FNDA:0,_ZNSt11__copy_moveILb0ELb1ESt26random_access_iterator_tagE8__copy_mIPlEEPT_PKS4_S7_S5_
FNDA:18392,_ZNSt11__copy_moveILb1ELb1ESt26random_access_iterator_tagE8__copy_mIcEEPT_PKS3_S6_S4_
FNDA:0,_ZNSt11__copy_moveILb0ELb1ESt26random_access_iterator_tagE8__copy_mIPNSt8__detail9_StateSeqINSt7__cxx1112regex_traitsIcEEEEEEPT_PKSA_SD_SB_
FNDA:4686,_ZNSt11__copy_moveILb1ELb1ESt26random_access_iterator_tagE8__copy_mImEEPT_PKS3_S6_S4_
FNDA:593623,_ZSt13__copy_move_aILb0EPKcPcET1_T0_S4_S3_
FNDA:0,_ZSt13__copy_move_aILb0EPPlS1_ET1_T0_S3_S2_
FNDA:18392,_ZSt13__copy_move_aILb1EPcS0_ET1_T0_S2_S1_
FNDA:0,_ZSt13__copy_move_aILb0EPPNSt8__detail9_StateSeqINSt7__cxx1112regex_traitsIcEEEES7_ET1_T0_S9_S8_
FNDA:4686,_ZSt13__copy_move_aILb1EPmS0_ET1_T0_S2_S1_
FNDA:0,_ZSt13__copy_move_aILb0EPNSt7__cxx119sub_matchIN9__gnu_cxx17__normal_iteratorIPKcNS0_12basic_stringIcSt11char_traitsIcESaIcEEEEEEESD_ET1_T0_SF_SE_
FNDA:48474,_ZSt13__copy_move_aILb0EPKNSt7__cxx119sub_matchIN9__gnu_cxx17__normal_iteratorIPKcNS0_12basic_stringIcSt11char_traitsIcESaIcEEEEEEEPSC_ET1_T0_SH_SG_
FNDA:590816,_ZSt14__copy_move_a2ILb0EPKcPcET1_T0_S4_S3_
FNDA:18392,_ZSt14__copy_move_a2ILb1EPcS0_ET1_T0_S2_S1_
FNDA:2807,_ZSt14__copy_move_a2ILb0EN9__gnu_cxx17__normal_iteratorIPKcSt6vectorIcSaIcEEEEPcET1_T0_SA_S9_
FNDA:0,_ZSt14__copy_move_a2ILb0EPPlS1_ET1_T0_S3_S2_
FNDA:0,_ZSt14__copy_move_a2ILb1EN9__gnu_cxx17__normal_iteratorIPcSt6vectorIcSaIcEEEES6_ET1_T0_S8_S7_
FNDA:0,_ZSt14__copy_move_a2ILb0EPPNSt8__detail9_StateSeqINSt7__cxx1112regex_traitsIcEEEES7_ET1_T0_S9_S8_
FNDA:4686,_ZSt14__copy_move_a2ILb1EPmS0_ET1_T0_S2_S1_
FNDA:0,_ZSt14__copy_move_a2ILb0EPNSt7__cxx119sub_matchIN9__gnu_cxx17__normal_iteratorIPKcNS0_12basic_stringIcSt11char_traitsIcESaIcEEEEEEESD_ET1_T0_SF_SE_
FNDA:48474,_ZSt14__copy_move_a2ILb0EN9__gnu_cxx17__normal_iteratorIPKNSt7__cxx119sub_matchINS1_IPKcNS2_12basic_stringIcSt11char_traitsIcESaIcEEEEEEESt6vectorISC_SaISC_EEEENS1_IPSC_SH_EEET1_T0_SM_SL_
FNDA:590816,_ZSt4copyIPKcPcET0_T_S4_S3_
FNDA:18392,_ZSt4copyISt13move_iteratorIPcES1_ET0_T_S4_S3_
FNDA:2807,_ZSt4copyIN9__gnu_cxx17__normal_iteratorIPKcSt6vectorIcSaIcEEEEPcET0_T_SA_S9_
FNDA:0,_ZSt4copyIPPlS1_ET0_T_S3_S2_
FNDA:0,_ZSt4copyIPPNSt8__detail9_StateSeqINSt7__cxx1112regex_traitsIcEEEES7_ET0_T_S9_S8_
FNDA:4686,_ZSt4copyISt13move_iteratorIPmES1_ET0_T_S4_S3_
FNDA:0,_ZSt4copyIPNSt7__cxx119sub_matchIN9__gnu_cxx17__normal_iteratorIPKcNS0_12basic_stringIcSt11char_traitsIcESaIcEEEEEEESD_ET0_T_SF_SE_
FNDA:48474,_ZSt4copyIN9__gnu_cxx17__normal_iteratorIPKNSt7__cxx119sub_matchINS1_IPKcNS2_12basic_stringIcSt11char_traitsIcESaIcEEEEEEESt6vectorISC_SaISC_EEEENS1_IPSC_SH_EEET0_T_SM_SL_
FNDA:0,_ZSt4moveIN9__gnu_cxx17__normal_iteratorIPcSt6vectorIcSaIcEEEES6_ET0_T_S8_S7_
FNDA:2299,_ZNSt20__copy_move_backwardILb1ELb1ESt26random_access_iterator_tagE13__copy_move_bIcEEPT_PKS3_S6_S4_
FNDA:0,_ZNSt20__copy_move_backwardILb0ELb1ESt26random_access_iterator_tagE13__copy_move_bIPlEEPT_PKS4_S7_S5_
FNDA:0,_ZNSt20__copy_move_backwardILb0ELb1ESt26random_access_iterator_tagE13__copy_move_bIPNSt8__detail9_StateSeqINSt7__cxx1112regex_traitsIcEEEEEEPT_PKSA_SD_SB_
FNDA:2299,_ZSt22__copy_move_backward_aILb1EPcS0_ET1_T0_S2_S1_
FNDA:0,_ZSt22__copy_move_backward_aILb0EPPlS1_ET1_T0_S3_S2_
FNDA:0,_ZSt22__copy_move_backward_aILb0EPPNSt8__detail9_StateSeqINSt7__cxx1112regex_traitsIcEEEES7_ET1_T0_S9_S8_
FNDA:2299,_ZSt23__copy_move_backward_a2ILb1EN9__gnu_cxx17__normal_iteratorIPcSt6vectorIcSaIcEEEES6_ET1_T0_S8_S7_
FNDA:0,_ZSt23__copy_move_backward_a2ILb0EPPlS1_ET1_T0_S3_S2_
FNDA:0,_ZSt23__copy_move_backward_a2ILb0EPPNSt8__detail9_StateSeqINSt7__cxx1112regex_traitsIcEEEES7_ET1_T0_S9_S8_
FNDA:0,_ZSt13copy_backwardIPPlS1_ET0_T_S3_S2_
FNDA:0,_ZSt13copy_backwardIPPNSt8__detail9_StateSeqINSt7__cxx1112regex_traitsIcEEEES7_ET0_T_S9_S8_
FNDA:2299,_ZSt13move_backwardIN9__gnu_cxx17__normal_iteratorIPcSt6vectorIcSaIcEEEES6_ET0_T_S8_S7_
FNDA:0,_ZSt10__fill_n_aIPbmbEN9__gnu_cxx11__enable_ifIXsrSt11__is_scalarIT1_E7__valueET_E6__typeES6_T0_RKS4_
FNDA:0,_ZSt6fill_nIPbmbET_S1_T0_RKT1_
FNDA:610048,_ZSt13__lower_boundIN9__gnu_cxx17__normal_iteratorIPKcSt6vectorIcSaIcEEEEcNS0_5__ops14_Iter_less_valEET_SA_SA_RKT0_T1_
FNDA:2299,_ZSt4__lgl
FNF:57
FNH:28
DA:120,0
DA:148,0
DA:150,0
DA:219,28461
DA:224,28461
DA:225,9391
DA:226,19070
DA:277,1844489
DA:278,1844489
DA:319,48474
DA:322,243377
DA:324,194903
DA:325,194903
DA:326,194903
DA:328,48474
DA:357,616701
DA:366,616701
DA:367,616701
DA:368,600028
DA:369,616701
DA:375,665175
DA:380,665175
DA:386,665175
DA:420,665175
DA:422,713649
DA:424,713649
DA:446,665175
DA:455,665175
DA:456,665175
DA:479,0
DA:487,0
DA:488,0
DA:559,2299
DA:568,2299
DA:569,2299
DA:570,2299
DA:571,2299
DA:577,2299
DA:582,2299
DA:590,2299
DA:595,2299
DA:598,4598
DA:599,4598
DA:622,0
DA:633,0
DA:634,0
DA:658,2299
DA:668,2299
DA:670,2299
DA:749,0
DA:751,0
DA:752,0
DA:753,0
DA:754,0
DA:755,0
DA:784,0
DA:789,0
DA:946,610048
DA:952,610048
DA:954,5093098
DA:956,2241525
DA:957,2241525
DA:958,2241525
DA:959,2241525
DA:961,232199
DA:962,232199
DA:963,232199
DA:966,2009326
DA:968,610048
DA:1008,2299
DA:1009,2299
LF:71
LH:54
end_of_record
SF:/usr/include/c++/7/bits/stl_construct.h
FN:74,_ZSt10_ConstructINSt7__cxx119sub_matchIN9__gnu_cxx17__normal_iteratorIPKcNS0_12basic_stringIcSt11char_traitsIcESaIcEEEEEEEJEEvPT_DpOT0_
FN:74,_ZSt10_ConstructISt4pairIN9__gnu_cxx17__normal_iteratorIPKcNSt7__cxx1112basic_stringIcSt11char_traitsIcESaIcEEEEEiEJEEvPT_DpOT0_
FN:74,_ZSt10_ConstructINSt8__detail6_StateIcEEJRKS2_EEvPT_DpOT0_
FN:74,_ZSt10_ConstructISt4pairIlSt6vectorINSt7__cxx119sub_matchIN9__gnu_cxx17__normal_iteratorIPKcNS2_12basic_stringIcSt11char_traitsIcESaIcEEEEEEESaISE_EEEJSH_EEvPT_DpOT0_
FN:74,_ZSt10_ConstructISt4pairINSt7__cxx1112basic_stringIcSt11char_traitsIcESaIcEEES6_EJS7_EEvPT_DpOT0_
FN:74,_ZSt10_ConstructINSt7__cxx1112basic_stringIcSt11char_traitsIcESaIcEEEJS5_EEvPT_DpOT0_
FN:74,_ZSt10_ConstructINSt7__cxx1112basic_stringIcSt11char_traitsIcESaIcEEEJRKS5_EEvPT_DpOT0_
FN:74,_ZSt10_ConstructINSt7__cxx119sub_matchIN9__gnu_cxx17__normal_iteratorIPKcNS0_12basic_stringIcSt11char_traitsIcESaIcEEEEEEEJRSC_EEvPT_DpOT0_
FN:74,_ZSt10_ConstructISt4pairIccEJS1_EEvPT_DpOT0_
FN:74,_ZSt10_ConstructINSt7__cxx1112regex_traitsIcE10_RegexMaskEJRKS3_EEvPT_DpOT0_
FN:74,_ZSt10_ConstructISt4pairIccEJRKS1_EEvPT_DpOT0_
FN:74,_ZSt10_ConstructISt4pairINSt7__cxx1112basic_stringIcSt11char_traitsIcESaIcEEES6_EJRKS7_EEvPT_DpOT0_
FN:74,_ZSt10_ConstructINSt7__cxx119sub_matchIN9__gnu_cxx17__normal_iteratorIPKcNS0_12basic_stringIcSt11char_traitsIcESaIcEEEEEEEJSC_EEvPT_DpOT0_
FN:74,_ZSt10_ConstructINSt7__cxx1112regex_traitsIcE10_RegexMaskEJS3_EEvPT_DpOT0_
FN:74,_ZSt10_ConstructINSt7__cxx119sub_matchIN9__gnu_cxx17__normal_iteratorIPKcNS0_12basic_stringIcSt11char_traitsIcESaIcEEEEEEEJRKSC_EEvPT_DpOT0_
FN:97,_ZSt8_DestroyISt4pairIlSt6vectorINSt7__cxx119sub_matchIN9__gnu_cxx17__normal_iteratorIPKcNS2_12basic_stringIcSt11char_traitsIcESaIcEEEEEEESaISE_EEEEvPT_
FN:97,_ZSt8_DestroyISt4pairINSt7__cxx1112basic_stringIcSt11char_traitsIcESaIcEEES6_EEvPT_
FN:97,_ZSt8_DestroyINSt7__cxx1112basic_stringIcSt11char_traitsIcESaIcEEEEvPT_
FN:97,_ZSt8_DestroyINSt8__detail6_StateIcEEEvPT_
FN:105,_ZNSt12_Destroy_auxILb0EE9__destroyIPNSt8__detail6_StateIcEEEEvT_S6_
FN:105,_ZNSt12_Destroy_auxILb0EE9__destroyIPNSt7__cxx1112basic_stringIcSt11char_traitsIcESaIcEEEEEvT_S9_
FN:105,_ZNSt12_Destroy_auxILb0EE9__destroyIPSt4pairINSt7__cxx1112basic_stringIcSt11char_traitsIcESaIcEEES8_EEEvT_SB_
FN:105,_ZNSt12_Destroy_auxILb0EE9__destroyIPSt4pairIlSt6vectorINSt7__cxx119sub_matchIN9__gnu_cxx17__normal_iteratorIPKcNS4_12basic_stringIcSt11char_traitsIcESaIcEEEEEEESaISG_EEEEEvT_SL_
FN:117,_ZNSt12_Destroy_auxILb1EE9__destroyIN9__gnu_cxx17__normal_iteratorIPNSt7__cxx119sub_matchINS3_IPKcNS4_12basic_stringIcSt11char_traitsIcESaIcEEEEEEESt6vectorISE_SaISE_EEEEEEvT_SK_
FN:117,_ZNSt12_Destroy_auxILb1EE9__destroyIPmEEvT_S3_
FN:117,_ZNSt12_Destroy_auxILb1EE9__destroyIPNSt7__cxx1112regex_traitsIcE10_RegexMaskEEEvT_S7_
FN:117,_ZNSt12_Destroy_auxILb1EE9__destroyIPNSt7__cxx119sub_matchIN9__gnu_cxx17__normal_iteratorIPKcNS2_12basic_stringIcSt11char_traitsIcESaIcEEEEEEEEEvT_SG_
FN:117,_ZNSt12_Destroy_auxILb1EE9__destroyIPcEEvT_S3_
FN:117,_ZNSt12_Destroy_auxILb1EE9__destroyIPSt4pairIN9__gnu_cxx17__normal_iteratorIPKcNSt7__cxx1112basic_stringIcSt11char_traitsIcESaIcEEEEEiEEEvT_SG_
FN:117,_ZNSt12_Destroy_auxILb1EE9__destroyIPSt4pairIccEEEvT_S5_
FN:127,_ZSt8_DestroyIPSt4pairIccEEvT_S3_
FN:127,_ZSt8_DestroyIN9__gnu_cxx17__normal_iteratorIPNSt7__cxx119sub_matchINS1_IPKcNS2_12basic_stringIcSt11char_traitsIcESaIcEEEEEEESt6vectorISC_SaISC_EEEEEvT_SI_
FN:127,_ZSt8_DestroyIPSt4pairIlSt6vectorINSt7__cxx119sub_matchIN9__gnu_cxx17__normal_iteratorIPKcNS2_12basic_stringIcSt11char_traitsIcESaIcEEEEEEESaISE_EEEEvT_SJ_
FN:127,_ZSt8_DestroyIPNSt7__cxx1112regex_traitsIcE10_RegexMaskEEvT_S5_
FN:127,_ZSt8_DestroyIPSt4pairIN9__gnu_cxx17__normal_iteratorIPKcNSt7__cxx1112basic_stringIcSt11char_traitsIcESaIcEEEEEiEEvT_SE_
FN:127,_ZSt8_DestroyIPcEvT_S1_
FN:127,_ZSt8_DestroyIPmEvT_S1_
FN:127,_ZSt8_DestroyIPSt4pairINSt7__cxx1112basic_stringIcSt11char_traitsIcESaIcEEES6_EEvT_S9_
FN:127,_ZSt8_DestroyIPNSt7__cxx119sub_matchIN9__gnu_cxx17__normal_iteratorIPKcNS0_12basic_stringIcSt11char_traitsIcESaIcEEEEEEEEvT_SE_
FN:127,_ZSt8_DestroyIPNSt8__detail6_StateIcEEEvT_S4_
FN:127,_ZSt8_DestroyIPNSt7__cxx1112basic_stringIcSt11char_traitsIcESaIcEEEEvT_S7_
FN:203,_ZSt8_DestroyIPNSt7__cxx1112regex_traitsIcE10_RegexMaskES3_EvT_S5_RSaIT0_E
FN:203,_ZSt8_DestroyIN9__gnu_cxx17__normal_iteratorIPNSt7__cxx119sub_matchINS1_IPKcNS2_12basic_stringIcSt11char_traitsIcESaIcEEEEEEESt6vectorISC_SaISC_EEEESC_EvT_SI_RSaIT0_E
FN:203,_ZSt8_DestroyIPSt4pairIccES1_EvT_S3_RSaIT0_E
FN:203,_ZSt8_DestroyIPccEvT_S1_RSaIT0_E
FN:203,_ZSt8_DestroyIPNSt8__detail6_StateIcEES2_EvT_S4_RSaIT0_E
FN:203,_ZSt8_DestroyIPSt4pairIN9__gnu_cxx17__normal_iteratorIPKcNSt7__cxx1112basic_stringIcSt11char_traitsIcESaIcEEEEEiESC_EvT_SE_RSaIT0_E
FN:203,_ZSt8_DestroyIPNSt7__cxx119sub_matchIN9__gnu_cxx17__normal_iteratorIPKcNS0_12basic_stringIcSt11char_traitsIcESaIcEEEEEEESC_EvT_SE_RSaIT0_E
FN:203,_ZSt8_DestroyIPNSt7__cxx1112basic_stringIcSt11char_traitsIcESaIcEEES5_EvT_S7_RSaIT0_E
FN:203,_ZSt8_DestroyIPmmEvT_S1_RSaIT0_E
FN:203,_ZSt8_DestroyIPSt4pairINSt7__cxx1112basic_stringIcSt11char_traitsIcESaIcEEES6_ES7_EvT_S9_RSaIT0_E
FN:203,_ZSt8_DestroyIPSt4pairIlSt6vectorINSt7__cxx119sub_matchIN9__gnu_cxx17__normal_iteratorIPKcNS2_12basic_stringIcSt11char_traitsIcESaIcEEEEEEESaISE_EEESH_EvT_SJ_RSaIT0_E
FNDA:0,_ZSt10_ConstructISt4pairINSt7__cxx1112basic_stringIcSt11char_traitsIcESaIcEEES6_EJS7_EEvPT_DpOT0_
FNDA:0,_ZSt10_ConstructISt4pairIccEJS1_EEvPT_DpOT0_
FNDA:0,_ZSt10_ConstructISt4pairINSt7__cxx1112basic_stringIcSt11char_traitsIcESaIcEEES6_EJRKS7_EEvPT_DpOT0_
FNDA:0,_ZSt10_ConstructINSt7__cxx1112regex_traitsIcE10_RegexMaskEJRKS3_EEvPT_DpOT0_
FNDA:0,_ZSt10_ConstructISt4pairIccEJRKS1_EEvPT_DpOT0_
FNDA:0,_ZSt10_ConstructINSt7__cxx1112basic_stringIcSt11char_traitsIcESaIcEEEJRKS5_EEvPT_DpOT0_
FNDA:0,_ZSt10_ConstructINSt7__cxx1112regex_traitsIcE10_RegexMaskEJS3_EEvPT_DpOT0_
FNDA:38873,_ZSt10_ConstructINSt8__detail6_StateIcEEJRKS2_EEvPT_DpOT0_
FNDA:0,_ZSt10_ConstructISt4pairIlSt6vectorINSt7__cxx119sub_matchIN9__gnu_cxx17__normal_iteratorIPKcNS2_12basic_stringIcSt11char_traitsIcESaIcEEEEEEESaISE_EEEJSH_EEvPT_DpOT0_
FNDA:37659,_ZSt10_ConstructINSt7__cxx119sub_matchIN9__gnu_cxx17__normal_iteratorIPKcNS0_12basic_stringIcSt11char_traitsIcESaIcEEEEEEEJRKSC_EEvPT_DpOT0_
FNDA:0,_ZSt10_ConstructINSt7__cxx119sub_matchIN9__gnu_cxx17__normal_iteratorIPKcNS0_12basic_stringIcSt11char_traitsIcESaIcEEEEEEEJRSC_EEvPT_DpOT0_
FNDA:36,_ZSt10_ConstructINSt7__cxx119sub_matchIN9__gnu_cxx17__normal_iteratorIPKcNS0_12basic_stringIcSt11char_traitsIcESaIcEEEEEEEJSC_EEvPT_DpOT0_
FNDA:133812,_ZSt10_ConstructISt4pairIN9__gnu_cxx17__normal_iteratorIPKcNSt7__cxx1112basic_stringIcSt11char_traitsIcESaIcEEEEEiEJEEvPT_DpOT0_
FNDA:9787,_ZSt10_ConstructINSt7__cxx119sub_matchIN9__gnu_cxx17__normal_iteratorIPKcNS0_12basic_stringIcSt11char_traitsIcESaIcEEEEEEEJEEvPT_DpOT0_
FNDA:86,_ZSt10_ConstructINSt7__cxx1112basic_stringIcSt11char_traitsIcESaIcEEEJS5_EEvPT_DpOT0_
FNDA:0,_ZSt8_DestroyISt4pairINSt7__cxx1112basic_stringIcSt11char_traitsIcESaIcEEES6_EEvPT_
FNDA:70117,_ZSt8_DestroyINSt8__detail6_StateIcEEEvPT_
FNDA:0,_ZSt8_DestroyISt4pairIlSt6vectorINSt7__cxx119sub_matchIN9__gnu_cxx17__normal_iteratorIPKcNS2_12basic_stringIcSt11char_traitsIcESaIcEEEEEEESaISE_EEEEvPT_
FNDA:12584,_ZSt8_DestroyINSt7__cxx1112basic_stringIcSt11char_traitsIcESaIcEEEEvPT_
FNDA:0,_ZNSt12_Destroy_auxILb0EE9__destroyIPSt4pairINSt7__cxx1112basic_stringIcSt11char_traitsIcESaIcEEES8_EEEvT_SB_
FNDA:14046,_ZNSt12_Destroy_auxILb0EE9__destroyIPNSt8__detail6_StateIcEEEEvT_S6_
FNDA:0,_ZNSt12_Destroy_auxILb0EE9__destroyIPSt4pairIlSt6vectorINSt7__cxx119sub_matchIN9__gnu_cxx17__normal_iteratorIPKcNS4_12basic_stringIcSt11char_traitsIcESaIcEEEEEEESaISG_EEEEEvT_SL_
FNDA:12086,_ZNSt12_Destroy_auxILb0EE9__destroyIPNSt7__cxx1112basic_stringIcSt11char_traitsIcESaIcEEEEEvT_S9_
FNDA:9956,_ZNSt12_Destroy_auxILb1EE9__destroyIPNSt7__cxx1112regex_traitsIcE10_RegexMaskEEEvT_S7_
FNDA:9956,_ZNSt12_Destroy_auxILb1EE9__destroyIPSt4pairIccEEEvT_S5_
FNDA:609968,_ZNSt12_Destroy_auxILb1EE9__destroyIPcEEvT_S3_
FNDA:48474,_ZNSt12_Destroy_auxILb1EE9__destroyIN9__gnu_cxx17__normal_iteratorIPNSt7__cxx119sub_matchINS3_IPKcNS4_12basic_stringIcSt11char_traitsIcESaIcEEEEEEESt6vectorISE_SaISE_EEEEEEvT_SK_
FNDA:9325,_ZNSt12_Destroy_auxILb1EE9__destroyIPSt4pairIN9__gnu_cxx17__normal_iteratorIPKcNSt7__cxx1112basic_stringIcSt11char_traitsIcESaIcEEEEEiEEEvT_SG_
FNDA:25687,_ZNSt12_Destroy_auxILb1EE9__destroyIPNSt7__cxx119sub_matchIN9__gnu_cxx17__normal_iteratorIPKcNS2_12basic_stringIcSt11char_traitsIcESaIcEEEEEEEEEvT_SG_
FNDA:4670,_ZNSt12_Destroy_auxILb1EE9__destroyIPmEEvT_S3_
FNDA:0,_ZSt8_DestroyIPSt4pairINSt7__cxx1112basic_stringIcSt11char_traitsIcESaIcEEES6_EEvT_S9_
FNDA:9956,_ZSt8_DestroyIPNSt7__cxx1112regex_traitsIcE10_RegexMaskEEvT_S5_
FNDA:9956,_ZSt8_DestroyIPSt4pairIccEEvT_S3_
FNDA:609968,_ZSt8_DestroyIPcEvT_S1_
FNDA:14046,_ZSt8_DestroyIPNSt8__detail6_StateIcEEEvT_S4_
FNDA:48474,_ZSt8_DestroyIN9__gnu_cxx17__normal_iteratorIPNSt7__cxx119sub_matchINS1_IPKcNS2_12basic_stringIcSt11char_traitsIcESaIcEEEEEEESt6vectorISC_SaISC_EEEEEvT_SI_
FNDA:0,_ZSt8_DestroyIPSt4pairIlSt6vectorINSt7__cxx119sub_matchIN9__gnu_cxx17__normal_iteratorIPKcNS2_12basic_stringIcSt11char_traitsIcESaIcEEEEEEESaISE_EEEEvT_SJ_
FNDA:9325,_ZSt8_DestroyIPSt4pairIN9__gnu_cxx17__normal_iteratorIPKcNSt7__cxx1112basic_stringIcSt11char_traitsIcESaIcEEEEEiEEvT_SE_
FNDA:25687,_ZSt8_DestroyIPNSt7__cxx119sub_matchIN9__gnu_cxx17__normal_iteratorIPKcNS0_12basic_stringIcSt11char_traitsIcESaIcEEEEEEEEvT_SE_
FNDA:12086,_ZSt8_DestroyIPNSt7__cxx1112basic_stringIcSt11char_traitsIcESaIcEEEEvT_S7_
FNDA:4670,_ZSt8_DestroyIPmEvT_S1_
FNDA:0,_ZSt8_DestroyIPSt4pairINSt7__cxx1112basic_stringIcSt11char_traitsIcESaIcEEES6_ES7_EvT_S9_RSaIT0_E
FNDA:9956,_ZSt8_DestroyIPNSt7__cxx1112regex_traitsIcE10_RegexMaskES3_EvT_S5_RSaIT0_E
FNDA:9956,_ZSt8_DestroyIPSt4pairIccES1_EvT_S3_RSaIT0_E
FNDA:609968,_ZSt8_DestroyIPccEvT_S1_RSaIT0_E
FNDA:14046,_ZSt8_DestroyIPNSt8__detail6_StateIcEES2_EvT_S4_RSaIT0_E
FNDA:48474,_ZSt8_DestroyIN9__gnu_cxx17__normal_iteratorIPNSt7__cxx119sub_matchINS1_IPKcNS2_12basic_stringIcSt11char_traitsIcESaIcEEEEEEESt6vectorISC_SaISC_EEEESC_EvT_SI_RSaIT0_E
FNDA:0,_ZSt8_DestroyIPSt4pairIlSt6vectorINSt7__cxx119sub_matchIN9__gnu_cxx17__normal_iteratorIPKcNS2_12basic_stringIcSt11char_traitsIcESaIcEEEEEEESaISE_EEESH_EvT_SJ_RSaIT0_E
FNDA:9325,_ZSt8_DestroyIPSt4pairIN9__gnu_cxx17__normal_iteratorIPKcNSt7__cxx1112basic_stringIcSt11char_traitsIcESaIcEEEEEiESC_EvT_SE_RSaIT0_E
FNDA:25687,_ZSt8_DestroyIPNSt7__cxx119sub_matchIN9__gnu_cxx17__normal_iteratorIPKcNS0_12basic_stringIcSt11char_traitsIcESaIcEEEEEEESC_EvT_SE_RSaIT0_E
FNDA:12086,_ZSt8_DestroyIPNSt7__cxx1112basic_stringIcSt11char_traitsIcESaIcEEES5_EvT_S7_RSaIT0_E
FNDA:4670,_ZSt8_DestroyIPmmEvT_S1_RSaIT0_E
FNF:52
FNH:35
DA:74,220253
DA:75,220253
DA:97,82701
DA:98,82701
DA:105,108833
DA:107,191534
DA:108,82701
DA:109,26132
DA:117,718036
DA:127,744168
DA:137,744168
DA:138,744168
DA:203,744168
DA:206,744168
DA:207,744168
LF:15
LH:15
end_of_record
SF:/usr/include/c++/7/bits/stl_deque.h
FN:91,_ZSt16__deque_buf_sizem
FN:128,_ZNSt15_Deque_iteratorINSt8__detail9_StateSeqINSt7__cxx1112regex_traitsIcEEEERS5_PS5_E14_S_buffer_sizeEv
FN:128,_ZNSt15_Deque_iteratorIlRlPlE14_S_buffer_sizeEv
FN:148,_ZNSt15_Deque_iteratorINSt8__detail9_StateSeqINSt7__cxx1112regex_traitsIcEEEERS5_PS5_EC2Ev
FN:148,_ZNSt15_Deque_iteratorIlRlPlEC2Ev
FN:151,_ZNSt15_Deque_iteratorIlRlPlEC2ERKS2_
FN:151,_ZNSt15_Deque_iteratorINSt8__detail9_StateSeqINSt7__cxx1112regex_traitsIcEEEERS5_PS5_EC2ERKS8_
FN:160,_ZNKSt15_Deque_iteratorIlRlPlEdeEv
FN:160,_ZNKSt15_Deque_iteratorINSt8__detail9_StateSeqINSt7__cxx1112regex_traitsIcEEEERS5_PS5_EdeEv
FN:188,_ZNSt15_Deque_iteratorIlRlPlEmmEv
FN:188,_ZNSt15_Deque_iteratorINSt8__detail9_StateSeqINSt7__cxx1112regex_traitsIcEEEERS5_PS5_EmmEv
FN:254,_ZNSt15_Deque_iteratorINSt8__detail9_StateSeqINSt7__cxx1112regex_traitsIcEEEERS5_PS5_E11_M_set_nodeEPS7_
FN:254,_ZNSt15_Deque_iteratorIlRlPlE11_M_set_nodeEPS1_
FN:267,_ZSteqINSt8__detail9_StateSeqINSt7__cxx1112regex_traitsIcEEEERS5_PS5_EbRKSt15_Deque_iteratorIT_T0_T1_ESE_
FN:267,_ZSteqIlRlPlEbRKSt15_Deque_iteratorIT_T0_T1_ES8_
FN:490,_ZNSt11_Deque_baseIlSaIlEEC2Ev
FN:490,_ZNSt11_Deque_baseINSt8__detail9_StateSeqINSt7__cxx1112regex_traitsIcEEEESaIS5_EEC2Ev
FN:549,_ZNSt11_Deque_baseINSt8__detail9_StateSeqINSt7__cxx1112regex_traitsIcEEEESaIS5_EE11_Deque_implD2Ev
FN:549,_ZNSt11_Deque_baseIlSaIlEE11_Deque_implD2Ev
FN:557,_ZNSt11_Deque_baseIlSaIlEE11_Deque_implC2Ev
FN:557,_ZNSt11_Deque_baseINSt8__detail9_StateSeqINSt7__cxx1112regex_traitsIcEEEESaIS5_EE11_Deque_implC2Ev
FN:587,_ZNSt11_Deque_baseIlSaIlEE19_M_get_Tp_allocatorEv
FN:587,_ZNSt11_Deque_baseINSt8__detail9_StateSeqINSt7__cxx1112regex_traitsIcEEEESaIS5_EE19_M_get_Tp_allocatorEv
FN:591,_ZNKSt11_Deque_baseIlSaIlEE19_M_get_Tp_allocatorEv
FN:591,_ZNKSt11_Deque_baseINSt8__detail9_StateSeqINSt7__cxx1112regex_traitsIcEEEESaIS5_EE19_M_get_Tp_allocatorEv
FN:595,_ZNKSt11_Deque_baseIlSaIlEE20_M_get_map_allocatorEv
FN:595,_ZNKSt11_Deque_baseINSt8__detail9_StateSeqINSt7__cxx1112regex_traitsIcEEEESaIS5_EE20_M_get_map_allocatorEv
FN:599,_ZNSt11_Deque_baseINSt8__detail9_StateSeqINSt7__cxx1112regex_traitsIcEEEESaIS5_EE16_M_allocate_nodeEv
FN:599,_ZNSt11_Deque_baseIlSaIlEE16_M_allocate_nodeEv
FN:606,_ZNSt11_Deque_baseIlSaIlEE18_M_deallocate_nodeEPl
FN:606,_ZNSt11_Deque_baseINSt8__detail9_StateSeqINSt7__cxx1112regex_traitsIcEEEESaIS5_EE18_M_deallocate_nodeEPS5_
FN:613,_ZNSt11_Deque_baseINSt8__detail9_StateSeqINSt7__cxx1112regex_traitsIcEEEESaIS5_EE15_M_allocate_mapEm
FN:613,_ZNSt11_Deque_baseIlSaIlEE15_M_allocate_mapEm
FN:620,_ZNSt11_Deque_baseIlSaIlEE17_M_deallocate_mapEPPlm
FN:620,_ZNSt11_Deque_baseINSt8__detail9_StateSeqINSt7__cxx1112regex_traitsIcEEEESaIS5_EE17_M_deallocate_mapEPPS5_m
FN:660,_ZNSt11_Deque_baseINSt8__detail9_StateSeqINSt7__cxx1112regex_traitsIcEEEESaIS5_EED2Ev
FN:660,_ZNSt11_Deque_baseIlSaIlEED2Ev
FN:681,_ZNSt11_Deque_baseIlSaIlEE17_M_initialize_mapEm
FN:681,_ZNSt11_Deque_baseINSt8__detail9_StateSeqINSt7__cxx1112regex_traitsIcEEEESaIS5_EE17_M_initialize_mapEm
FN:720,_ZNSt11_Deque_baseINSt8__detail9_StateSeqINSt7__cxx1112regex_traitsIcEEEESaIS5_EE15_M_create_nodesEPPS5_S9_
FN:720,_ZNSt11_Deque_baseIlSaIlEE15_M_create_nodesEPPlS3_
FN:738,_ZNSt11_Deque_baseINSt8__detail9_StateSeqINSt7__cxx1112regex_traitsIcEEEESaIS5_EE16_M_destroy_nodesEPPS5_S9_
FN:738,_ZNSt11_Deque_baseIlSaIlEE16_M_destroy_nodesEPPlS3_
FN:888,_ZNSt5dequeIlSaIlEEC2Ev
FN:888,_ZNSt5dequeINSt8__detail9_StateSeqINSt7__cxx1112regex_traitsIcEEEESaIS5_EEC2Ev
FN:1044,_ZNSt5dequeIlSaIlEED2Ev
FN:1044,_ZNSt5dequeINSt8__detail9_StateSeqINSt7__cxx1112regex_traitsIcEEEESaIS5_EED2Ev
FN:1166,_ZNSt5dequeINSt8__detail9_StateSeqINSt7__cxx1112regex_traitsIcEEEESaIS5_EE5beginEv
FN:1166,_ZNSt5dequeIlSaIlEE5beginEv
FN:1183,_ZNSt5dequeIlSaIlEE3endEv
FN:1183,_ZNSt5dequeINSt8__detail9_StateSeqINSt7__cxx1112regex_traitsIcEEEESaIS5_EE3endEv
FN:1357,_ZNKSt5dequeIlSaIlEE5emptyEv
FN:1357,_ZNKSt5dequeINSt8__detail9_StateSeqINSt7__cxx1112regex_traitsIcEEEESaIS5_EE5emptyEv
FN:1473,_ZNSt5dequeIlSaIlEE4backEv
FN:1473,_ZNSt5dequeINSt8__detail9_StateSeqINSt7__cxx1112regex_traitsIcEEEESaIS5_EE4backEv
FN:1542,_ZNSt5dequeIlSaIlEE9push_backERKl
FN:1542,_ZNSt5dequeINSt8__detail9_StateSeqINSt7__cxx1112regex_traitsIcEEEESaIS5_EE9push_backERKS5_
FN:1557,_ZNSt5dequeINSt8__detail9_StateSeqINSt7__cxx1112regex_traitsIcEEEESaIS5_EE9push_backEOS5_
FN:1601,_ZNSt5dequeINSt8__detail9_StateSeqINSt7__cxx1112regex_traitsIcEEEESaIS5_EE8pop_backEv
FN:1601,_ZNSt5dequeIlSaIlEE8pop_backEv
FN:2068,_ZNSt5dequeINSt8__detail9_StateSeqINSt7__cxx1112regex_traitsIcEEEESaIS5_EE15_M_destroy_dataESt15_Deque_iteratorIS5_RS5_PS5_ESB_RKS6_
FN:2068,_ZNSt5dequeIlSaIlEE15_M_destroy_dataESt15_Deque_iteratorIlRlPlES5_RKS0_
FN:2149,_ZNSt5dequeIlSaIlEE22_M_reserve_map_at_backEm
FN:2149,_ZNSt5dequeINSt8__detail9_StateSeqINSt7__cxx1112regex_traitsIcEEEESaIS5_EE22_M_reserve_map_at_backEm
FNDA:15162,_ZSt16__deque_buf_sizem
FNDA:400,_ZNSt15_Deque_iteratorIlRlPlE14_S_buffer_sizeEv
FNDA:4654,_ZNSt15_Deque_iteratorINSt8__detail9_StateSeqINSt7__cxx1112regex_traitsIcEEEERS5_PS5_E14_S_buffer_sizeEv
FNDA:400,_ZNSt15_Deque_iteratorIlRlPlEC2Ev
FNDA:4654,_ZNSt15_Deque_iteratorINSt8__detail9_StateSeqINSt7__cxx1112regex_traitsIcEEEERS5_PS5_EC2Ev
FNDA:620,_ZNSt15_Deque_iteratorIlRlPlEC2ERKS2_
FNDA:38391,_ZNSt15_Deque_iteratorINSt8__detail9_StateSeqINSt7__cxx1112regex_traitsIcEEEERS5_PS5_EC2ERKS8_
FNDA:220,_ZNKSt15_Deque_iteratorIlRlPlEdeEv
FNDA:33737,_ZNKSt15_Deque_iteratorINSt8__detail9_StateSeqINSt7__cxx1112regex_traitsIcEEEERS5_PS5_EdeEv
FNDA:220,_ZNSt15_Deque_iteratorIlRlPlEmmEv
FNDA:33737,_ZNSt15_Deque_iteratorINSt8__detail9_StateSeqINSt7__cxx1112regex_traitsIcEEEERS5_PS5_EmmEv
FNDA:400,_ZNSt15_Deque_iteratorIlRlPlE11_M_set_nodeEPS1_
FNDA:4654,_ZNSt15_Deque_iteratorINSt8__detail9_StateSeqINSt7__cxx1112regex_traitsIcEEEERS5_PS5_E11_M_set_nodeEPS7_
FNDA:420,_ZSteqIlRlPlEbRKSt15_Deque_iteratorIT_T0_T1_ES8_
FNDA:96,_ZSteqINSt8__detail9_StateSeqINSt7__cxx1112regex_traitsIcEEEERS5_PS5_EbRKSt15_Deque_iteratorIT_T0_T1_ESE_
FNDA:200,_ZNSt11_Deque_baseIlSaIlEEC2Ev
FNDA:2327,_ZNSt11_Deque_baseINSt8__detail9_StateSeqINSt7__cxx1112regex_traitsIcEEEESaIS5_EEC2Ev
FNDA:200,_ZNSt11_Deque_baseIlSaIlEE11_Deque_implD2Ev
FNDA:2327,_ZNSt11_Deque_baseINSt8__detail9_StateSeqINSt7__cxx1112regex_traitsIcEEEESaIS5_EE11_Deque_implD2Ev
FNDA:200,_ZNSt11_Deque_baseIlSaIlEE11_Deque_implC2Ev
FNDA:2327,_ZNSt11_Deque_baseINSt8__detail9_StateSeqINSt7__cxx1112regex_traitsIcEEEESaIS5_EE11_Deque_implC2Ev
FNDA:200,_ZNSt11_Deque_baseIlSaIlEE19_M_get_Tp_allocatorEv
FNDA:2327,_ZNSt11_Deque_baseINSt8__detail9_StateSeqINSt7__cxx1112regex_traitsIcEEEESaIS5_EE19_M_get_Tp_allocatorEv
FNDA:400,_ZNKSt11_Deque_baseIlSaIlEE19_M_get_Tp_allocatorEv
FNDA:4654,_ZNKSt11_Deque_baseINSt8__detail9_StateSeqINSt7__cxx1112regex_traitsIcEEEESaIS5_EE19_M_get_Tp_allocatorEv
FNDA:400,_ZNKSt11_Deque_baseIlSaIlEE20_M_get_map_allocatorEv
FNDA:4654,_ZNKSt11_Deque_baseINSt8__detail9_StateSeqINSt7__cxx1112regex_traitsIcEEEESaIS5_EE20_M_get_map_allocatorEv
FNDA:200,_ZNSt11_Deque_baseIlSaIlEE16_M_allocate_nodeEv
FNDA:2327,_ZNSt11_Deque_baseINSt8__detail9_StateSeqINSt7__cxx1112regex_traitsIcEEEESaIS5_EE16_M_allocate_nodeEv
FNDA:200,_ZNSt11_Deque_baseIlSaIlEE18_M_deallocate_nodeEPl
FNDA:2327,_ZNSt11_Deque_baseINSt8__detail9_StateSeqINSt7__cxx1112regex_traitsIcEEEESaIS5_EE18_M_deallocate_nodeEPS5_
FNDA:200,_ZNSt11_Deque_baseIlSaIlEE15_M_allocate_mapEm
FNDA:2327,_ZNSt11_Deque_baseINSt8__detail9_StateSeqINSt7__cxx1112regex_traitsIcEEEESaIS5_EE15_M_allocate_mapEm
FNDA:200,_ZNSt11_Deque_baseIlSaIlEE17_M_deallocate_mapEPPlm
FNDA:2327,_ZNSt11_Deque_baseINSt8__detail9_StateSeqINSt7__cxx1112regex_traitsIcEEEESaIS5_EE17_M_deallocate_mapEPPS5_m
FNDA:200,_ZNSt11_Deque_baseIlSaIlEED2Ev
FNDA:2327,_ZNSt11_Deque_baseINSt8__detail9_StateSeqINSt7__cxx1112regex_traitsIcEEEESaIS5_EED2Ev
FNDA:200,_ZNSt11_Deque_baseIlSaIlEE17_M_initialize_mapEm
FNDA:2327,_ZNSt11_Deque_baseINSt8__detail9_StateSeqINSt7__cxx1112regex_traitsIcEEEESaIS5_EE17_M_initialize_mapEm
FNDA:200,_ZNSt11_Deque_baseIlSaIlEE15_M_create_nodesEPPlS3_
FNDA:2327,_ZNSt11_Deque_baseINSt8__detail9_StateSeqINSt7__cxx1112regex_traitsIcEEEESaIS5_EE15_M_create_nodesEPPS5_S9_
FNDA:200,_ZNSt11_Deque_baseIlSaIlEE16_M_destroy_nodesEPPlS3_
FNDA:2327,_ZNSt11_Deque_baseINSt8__detail9_StateSeqINSt7__cxx1112regex_traitsIcEEEESaIS5_EE16_M_destroy_nodesEPPS5_S9_
FNDA:200,_ZNSt5dequeIlSaIlEEC2Ev
FNDA:2327,_ZNSt5dequeINSt8__detail9_StateSeqINSt7__cxx1112regex_traitsIcEEEESaIS5_EEC2Ev
FNDA:200,_ZNSt5dequeIlSaIlEED2Ev
FNDA:2327,_ZNSt5dequeINSt8__detail9_StateSeqINSt7__cxx1112regex_traitsIcEEEESaIS5_EED2Ev
FNDA:200,_ZNSt5dequeIlSaIlEE5beginEv
FNDA:2327,_ZNSt5dequeINSt8__detail9_StateSeqINSt7__cxx1112regex_traitsIcEEEESaIS5_EE5beginEv
FNDA:420,_ZNSt5dequeIlSaIlEE3endEv
FNDA:36064,_ZNSt5dequeINSt8__detail9_StateSeqINSt7__cxx1112regex_traitsIcEEEESaIS5_EE3endEv
FNDA:420,_ZNKSt5dequeIlSaIlEE5emptyEv
FNDA:96,_ZNKSt5dequeINSt8__detail9_StateSeqINSt7__cxx1112regex_traitsIcEEEESaIS5_EE5emptyEv
FNDA:220,_ZNSt5dequeIlSaIlEE4backEv
FNDA:33737,_ZNSt5dequeINSt8__detail9_StateSeqINSt7__cxx1112regex_traitsIcEEEESaIS5_EE4backEv
FNDA:220,_ZNSt5dequeIlSaIlEE9push_backERKl
FNDA:12925,_ZNSt5dequeINSt8__detail9_StateSeqINSt7__cxx1112regex_traitsIcEEEESaIS5_EE9push_backERKS5_
FNDA:20812,_ZNSt5dequeINSt8__detail9_StateSeqINSt7__cxx1112regex_traitsIcEEEESaIS5_EE9push_backEOS5_
FNDA:220,_ZNSt5dequeIlSaIlEE8pop_backEv
FNDA:33737,_ZNSt5dequeINSt8__detail9_StateSeqINSt7__cxx1112regex_traitsIcEEEESaIS5_EE8pop_backEv
FNDA:200,_ZNSt5dequeIlSaIlEE15_M_destroy_dataESt15_Deque_iteratorIlRlPlES5_RKS0_
FNDA:2327,_ZNSt5dequeINSt8__detail9_StateSeqINSt7__cxx1112regex_traitsIcEEEESaIS5_EE15_M_destroy_dataESt15_Deque_iteratorIS5_RS5_PS5_ESB_RKS6_
FNDA:0,_ZNSt5dequeIlSaIlEE22_M_reserve_map_at_backEm
FNDA:0,_ZNSt5dequeINSt8__detail9_StateSeqINSt7__cxx1112regex_traitsIcEEEESaIS5_EE22_M_reserve_map_at_backEm
FNF:64
FNH:62
DA:91,15162
DA:93,15162
DA:128,5054
DA:129,5054
DA:148,5054
DA:149,5054
DA:151,39011
DA:152,78022
DA:153,78022
DA:160,33957
DA:161,33957
DA:188,33957
DA:190,33957
DA:192,0
DA:193,0
DA:195,33957
DA:196,33957
DA:254,5054
DA:256,5054
DA:257,5054
DA:258,5054
DA:259,5054
DA:267,516
DA:269,516
DA:490,2527
DA:491,2527
DA:492,2527
DA:549,2527
DA:557,2527
DA:559,2527
DA:560,2527
DA:587,2527
DA:588,2527
DA:591,5054
DA:592,5054
DA:595,5054
DA:596,5054
DA:599,2527
DA:602,2527
DA:606,2527
DA:609,2527
DA:610,2527
DA:613,2527
DA:615,5054
DA:616,5054
DA:620,2527
DA:622,5054
DA:623,2527
DA:624,2527
DA:660,2527
DA:663,2527
DA:665,2527
DA:666,2527
DA:667,2527
DA:669,2527
DA:681,2527
DA:684,2527
DA:687,2527
DA:688,5054
DA:689,2527
DA:696,5054
DA:697,2527
DA:698,2527
DA:701,2527
DA:702,0
DA:704,0
DA:705,0
DA:706,0
DA:707,0
DA:710,2527
DA:711,2527
DA:712,2527
DA:713,5054
DA:714,2527
DA:715,2527
DA:716,2527
DA:720,2527
DA:726,5054
DA:727,2527
DA:729,0
DA:731,0
DA:732,0
DA:734,2527
DA:738,2527
DA:742,5054
DA:743,2527
DA:744,2527
DA:888,2527
DA:1044,2527
DA:1045,2527
DA:1166,2527
DA:1167,2527
DA:1183,36484
DA:1184,36484
DA:1357,516
DA:1358,516
DA:1473,33957
DA:1476,33957
DA:1477,33957
DA:1478,33957
DA:1542,13145
DA:1544,26290
DA:1545,13145
DA:1547,13145
DA:1549,13145
DA:1552,0
DA:1553,13145
DA:1557,20812
DA:1558,20812
DA:1601,33957
DA:1604,67914
DA:1605,33957
DA:1607,33957
DA:1608,33957
DA:1612,0
DA:1613,33957
DA:2068,2527
DA:2073,2527
DA:2149,0
DA:2151,0
DA:2152,0
DA:2153,0
DA:2154,0
LF:123
LH:106
end_of_record
SF:/usr/include/c++/7/bits/stl_function.h
FN:385,_ZNKSt4lessINSt7__cxx1112basic_stringIcSt11char_traitsIcESaIcEEEEclERKS5_S8_
FN:385,_ZNKSt4lessIlEclERKlS2_
FN:890,_ZNKSt10_Select1stISt4pairIKNSt7__cxx1112basic_stringIcSt11char_traitsIcESaIcEEES6_EEclERKS8_
FN:890,_ZNKSt10_Select1stISt4pairIKllEEclERKS2_
FNDA:560,_ZNKSt4lessIlEclERKlS2_
FNDA:0,_ZNKSt4lessINSt7__cxx1112basic_stringIcSt11char_traitsIcESaIcEEEEclERKS5_S8_
FNDA:420,_ZNKSt10_Select1stISt4pairIKllEEclERKS2_
FNDA:2534,_ZNKSt10_Select1stISt4pairIKNSt7__cxx1112basic_stringIcSt11char_traitsIcESaIcEEES6_EEclERKS8_
FNF:4
FNH:3
DA:385,560
DA:386,560
DA:890,2954
DA:891,2954
LF:4
LH:4
end_of_record
SF:/usr/include/c++/7/bits/stl_heap.h
FN:128,_ZSt11__push_heapIN9__gnu_cxx17__normal_iteratorIPcSt6vectorIcSaIcEEEElcNS0_5__ops14_Iter_less_valEEvT_T0_SA_T1_RT2_
FN:214,_ZSt13__adjust_heapIN9__gnu_cxx17__normal_iteratorIPcSt6vectorIcSaIcEEEElcNS0_5__ops15_Iter_less_iterEEvT_T0_SA_T1_T2_
FN:243,_ZSt10__pop_heapIN9__gnu_cxx17__normal_iteratorIPcSt6vectorIcSaIcEEEENS0_5__ops15_Iter_less_iterEEvT_S9_S9_RT0_
FN:326,_ZSt11__make_heapIN9__gnu_cxx17__normal_iteratorIPcSt6vectorIcSaIcEEEENS0_5__ops15_Iter_less_iterEEvT_S9_RT0_
FN:402,_ZSt11__sort_heapIN9__gnu_cxx17__normal_iteratorIPcSt6vectorIcSaIcEEEENS0_5__ops15_Iter_less_iterEEvT_S9_RT0_
FNDA:0,_ZSt11__push_heapIN9__gnu_cxx17__normal_iteratorIPcSt6vectorIcSaIcEEEElcNS0_5__ops14_Iter_less_valEEvT_T0_SA_T1_RT2_
FNDA:0,_ZSt13__adjust_heapIN9__gnu_cxx17__normal_iteratorIPcSt6vectorIcSaIcEEEElcNS0_5__ops15_Iter_less_iterEEvT_T0_SA_T1_T2_
FNDA:0,_ZSt10__pop_heapIN9__gnu_cxx17__normal_iteratorIPcSt6vectorIcSaIcEEEENS0_5__ops15_Iter_less_iterEEvT_S9_S9_RT0_
FNDA:0,_ZSt11__make_heapIN9__gnu_cxx17__normal_iteratorIPcSt6vectorIcSaIcEEEENS0_5__ops15_Iter_less_iterEEvT_S9_RT0_
FNDA:0,_ZSt11__sort_heapIN9__gnu_cxx17__normal_iteratorIPcSt6vectorIcSaIcEEEENS0_5__ops15_Iter_less_iterEEvT_S9_RT0_
FNF:5
FNH:0
DA:128,0
DA:132,0
DA:133,0
DA:135,0
DA:136,0
DA:137,0
DA:139,0
DA:140,0
DA:214,0
DA:217,0
DA:218,0
DA:219,0
DA:221,0
DA:222,0
DA:224,0
DA:225,0
DA:226,0
DA:228,0
DA:230,0
DA:231,0
DA:233,0
DA:236,0
DA:237,0
DA:238,0
DA:239,0
DA:243,0
DA:251,0
DA:252,0
DA:253,0
DA:254,0
DA:255,0
DA:256,0
DA:326,0
DA:334,0
DA:335,0
DA:337,0
DA:338,0
DA:339,0
DA:341,0
DA:342,0
DA:344,0
DA:345,0
DA:346,0
DA:402,0
DA:405,0
DA:407,0
DA:408,0
DA:410,0
LF:48
LH:0
end_of_record
SF:/usr/include/c++/7/bits/stl_iterator.h
FN:132,_ZNSt16reverse_iteratorISt17_Rb_tree_iteratorISt4pairIKNSt7__cxx1112basic_stringIcSt11char_traitsIcESaIcEEES7_EEEC2ESA_
FN:138,_ZNSt16reverse_iteratorISt17_Rb_tree_iteratorISt4pairIKNSt7__cxx1112basic_stringIcSt11char_traitsIcESaIcEEES7_EEEC2ERKSB_
FN:154,_ZNKSt16reverse_iteratorISt17_Rb_tree_iteratorISt4pairIKNSt7__cxx1112basic_stringIcSt11char_traitsIcESaIcEEES7_EEE4baseEv
FN:168,_ZNKSt16reverse_iteratorISt17_Rb_tree_iteratorISt4pairIKNSt7__cxx1112basic_stringIcSt11char_traitsIcESaIcEEES7_EEEdeEv
FN:180,_ZNKSt16reverse_iteratorISt17_Rb_tree_iteratorISt4pairIKNSt7__cxx1112basic_stringIcSt11char_traitsIcESaIcEEES7_EEEptEv
FN:201,_ZNSt16reverse_iteratorISt17_Rb_tree_iteratorISt4pairIKNSt7__cxx1112basic_stringIcSt11char_traitsIcESaIcEEES7_EEEppEi
FN:299,_ZSteqISt17_Rb_tree_iteratorISt4pairIKNSt7__cxx1112basic_stringIcSt11char_traitsIcESaIcEEES7_EEEbRKSt16reverse_iteratorIT_ESF_
FN:311,_ZStneISt17_Rb_tree_iteratorISt4pairIKNSt7__cxx1112basic_stringIcSt11char_traitsIcESaIcEEES7_EEEbRKSt16reverse_iteratorIT_ESF_
FN:775,_ZN9__gnu_cxx17__normal_iteratorIPKcNSt7__cxx1112basic_stringIcSt11char_traitsIcESaIcEEEEC2Ev
FN:779,_ZN9__gnu_cxx17__normal_iteratorIPNSt7__cxx1112basic_stringIcSt11char_traitsIcESaIcEEESt6vectorIS6_SaIS6_EEEC2ERKS7_
FN:779,_ZN9__gnu_cxx17__normal_iteratorIPmSt6vectorImSaImEEEC2ERKS1_
FN:779,_ZN9__gnu_cxx17__normal_iteratorIPSt4pairIccESt6vectorIS2_SaIS2_EEEC2ERKS3_
FN:779,_ZN9__gnu_cxx17__normal_iteratorIPNSt7__cxx119sub_matchINS0_IPKcNS1_12basic_stringIcSt11char_traitsIcESaIcEEEEEEESt6vectorISB_SaISB_EEEC2ERKSC_
FN:779,_ZN9__gnu_cxx17__normal_iteratorIPKcNSt7__cxx1112basic_stringIcSt11char_traitsIcESaIcEEEEC2ERKS2_
FN:779,_ZN9__gnu_cxx17__normal_iteratorIPKSt4pairIlSt6vectorINSt7__cxx119sub_matchINS0_IPKcNS3_12basic_stringIcSt11char_traitsIcESaIcEEEEEEESaISD_EEES2_ISG_SaISG_EEEC2ERKSI_
FN:779,_ZN9__gnu_cxx17__normal_iteratorIPKSt4pairINSt7__cxx1112basic_stringIcSt11char_traitsIcESaIcEEES7_ESt6vectorIS8_SaIS8_EEEC2ERKSA_
FN:779,_ZN9__gnu_cxx17__normal_iteratorIPKNSt7__cxx119sub_matchINS0_IPKcNS1_12basic_stringIcSt11char_traitsIcESaIcEEEEEEESt6vectorISB_SaISB_EEEC2ERKSD_
FN:779,_ZN9__gnu_cxx17__normal_iteratorIPSt4pairIlSt6vectorINSt7__cxx119sub_matchINS0_IPKcNS3_12basic_stringIcSt11char_traitsIcESaIcEEEEEEESaISD_EEES2_ISG_SaISG_EEEC2ERKSH_
FN:779,_ZN9__gnu_cxx17__normal_iteratorIPSt4pairINSt7__cxx1112basic_stringIcSt11char_traitsIcESaIcEEES7_ESt6vectorIS8_SaIS8_EEEC2ERKS9_
FN:779,_ZN9__gnu_cxx17__normal_iteratorIPNSt7__cxx1112regex_traitsIcE10_RegexMaskESt6vectorIS4_SaIS4_EEEC2ERKS5_
FN:779,_ZN9__gnu_cxx17__normal_iteratorIPKSt4pairIccESt6vectorIS2_SaIS2_EEEC2ERKS4_
FN:779,_ZN9__gnu_cxx17__normal_iteratorIPcSt6vectorIcSaIcEEEC2ERKS1_
FN:779,_ZN9__gnu_cxx17__normal_iteratorIPKNSt7__cxx1112regex_traitsIcE10_RegexMaskESt6vectorIS4_SaIS4_EEEC2ERKS6_
FN:779,_ZN9__gnu_cxx17__normal_iteratorIPNSt8__detail6_StateIcEESt6vectorIS3_SaIS3_EEEC2ERKS4_
FN:779,_ZN9__gnu_cxx17__normal_iteratorIPKcSt6vectorIcSaIcEEEC2ERKS2_
FN:779,_ZN9__gnu_cxx17__normal_iteratorIPKNSt7__cxx1112basic_stringIcSt11char_traitsIcESaIcEEESt6vectorIS6_SaIS6_EEEC2ERKS8_
FN:784,_ZN9__gnu_cxx17__normal_iteratorIPKcSt6vectorIcSaIcEEEC2IPcEERKNS0_IT_NS_11__enable_ifIXsrSt10__are_sameIS9_S8_E7__valueES5_E6__typeEEE
FN:792,_ZNK9__gnu_cxx17__normal_iteratorIPKSt4pairINSt7__cxx1112basic_stringIcSt11char_traitsIcESaIcEEES7_ESt6vectorIS8_SaIS8_EEEdeEv
FN:792,_ZNK9__gnu_cxx17__normal_iteratorIPKNSt7__cxx1112basic_stringIcSt11char_traitsIcESaIcEEESt6vectorIS6_SaIS6_EEEdeEv
FN:792,_ZNK9__gnu_cxx17__normal_iteratorIPKSt4pairIccESt6vectorIS2_SaIS2_EEEdeEv
FN:792,_ZNK9__gnu_cxx17__normal_iteratorIPcSt6vectorIcSaIcEEEdeEv
FN:792,_ZNK9__gnu_cxx17__normal_iteratorIPKNSt7__cxx119sub_matchINS0_IPKcNS1_12basic_stringIcSt11char_traitsIcESaIcEEEEEEESt6vectorISB_SaISB_EEEdeEv
FN:792,_ZNK9__gnu_cxx17__normal_iteratorIPmSt6vectorImSaImEEEdeEv
FN:792,_ZNK9__gnu_cxx17__normal_iteratorIPNSt8__detail6_StateIcEESt6vectorIS3_SaIS3_EEEdeEv
FN:792,_ZNK9__gnu_cxx17__normal_iteratorIPNSt7__cxx119sub_matchINS0_IPKcNS1_12basic_stringIcSt11char_traitsIcESaIcEEEEEEESt6vectorISB_SaISB_EEEdeEv
FN:792,_ZNK9__gnu_cxx17__normal_iteratorIPKNSt7__cxx1112regex_traitsIcE10_RegexMaskESt6vectorIS4_SaIS4_EEEdeEv
FN:792,_ZNK9__gnu_cxx17__normal_iteratorIPKcSt6vectorIcSaIcEEEdeEv
FN:792,_ZNK9__gnu_cxx17__normal_iteratorIPKcNSt7__cxx1112basic_stringIcSt11char_traitsIcESaIcEEEEdeEv
FN:792,_ZNK9__gnu_cxx17__normal_iteratorIPSt4pairIlSt6vectorINSt7__cxx119sub_matchINS0_IPKcNS3_12basic_stringIcSt11char_traitsIcESaIcEEEEEEESaISD_EEES2_ISG_SaISG_EEEdeEv
FN:792,_ZNK9__gnu_cxx17__normal_iteratorIPNSt7__cxx1112basic_stringIcSt11char_traitsIcESaIcEEESt6vectorIS6_SaIS6_EEEdeEv
FN:800,_ZN9__gnu_cxx17__normal_iteratorIPmSt6vectorImSaImEEEppEv
FN:800,_ZN9__gnu_cxx17__normal_iteratorIPKSt4pairIccESt6vectorIS2_SaIS2_EEEppEv
FN:800,_ZN9__gnu_cxx17__normal_iteratorIPNSt7__cxx119sub_matchINS0_IPKcNS1_12basic_stringIcSt11char_traitsIcESaIcEEEEEEESt6vectorISB_SaISB_EEEppEv
FN:800,_ZN9__gnu_cxx17__normal_iteratorIPNSt7__cxx1112basic_stringIcSt11char_traitsIcESaIcEEESt6vectorIS6_SaIS6_EEEppEv
FN:800,_ZN9__gnu_cxx17__normal_iteratorIPKcNSt7__cxx1112basic_stringIcSt11char_traitsIcESaIcEEEEppEv
FN:800,_ZN9__gnu_cxx17__normal_iteratorIPKSt4pairINSt7__cxx1112basic_stringIcSt11char_traitsIcESaIcEEES7_ESt6vectorIS8_SaIS8_EEEppEv
FN:800,_ZN9__gnu_cxx17__normal_iteratorIPNSt8__detail6_StateIcEESt6vectorIS3_SaIS3_EEEppEv
FN:800,_ZN9__gnu_cxx17__normal_iteratorIPKcSt6vectorIcSaIcEEEppEv
FN:800,_ZN9__gnu_cxx17__normal_iteratorIPSt4pairIlSt6vectorINSt7__cxx119sub_matchINS0_IPKcNS3_12basic_stringIcSt11char_traitsIcESaIcEEEEEEESaISD_EEES2_ISG_SaISG_EEEppEv
FN:800,_ZN9__gnu_cxx17__normal_iteratorIPcSt6vectorIcSaIcEEEppEv
FN:800,_ZN9__gnu_cxx17__normal_iteratorIPKNSt7__cxx1112basic_stringIcSt11char_traitsIcESaIcEEESt6vectorIS6_SaIS6_EEEppEv
FN:800,_ZN9__gnu_cxx17__normal_iteratorIPKNSt7__cxx119sub_matchINS0_IPKcNS1_12basic_stringIcSt11char_traitsIcESaIcEEEEEEESt6vectorISB_SaISB_EEEppEv
FN:800,_ZN9__gnu_cxx17__normal_iteratorIPKNSt7__cxx1112regex_traitsIcE10_RegexMaskESt6vectorIS4_SaIS4_EEEppEv
FN:812,_ZN9__gnu_cxx17__normal_iteratorIPKcNSt7__cxx1112basic_stringIcSt11char_traitsIcESaIcEEEEmmEv
FN:812,_ZN9__gnu_cxx17__normal_iteratorIPcSt6vectorIcSaIcEEEmmEv
FN:828,_ZN9__gnu_cxx17__normal_iteratorIPKcNSt7__cxx1112basic_stringIcSt11char_traitsIcESaIcEEEEpLEl
FN:828,_ZN9__gnu_cxx17__normal_iteratorIPKcSt6vectorIcSaIcEEEpLEl
FN:832,_ZNK9__gnu_cxx17__normal_iteratorIPcSt6vectorIcSaIcEEEplEl
FN:832,_ZNK9__gnu_cxx17__normal_iteratorIPKcNSt7__cxx1112basic_stringIcSt11char_traitsIcESaIcEEEEplEl
FN:840,_ZNK9__gnu_cxx17__normal_iteratorIPcSt6vectorIcSaIcEEEmiEl
FN:840,_ZNK9__gnu_cxx17__normal_iteratorIPmSt6vectorImSaImEEEmiEl
FN:844,_ZNK9__gnu_cxx17__normal_iteratorIPcSt6vectorIcSaIcEEE4baseEv
FN:844,_ZNK9__gnu_cxx17__normal_iteratorIPKSt4pairIlSt6vectorINSt7__cxx119sub_matchINS0_IPKcNS3_12basic_stringIcSt11char_traitsIcESaIcEEEEEEESaISD_EEES2_ISG_SaISG_EEE4baseEv
FN:844,_ZNK9__gnu_cxx17__normal_iteratorIPNSt7__cxx1112basic_stringIcSt11char_traitsIcESaIcEEESt6vectorIS6_SaIS6_EEE4baseEv
FN:844,_ZNK9__gnu_cxx17__normal_iteratorIPmSt6vectorImSaImEEE4baseEv
FN:844,_ZNK9__gnu_cxx17__normal_iteratorIPKcSt6vectorIcSaIcEEE4baseEv
FN:844,_ZNK9__gnu_cxx17__normal_iteratorIPcNSt7__cxx1112basic_stringIcSt11char_traitsIcESaIcEEEE4baseEv
FN:844,_ZNK9__gnu_cxx17__normal_iteratorIPKNSt7__cxx1112basic_stringIcSt11char_traitsIcESaIcEEESt6vectorIS6_SaIS6_EEE4baseEv
FN:844,_ZNK9__gnu_cxx17__normal_iteratorIPKNSt7__cxx119sub_matchINS0_IPKcNS1_12basic_stringIcSt11char_traitsIcESaIcEEEEEEESt6vectorISB_SaISB_EEE4baseEv
FN:844,_ZNK9__gnu_cxx17__normal_iteratorIPSt4pairIccESt6vectorIS2_SaIS2_EEE4baseEv
FN:844,_ZNK9__gnu_cxx17__normal_iteratorIPNSt7__cxx119sub_matchINS0_IPKcNS1_12basic_stringIcSt11char_traitsIcESaIcEEEEEEESt6vectorISB_SaISB_EEE4baseEv
FN:844,_ZNK9__gnu_cxx17__normal_iteratorIPKSt4pairIccESt6vectorIS2_SaIS2_EEE4baseEv
FN:844,_ZNK9__gnu_cxx17__normal_iteratorIPSt4pairINSt7__cxx1112basic_stringIcSt11char_traitsIcESaIcEEES7_ESt6vectorIS8_SaIS8_EEE4baseEv
FN:844,_ZNK9__gnu_cxx17__normal_iteratorIPNSt7__cxx1112regex_traitsIcE10_RegexMaskESt6vectorIS4_SaIS4_EEE4baseEv
FN:844,_ZNK9__gnu_cxx17__normal_iteratorIPKNSt7__cxx1112regex_traitsIcE10_RegexMaskESt6vectorIS4_SaIS4_EEE4baseEv
FN:844,_ZNK9__gnu_cxx17__normal_iteratorIPKSt4pairINSt7__cxx1112basic_stringIcSt11char_traitsIcESaIcEEES7_ESt6vectorIS8_SaIS8_EEE4baseEv
FN:844,_ZNK9__gnu_cxx17__normal_iteratorIPKcNSt7__cxx1112basic_stringIcSt11char_traitsIcESaIcEEEE4baseEv
FN:844,_ZNK9__gnu_cxx17__normal_iteratorIPSt4pairIlSt6vectorINSt7__cxx119sub_matchINS0_IPKcNS3_12basic_stringIcSt11char_traitsIcESaIcEEEEEEESaISD_EEES2_ISG_SaISG_EEE4baseEv
FN:844,_ZNK9__gnu_cxx17__normal_iteratorIPNSt8__detail6_StateIcEESt6vectorIS3_SaIS3_EEE4baseEv
FN:866,_ZN9__gnu_cxxeqIPKNSt7__cxx119sub_matchINS_17__normal_iteratorIPKcNS1_12basic_stringIcSt11char_traitsIcESaIcEEEEEEESt6vectorISC_SaISC_EEEEbRKNS3_IT_T0_EESM_
FN:866,_ZN9__gnu_cxxeqIPcSt6vectorIcSaIcEEEEbRKNS_17__normal_iteratorIT_T0_EESA_
FN:866,_ZN9__gnu_cxxeqIPKSt4pairIlSt6vectorINSt7__cxx119sub_matchINS_17__normal_iteratorIPKcNS3_12basic_stringIcSt11char_traitsIcESaIcEEEEEEESaISE_EEES2_ISH_SaISH_EEEEbRKNS5_IT_T0_EESQ_
FN:866,_ZN9__gnu_cxxeqIPKcNSt7__cxx1112basic_stringIcSt11char_traitsIcESaIcEEEEEbRKNS_17__normal_iteratorIT_T0_EESE_
FN:880,_ZN9__gnu_cxxneIPmSt6vectorImSaImEEEEbRKNS_17__normal_iteratorIT_T0_EESA_
FN:880,_ZN9__gnu_cxxneIPKSt4pairINSt7__cxx1112basic_stringIcSt11char_traitsIcESaIcEEES7_ESt6vectorIS8_SaIS8_EEEEbRKNS_17__normal_iteratorIT_T0_EESJ_
FN:880,_ZN9__gnu_cxxneIPKNSt7__cxx1112regex_traitsIcE10_RegexMaskESt6vectorIS4_SaIS4_EEEEbRKNS_17__normal_iteratorIT_T0_EESF_
FN:880,_ZN9__gnu_cxxneIPcSt6vectorIcSaIcEEEEbRKNS_17__normal_iteratorIT_T0_EESA_
FN:880,_ZN9__gnu_cxxneIPKNSt7__cxx1112basic_stringIcSt11char_traitsIcESaIcEEESt6vectorIS6_SaIS6_EEEEbRKNS_17__normal_iteratorIT_T0_EESH_
FN:880,_ZN9__gnu_cxxneIPcNSt7__cxx1112basic_stringIcSt11char_traitsIcESaIcEEEEEbRKNS_17__normal_iteratorIT_T0_EESD_
FN:880,_ZN9__gnu_cxxneIPKcNSt7__cxx1112basic_stringIcSt11char_traitsIcESaIcEEEEEbRKNS_17__normal_iteratorIT_T0_EESE_
FN:880,_ZN9__gnu_cxxneIPNSt7__cxx119sub_matchINS_17__normal_iteratorIPKcNS1_12basic_stringIcSt11char_traitsIcESaIcEEEEEEESt6vectorISC_SaISC_EEEEbRKNS3_IT_T0_EESL_
FN:880,_ZN9__gnu_cxxneIPNSt8__detail6_StateIcEESt6vectorIS3_SaIS3_EEEEbRKNS_17__normal_iteratorIT_T0_EESD_
FN:880,_ZN9__gnu_cxxneIPKNSt7__cxx119sub_matchINS_17__normal_iteratorIPKcNS1_12basic_stringIcSt11char_traitsIcESaIcEEEEEEESt6vectorISC_SaISC_EEEEbRKNS3_IT_T0_EESM_
FN:880,_ZN9__gnu_cxxneIPKcSt6vectorIcSaIcEEEEbRKNS_17__normal_iteratorIT_T0_EESB_
FN:880,_ZN9__gnu_cxxneIPNSt7__cxx1112basic_stringIcSt11char_traitsIcESaIcEEESt6vectorIS6_SaIS6_EEEEbRKNS_17__normal_iteratorIT_T0_EESG_
FN:880,_ZN9__gnu_cxxneIPSt4pairIlSt6vectorINSt7__cxx119sub_matchINS_17__normal_iteratorIPKcNS3_12basic_stringIcSt11char_traitsIcESaIcEEEEEEESaISE_EEES2_ISH_SaISH_EEEEbRKNS5_IT_T0_EESP_
FN:880,_ZN9__gnu_cxxneIPKSt4pairIccESt6vectorIS2_SaIS2_EEEEbRKNS_17__normal_iteratorIT_T0_EESD_
FN:895,_ZN9__gnu_cxxltIPcSt6vectorIcSaIcEEEEbRKNS_17__normal_iteratorIT_T0_EESA_
FN:962,_ZN9__gnu_cxxmiIPcNSt7__cxx1112basic_stringIcSt11char_traitsIcESaIcEEEEENS_17__normal_iteratorIT_T0_E15difference_typeERKSB_SE_
FN:962,_ZN9__gnu_cxxmiIPSt4pairIlSt6vectorINSt7__cxx119sub_matchINS_17__normal_iteratorIPKcNS3_12basic_stringIcSt11char_traitsIcESaIcEEEEEEESaISE_EEES2_ISH_SaISH_EEEENS5_IT_T0_E15difference_typeERKSN_SQ_
FN:962,_ZN9__gnu_cxxmiIPSt4pairINSt7__cxx1112basic_stringIcSt11char_traitsIcESaIcEEES7_ESt6vectorIS8_SaIS8_EEEENS_17__normal_iteratorIT_T0_E15difference_typeERKSG_SJ_
FN:962,_ZN9__gnu_cxxmiIPSt4pairIccESt6vectorIS2_SaIS2_EEEENS_17__normal_iteratorIT_T0_E15difference_typeERKSA_SD_
FN:962,_ZN9__gnu_cxxmiIPNSt8__detail6_StateIcEESt6vectorIS3_SaIS3_EEEENS_17__normal_iteratorIT_T0_E15difference_typeERKSB_SE_
FN:962,_ZN9__gnu_cxxmiIPKcSt6vectorIcSaIcEEEENS_17__normal_iteratorIT_T0_E15difference_typeERKS9_SC_
FN:962,_ZN9__gnu_cxxmiIPNSt7__cxx1112regex_traitsIcE10_RegexMaskESt6vectorIS4_SaIS4_EEEENS_17__normal_iteratorIT_T0_E15difference_typeERKSC_SF_
FN:962,_ZN9__gnu_cxxmiIPKNSt7__cxx1112basic_stringIcSt11char_traitsIcESaIcEEESt6vectorIS6_SaIS6_EEEENS_17__normal_iteratorIT_T0_E15difference_typeERKSF_SI_
FN:962,_ZN9__gnu_cxxmiIPmSt6vectorImSaImEEEENS_17__normal_iteratorIT_T0_E15difference_typeERKS8_SB_
FN:962,_ZN9__gnu_cxxmiIPNSt7__cxx1112basic_stringIcSt11char_traitsIcESaIcEEESt6vectorIS6_SaIS6_EEEENS_17__normal_iteratorIT_T0_E15difference_typeERKSE_SH_
FN:962,_ZN9__gnu_cxxmiIPKcNSt7__cxx1112basic_stringIcSt11char_traitsIcESaIcEEEEENS_17__normal_iteratorIT_T0_E15difference_typeERKSC_SF_
FN:962,_ZN9__gnu_cxxmiIPcSt6vectorIcSaIcEEEENS_17__normal_iteratorIT_T0_E15difference_typeERKS8_SB_
FN:983,_ZSt12__niter_baseIPKcSt6vectorIcSaIcEEET_N9__gnu_cxx17__normal_iteratorIS5_T0_EE
FN:983,_ZSt12__niter_baseIPKNSt7__cxx119sub_matchIN9__gnu_cxx17__normal_iteratorIPKcNS0_12basic_stringIcSt11char_traitsIcESaIcEEEEEEESt6vectorISC_SaISC_EEET_NS3_ISI_T0_EE
FN:983,_ZSt12__niter_baseIPNSt7__cxx119sub_matchIN9__gnu_cxx17__normal_iteratorIPKcNS0_12basic_stringIcSt11char_traitsIcESaIcEEEEEEESt6vectorISC_SaISC_EEET_NS3_ISH_T0_EE
FN:983,_ZSt12__niter_baseIPcSt6vectorIcSaIcEEET_N9__gnu_cxx17__normal_iteratorIS4_T0_EE
FN:1036,_ZNSt13move_iteratorIPNSt7__cxx1112basic_stringIcSt11char_traitsIcESaIcEEEEC2ES6_
FN:1036,_ZNSt13move_iteratorIPSt4pairINSt7__cxx1112basic_stringIcSt11char_traitsIcESaIcEEES6_EEC2ES8_
FN:1036,_ZNSt13move_iteratorIPSt4pairIlSt6vectorINSt7__cxx119sub_matchIN9__gnu_cxx17__normal_iteratorIPKcNS2_12basic_stringIcSt11char_traitsIcESaIcEEEEEEESaISE_EEEEC2ESI_
FN:1036,_ZNSt13move_iteratorIPNSt7__cxx119sub_matchIN9__gnu_cxx17__normal_iteratorIPKcNS0_12basic_stringIcSt11char_traitsIcESaIcEEEEEEEEC2ESD_
FN:1036,_ZNSt13move_iteratorIPNSt7__cxx1112regex_traitsIcE10_RegexMaskEEC2ES4_
FN:1036,_ZNSt13move_iteratorIPcEC2ES0_
FN:1036,_ZNSt13move_iteratorIPmEC2ES0_
FN:1036,_ZNSt13move_iteratorIPSt4pairIccEEC2ES2_
FN:1045,_ZNKSt13move_iteratorIPSt4pairINSt7__cxx1112basic_stringIcSt11char_traitsIcESaIcEEES6_EE4baseEv
FN:1045,_ZNKSt13move_iteratorIPSt4pairIccEE4baseEv
FN:1045,_ZNKSt13move_iteratorIPSt4pairIlSt6vectorINSt7__cxx119sub_matchIN9__gnu_cxx17__normal_iteratorIPKcNS2_12basic_stringIcSt11char_traitsIcESaIcEEEEEEESaISE_EEEE4baseEv
FN:1045,_ZNKSt13move_iteratorIPNSt7__cxx1112basic_stringIcSt11char_traitsIcESaIcEEEE4baseEv
FN:1045,_ZNKSt13move_iteratorIPmE4baseEv
FN:1045,_ZNKSt13move_iteratorIPNSt7__cxx119sub_matchIN9__gnu_cxx17__normal_iteratorIPKcNS0_12basic_stringIcSt11char_traitsIcESaIcEEEEEEEE4baseEv
FN:1045,_ZNKSt13move_iteratorIPNSt7__cxx1112regex_traitsIcE10_RegexMaskEE4baseEv
FN:1045,_ZNKSt13move_iteratorIPcE4baseEv
FN:1049,_ZNKSt13move_iteratorIPNSt7__cxx1112regex_traitsIcE10_RegexMaskEEdeEv
FN:1049,_ZNKSt13move_iteratorIPSt4pairIccEEdeEv
FN:1049,_ZNKSt13move_iteratorIPNSt7__cxx1112basic_stringIcSt11char_traitsIcESaIcEEEEdeEv
FN:1049,_ZNKSt13move_iteratorIPNSt7__cxx119sub_matchIN9__gnu_cxx17__normal_iteratorIPKcNS0_12basic_stringIcSt11char_traitsIcESaIcEEEEEEEEdeEv
FN:1049,_ZNKSt13move_iteratorIPSt4pairINSt7__cxx1112basic_stringIcSt11char_traitsIcESaIcEEES6_EEdeEv
FN:1049,_ZNKSt13move_iteratorIPSt4pairIlSt6vectorINSt7__cxx119sub_matchIN9__gnu_cxx17__normal_iteratorIPKcNS2_12basic_stringIcSt11char_traitsIcESaIcEEEEEEESaISE_EEEEdeEv
FN:1057,_ZNSt13move_iteratorIPSt4pairINSt7__cxx1112basic_stringIcSt11char_traitsIcESaIcEEES6_EEppEv
FN:1057,_ZNSt13move_iteratorIPSt4pairIccEEppEv
FN:1057,_ZNSt13move_iteratorIPNSt7__cxx119sub_matchIN9__gnu_cxx17__normal_iteratorIPKcNS0_12basic_stringIcSt11char_traitsIcESaIcEEEEEEEEppEv
FN:1057,_ZNSt13move_iteratorIPNSt7__cxx1112regex_traitsIcE10_RegexMaskEEppEv
FN:1057,_ZNSt13move_iteratorIPNSt7__cxx1112basic_stringIcSt11char_traitsIcESaIcEEEEppEv
FN:1057,_ZNSt13move_iteratorIPSt4pairIlSt6vectorINSt7__cxx119sub_matchIN9__gnu_cxx17__normal_iteratorIPKcNS2_12basic_stringIcSt11char_traitsIcESaIcEEEEEEESaISE_EEEEppEv
FN:1124,_ZSteqIPNSt7__cxx1112regex_traitsIcE10_RegexMaskEEbRKSt13move_iteratorIT_ES9_
FN:1124,_ZSteqIPSt4pairINSt7__cxx1112basic_stringIcSt11char_traitsIcESaIcEEES6_EEbRKSt13move_iteratorIT_ESD_
FN:1124,_ZSteqIPSt4pairIccEEbRKSt13move_iteratorIT_ES7_
FN:1124,_ZSteqIPNSt7__cxx1112basic_stringIcSt11char_traitsIcESaIcEEEEbRKSt13move_iteratorIT_ESB_
FN:1124,_ZSteqIPSt4pairIlSt6vectorINSt7__cxx119sub_matchIN9__gnu_cxx17__normal_iteratorIPKcNS2_12basic_stringIcSt11char_traitsIcESaIcEEEEEEESaISE_EEEEbRKSt13move_iteratorIT_ESN_
FN:1124,_ZSteqIPNSt7__cxx119sub_matchIN9__gnu_cxx17__normal_iteratorIPKcNS0_12basic_stringIcSt11char_traitsIcESaIcEEEEEEEEbRKSt13move_iteratorIT_ESI_
FN:1136,_ZStneIPNSt7__cxx1112regex_traitsIcE10_RegexMaskEEbRKSt13move_iteratorIT_ES9_
FN:1136,_ZStneIPNSt7__cxx119sub_matchIN9__gnu_cxx17__normal_iteratorIPKcNS0_12basic_stringIcSt11char_traitsIcESaIcEEEEEEEEbRKSt13move_iteratorIT_ESI_
FN:1136,_ZStneIPNSt7__cxx1112basic_stringIcSt11char_traitsIcESaIcEEEEbRKSt13move_iteratorIT_ESB_
FN:1136,_ZStneIPSt4pairINSt7__cxx1112basic_stringIcSt11char_traitsIcESaIcEEES6_EEbRKSt13move_iteratorIT_ESD_
FN:1136,_ZStneIPSt4pairIlSt6vectorINSt7__cxx119sub_matchIN9__gnu_cxx17__normal_iteratorIPKcNS2_12basic_stringIcSt11char_traitsIcESaIcEEEEEEESaISE_EEEEbRKSt13move_iteratorIT_ESN_
FN:1136,_ZStneIPSt4pairIccEEbRKSt13move_iteratorIT_ES7_
FN:1221,_ZSt32__make_move_if_noexcept_iteratorINSt7__cxx119sub_matchIN9__gnu_cxx17__normal_iteratorIPKcNS0_12basic_stringIcSt11char_traitsIcESaIcEEEEEEESt13move_iteratorIPSC_EET0_PT_
FN:1221,_ZSt32__make_move_if_noexcept_iteratorINSt7__cxx1112basic_stringIcSt11char_traitsIcESaIcEEESt13move_iteratorIPS5_EET0_PT_
FN:1221,_ZSt32__make_move_if_noexcept_iteratorINSt7__cxx1112regex_traitsIcE10_RegexMaskESt13move_iteratorIPS3_EET0_PT_
FN:1221,_ZSt32__make_move_if_noexcept_iteratorISt4pairIccESt13move_iteratorIPS1_EET0_PT_
FN:1221,_ZSt32__make_move_if_noexcept_iteratorINSt8__detail6_StateIcEEPKS2_ET0_PT_
FN:1221,_ZSt32__make_move_if_noexcept_iteratorIcSt13move_iteratorIPcEET0_PT_
FN:1221,_ZSt32__make_move_if_noexcept_iteratorISt4pairIlSt6vectorINSt7__cxx119sub_matchIN9__gnu_cxx17__normal_iteratorIPKcNS2_12basic_stringIcSt11char_traitsIcESaIcEEEEEEESaISE_EEESt13move_iteratorIPSH_EET0_PT_
FN:1221,_ZSt32__make_move_if_noexcept_iteratorImSt13move_iteratorIPmEET0_PT_
FN:1221,_ZSt32__make_move_if_noexcept_iteratorISt4pairINSt7__cxx1112basic_stringIcSt11char_traitsIcESaIcEEES6_ESt13move_iteratorIPS7_EET0_PT_
FN:1241,_ZSt12__miter_baseIPmEDTcl12__miter_basecldtfp_4baseEEESt13move_iteratorIT_E
FN:1241,_ZSt12__miter_baseIPcEDTcl12__miter_basecldtfp_4baseEEESt13move_iteratorIT_E
FNDA:312,_ZNSt16reverse_iteratorISt17_Rb_tree_iteratorISt4pairIKNSt7__cxx1112basic_stringIcSt11char_traitsIcESaIcEEES7_EEEC2ESA_
FNDA:288,_ZNSt16reverse_iteratorISt17_Rb_tree_iteratorISt4pairIKNSt7__cxx1112basic_stringIcSt11char_traitsIcESaIcEEES7_EEEC2ERKSB_
FNDA:600,_ZNKSt16reverse_iteratorISt17_Rb_tree_iteratorISt4pairIKNSt7__cxx1112basic_stringIcSt11char_traitsIcESaIcEEES7_EEE4baseEv
FNDA:288,_ZNKSt16reverse_iteratorISt17_Rb_tree_iteratorISt4pairIKNSt7__cxx1112basic_stringIcSt11char_traitsIcESaIcEEES7_EEEdeEv
FNDA:288,_ZNKSt16reverse_iteratorISt17_Rb_tree_iteratorISt4pairIKNSt7__cxx1112basic_stringIcSt11char_traitsIcESaIcEEES7_EEEptEv
FNDA:288,_ZNSt16reverse_iteratorISt17_Rb_tree_iteratorISt4pairIKNSt7__cxx1112basic_stringIcSt11char_traitsIcESaIcEEES7_EEEppEi
FNDA:300,_ZSteqISt17_Rb_tree_iteratorISt4pairIKNSt7__cxx1112basic_stringIcSt11char_traitsIcESaIcEEES7_EEEbRKSt16reverse_iteratorIT_ESF_
FNDA:300,_ZStneISt17_Rb_tree_iteratorISt4pairIKNSt7__cxx1112basic_stringIcSt11char_traitsIcESaIcEEES7_EEEbRKSt16reverse_iteratorIT_ESF_
FNDA:225181,_ZN9__gnu_cxx17__normal_iteratorIPKcNSt7__cxx1112basic_stringIcSt11char_traitsIcESaIcEEEEC2Ev
FNDA:0,_ZN9__gnu_cxx17__normal_iteratorIPSt4pairINSt7__cxx1112basic_stringIcSt11char_traitsIcESaIcEEES7_ESt6vectorIS8_SaIS8_EEEC2ERKS9_
FNDA:0,_ZN9__gnu_cxx17__normal_iteratorIPSt4pairIccESt6vectorIS2_SaIS2_EEEC2ERKS3_
FNDA:0,_ZN9__gnu_cxx17__normal_iteratorIPKSt4pairINSt7__cxx1112basic_stringIcSt11char_traitsIcESaIcEEES7_ESt6vectorIS8_SaIS8_EEEC2ERKSA_
FNDA:1187246,_ZN9__gnu_cxx17__normal_iteratorIPKNSt7__cxx1112regex_traitsIcE10_RegexMaskESt6vectorIS4_SaIS4_EEEC2ERKS6_
FNDA:1784260,_ZN9__gnu_cxx17__normal_iteratorIPKNSt7__cxx1112basic_stringIcSt11char_traitsIcESaIcEEESt6vectorIS6_SaIS6_EEEC2ERKS8_
FNDA:1188926,_ZN9__gnu_cxx17__normal_iteratorIPKSt4pairIccESt6vectorIS2_SaIS2_EEEC2ERKS4_
FNDA:1228093,_ZN9__gnu_cxx17__normal_iteratorIPKcSt6vectorIcSaIcEEEC2ERKS2_
FNDA:0,_ZN9__gnu_cxx17__normal_iteratorIPNSt7__cxx1112regex_traitsIcE10_RegexMaskESt6vectorIS4_SaIS4_EEEC2ERKS5_
FNDA:44353,_ZN9__gnu_cxx17__normal_iteratorIPcSt6vectorIcSaIcEEEC2ERKS1_
FNDA:9528,_ZN9__gnu_cxx17__normal_iteratorIPmSt6vectorImSaImEEEC2ERKS1_
FNDA:0,_ZN9__gnu_cxx17__normal_iteratorIPKSt4pairIlSt6vectorINSt7__cxx119sub_matchINS0_IPKcNS3_12basic_stringIcSt11char_traitsIcESaIcEEEEEEESaISD_EEES2_ISG_SaISG_EEEC2ERKSI_
FNDA:28092,_ZN9__gnu_cxx17__normal_iteratorIPNSt8__detail6_StateIcEESt6vectorIS3_SaIS3_EEEC2ERKS4_
FNDA:0,_ZN9__gnu_cxx17__normal_iteratorIPSt4pairIlSt6vectorINSt7__cxx119sub_matchINS0_IPKcNS3_12basic_stringIcSt11char_traitsIcESaIcEEEEEEESaISD_EEES2_ISG_SaISG_EEEC2ERKSH_
FNDA:213810,_ZN9__gnu_cxx17__normal_iteratorIPKNSt7__cxx119sub_matchINS0_IPKcNS1_12basic_stringIcSt11char_traitsIcESaIcEEEEEEESt6vectorISB_SaISB_EEEC2ERKSD_
FNDA:182722,_ZN9__gnu_cxx17__normal_iteratorIPNSt7__cxx119sub_matchINS0_IPKcNS1_12basic_stringIcSt11char_traitsIcESaIcEEEEEEESt6vectorISB_SaISB_EEEC2ERKSC_
FNDA:116,_ZN9__gnu_cxx17__normal_iteratorIPNSt7__cxx1112basic_stringIcSt11char_traitsIcESaIcEEESt6vectorIS6_SaIS6_EEEC2ERKS7_
FNDA:6959,_ZN9__gnu_cxx17__normal_iteratorIPKcNSt7__cxx1112basic_stringIcSt11char_traitsIcESaIcEEEEC2ERKS2_
FNDA:4766,_ZN9__gnu_cxx17__normal_iteratorIPKcSt6vectorIcSaIcEEEC2IPcEERKNS0_IT_NS_11__enable_ifIXsrSt10__are_sameIS9_S8_E7__valueES5_E6__typeEEE
FNDA:5348,_ZNK9__gnu_cxx17__normal_iteratorIPKNSt7__cxx1112basic_stringIcSt11char_traitsIcESaIcEEESt6vectorIS6_SaIS6_EEEdeEv
FNDA:2807079,_ZNK9__gnu_cxx17__normal_iteratorIPKcSt6vectorIcSaIcEEEdeEv
FNDA:0,_ZNK9__gnu_cxx17__normal_iteratorIPKSt4pairINSt7__cxx1112basic_stringIcSt11char_traitsIcESaIcEEES7_ESt6vectorIS8_SaIS8_EEEdeEv
FNDA:0,_ZNK9__gnu_cxx17__normal_iteratorIPKNSt7__cxx1112regex_traitsIcE10_RegexMaskESt6vectorIS4_SaIS4_EEEdeEv
FNDA:0,_ZNK9__gnu_cxx17__normal_iteratorIPKSt4pairIccESt6vectorIS2_SaIS2_EEEdeEv
FNDA:144837,_ZNK9__gnu_cxx17__normal_iteratorIPcSt6vectorIcSaIcEEEdeEv
FNDA:37659,_ZNK9__gnu_cxx17__normal_iteratorIPKNSt7__cxx119sub_matchINS0_IPKcNS1_12basic_stringIcSt11char_traitsIcESaIcEEEEEEESt6vectorISB_SaISB_EEEdeEv
FNDA:157642,_ZNK9__gnu_cxx17__normal_iteratorIPKcNSt7__cxx1112basic_stringIcSt11char_traitsIcESaIcEEEEdeEv
FNDA:2421,_ZNK9__gnu_cxx17__normal_iteratorIPmSt6vectorImSaImEEEdeEv
FNDA:31244,_ZNK9__gnu_cxx17__normal_iteratorIPNSt8__detail6_StateIcEESt6vectorIS3_SaIS3_EEEdeEv
FNDA:0,_ZNK9__gnu_cxx17__normal_iteratorIPSt4pairIlSt6vectorINSt7__cxx119sub_matchINS0_IPKcNS3_12basic_stringIcSt11char_traitsIcESaIcEEEEEEESaISD_EEES2_ISG_SaISG_EEEdeEv
FNDA:72963,_ZNK9__gnu_cxx17__normal_iteratorIPNSt7__cxx119sub_matchINS0_IPKcNS1_12basic_stringIcSt11char_traitsIcESaIcEEEEEEESt6vectorISB_SaISB_EEEdeEv
FNDA:50,_ZNK9__gnu_cxx17__normal_iteratorIPNSt7__cxx1112basic_stringIcSt11char_traitsIcESaIcEEESt6vectorIS6_SaIS6_EEEdeEv
FNDA:3282,_ZN9__gnu_cxx17__normal_iteratorIPKNSt7__cxx1112basic_stringIcSt11char_traitsIcESaIcEEESt6vectorIS6_SaIS6_EEEppEv
FNDA:232199,_ZN9__gnu_cxx17__normal_iteratorIPKcSt6vectorIcSaIcEEEppEv
FNDA:0,_ZN9__gnu_cxx17__normal_iteratorIPKSt4pairINSt7__cxx1112basic_stringIcSt11char_traitsIcESaIcEEES7_ESt6vectorIS8_SaIS8_EEEppEv
FNDA:0,_ZN9__gnu_cxx17__normal_iteratorIPKNSt7__cxx1112regex_traitsIcE10_RegexMaskESt6vectorIS4_SaIS4_EEEppEv
FNDA:0,_ZN9__gnu_cxx17__normal_iteratorIPKSt4pairIccESt6vectorIS2_SaIS2_EEEppEv
FNDA:34485,_ZN9__gnu_cxx17__normal_iteratorIPcSt6vectorIcSaIcEEEppEv
FNDA:37659,_ZN9__gnu_cxx17__normal_iteratorIPKNSt7__cxx119sub_matchINS0_IPKcNS1_12basic_stringIcSt11char_traitsIcESaIcEEEEEEESt6vectorISB_SaISB_EEEppEv
FNDA:0,_ZN9__gnu_cxx17__normal_iteratorIPmSt6vectorImSaImEEEppEv
FNDA:31244,_ZN9__gnu_cxx17__normal_iteratorIPNSt8__detail6_StateIcEESt6vectorIS3_SaIS3_EEEppEv
FNDA:0,_ZN9__gnu_cxx17__normal_iteratorIPSt4pairIlSt6vectorINSt7__cxx119sub_matchINS0_IPKcNS3_12basic_stringIcSt11char_traitsIcESaIcEEEEEEESaISD_EEES2_ISG_SaISG_EEEppEv
FNDA:105664,_ZN9__gnu_cxx17__normal_iteratorIPKcNSt7__cxx1112basic_stringIcSt11char_traitsIcESaIcEEEEppEv
FNDA:72963,_ZN9__gnu_cxx17__normal_iteratorIPNSt7__cxx119sub_matchINS0_IPKcNS1_12basic_stringIcSt11char_traitsIcESaIcEEEEEEESt6vectorISB_SaISB_EEEppEv
FNDA:50,_ZN9__gnu_cxx17__normal_iteratorIPNSt7__cxx1112basic_stringIcSt11char_traitsIcESaIcEEESt6vectorIS6_SaIS6_EEEppEv
FNDA:25289,_ZN9__gnu_cxx17__normal_iteratorIPcSt6vectorIcSaIcEEEmmEv
FNDA:64198,_ZN9__gnu_cxx17__normal_iteratorIPKcNSt7__cxx1112basic_stringIcSt11char_traitsIcESaIcEEEEmmEv
FNDA:2241525,_ZN9__gnu_cxx17__normal_iteratorIPKcSt6vectorIcSaIcEEEpLEl
FNDA:6959,_ZN9__gnu_cxx17__normal_iteratorIPKcNSt7__cxx1112basic_stringIcSt11char_traitsIcESaIcEEEEpLEl
FNDA:9364,_ZNK9__gnu_cxx17__normal_iteratorIPcSt6vectorIcSaIcEEEplEl
FNDA:6959,_ZNK9__gnu_cxx17__normal_iteratorIPKcNSt7__cxx1112basic_stringIcSt11char_traitsIcESaIcEEEEplEl
FNDA:0,_ZNK9__gnu_cxx17__normal_iteratorIPcSt6vectorIcSaIcEEEmiEl
FNDA:2421,_ZNK9__gnu_cxx17__normal_iteratorIPmSt6vectorImSaImEEEmiEl
FNDA:0,_ZNK9__gnu_cxx17__normal_iteratorIPcNSt7__cxx1112basic_stringIcSt11char_traitsIcESaIcEEEE4baseEv
FNDA:0,_ZNK9__gnu_cxx17__normal_iteratorIPSt4pairINSt7__cxx1112basic_stringIcSt11char_traitsIcESaIcEEES7_ESt6vectorIS8_SaIS8_EEE4baseEv
FNDA:0,_ZNK9__gnu_cxx17__normal_iteratorIPSt4pairIccESt6vectorIS2_SaIS2_EEE4baseEv
FNDA:0,_ZNK9__gnu_cxx17__normal_iteratorIPKSt4pairINSt7__cxx1112basic_stringIcSt11char_traitsIcESaIcEEES7_ESt6vectorIS8_SaIS8_EEE4baseEv
FNDA:1187246,_ZNK9__gnu_cxx17__normal_iteratorIPKNSt7__cxx1112regex_traitsIcE10_RegexMaskESt6vectorIS4_SaIS4_EEE4baseEv
FNDA:3558878,_ZNK9__gnu_cxx17__normal_iteratorIPKNSt7__cxx1112basic_stringIcSt11char_traitsIcESaIcEEESt6vectorIS6_SaIS6_EEE4baseEv
FNDA:1188926,_ZNK9__gnu_cxx17__normal_iteratorIPKSt4pairIccESt6vectorIS2_SaIS2_EEE4baseEv
FNDA:2455338,_ZNK9__gnu_cxx17__normal_iteratorIPKcSt6vectorIcSaIcEEE4baseEv
FNDA:0,_ZNK9__gnu_cxx17__normal_iteratorIPNSt7__cxx1112regex_traitsIcE10_RegexMaskESt6vectorIS4_SaIS4_EEE4baseEv
FNDA:159471,_ZNK9__gnu_cxx17__normal_iteratorIPcSt6vectorIcSaIcEEE4baseEv
FNDA:9372,_ZNK9__gnu_cxx17__normal_iteratorIPmSt6vectorImSaImEEE4baseEv
FNDA:0,_ZNK9__gnu_cxx17__normal_iteratorIPKSt4pairIlSt6vectorINSt7__cxx119sub_matchINS0_IPKcNS3_12basic_stringIcSt11char_traitsIcESaIcEEEEEEESaISD_EEES2_ISG_SaISG_EEE4baseEv
FNDA:114018,_ZNK9__gnu_cxx17__normal_iteratorIPNSt8__detail6_StateIcEESt6vectorIS3_SaIS3_EEE4baseEv
FNDA:0,_ZNK9__gnu_cxx17__normal_iteratorIPSt4pairIlSt6vectorINSt7__cxx119sub_matchINS0_IPKcNS3_12basic_stringIcSt11char_traitsIcESaIcEEEEEEESaISD_EEES2_ISG_SaISG_EEE4baseEv
FNDA:289128,_ZNK9__gnu_cxx17__normal_iteratorIPKNSt7__cxx119sub_matchINS0_IPKcNS1_12basic_stringIcSt11char_traitsIcESaIcEEEEEEESt6vectorISB_SaISB_EEE4baseEv
FNDA:572736,_ZNK9__gnu_cxx17__normal_iteratorIPKcNSt7__cxx1112basic_stringIcSt11char_traitsIcESaIcEEEE4baseEv
FNDA:231700,_ZNK9__gnu_cxx17__normal_iteratorIPNSt7__cxx119sub_matchINS0_IPKcNS1_12basic_stringIcSt11char_traitsIcESaIcEEEEEEESt6vectorISB_SaISB_EEE4baseEv
FNDA:316,_ZNK9__gnu_cxx17__normal_iteratorIPNSt7__cxx1112basic_stringIcSt11char_traitsIcESaIcEEESt6vectorIS6_SaIS6_EEE4baseEv
FNDA:7065,_ZN9__gnu_cxxeqIPcSt6vectorIcSaIcEEEEbRKNS_17__normal_iteratorIT_T0_EESA_
FNDA:0,_ZN9__gnu_cxxeqIPKSt4pairIlSt6vectorINSt7__cxx119sub_matchINS_17__normal_iteratorIPKcNS3_12basic_stringIcSt11char_traitsIcESaIcEEEEEEESaISE_EEES2_ISH_SaISH_EEEEbRKNS5_IT_T0_EESQ_
FNDA:169921,_ZN9__gnu_cxxeqIPKcNSt7__cxx1112basic_stringIcSt11char_traitsIcESaIcEEEEEbRKNS_17__normal_iteratorIT_T0_EESE_
FNDA:49106,_ZN9__gnu_cxxeqIPKNSt7__cxx119sub_matchINS_17__normal_iteratorIPKcNS1_12basic_stringIcSt11char_traitsIcESaIcEEEEEEESt6vectorISC_SaISC_EEEEbRKNS3_IT_T0_EESM_
FNDA:0,_ZN9__gnu_cxxneIPcNSt7__cxx1112basic_stringIcSt11char_traitsIcESaIcEEEEEbRKNS_17__normal_iteratorIT_T0_EESD_
FNDA:610048,_ZN9__gnu_cxxneIPKcSt6vectorIcSaIcEEEEbRKNS_17__normal_iteratorIT_T0_EESB_
FNDA:0,_ZN9__gnu_cxxneIPKSt4pairINSt7__cxx1112basic_stringIcSt11char_traitsIcESaIcEEES7_ESt6vectorIS8_SaIS8_EEEEbRKNS_17__normal_iteratorIT_T0_EESJ_
FNDA:593623,_ZN9__gnu_cxxneIPKNSt7__cxx1112regex_traitsIcE10_RegexMaskESt6vectorIS4_SaIS4_EEEEbRKNS_17__normal_iteratorIT_T0_EESF_
FNDA:595689,_ZN9__gnu_cxxneIPKNSt7__cxx1112basic_stringIcSt11char_traitsIcESaIcEEESt6vectorIS6_SaIS6_EEEEbRKNS_17__normal_iteratorIT_T0_EESH_
FNDA:594463,_ZN9__gnu_cxxneIPKSt4pairIccESt6vectorIS2_SaIS2_EEEEbRKNS_17__normal_iteratorIT_T0_EESD_
FNDA:41550,_ZN9__gnu_cxxneIPcSt6vectorIcSaIcEEEEbRKNS_17__normal_iteratorIT_T0_EESA_
FNDA:46984,_ZN9__gnu_cxxneIPKNSt7__cxx119sub_matchINS_17__normal_iteratorIPKcNS1_12basic_stringIcSt11char_traitsIcESaIcEEEEEEESt6vectorISC_SaISC_EEEEbRKNS3_IT_T0_EESM_
FNDA:0,_ZN9__gnu_cxxneIPmSt6vectorImSaImEEEEbRKNS_17__normal_iteratorIT_T0_EESA_
FNDA:33571,_ZN9__gnu_cxxneIPNSt8__detail6_StateIcEESt6vectorIS3_SaIS3_EEEEbRKNS_17__normal_iteratorIT_T0_EESD_
FNDA:0,_ZN9__gnu_cxxneIPSt4pairIlSt6vectorINSt7__cxx119sub_matchINS_17__normal_iteratorIPKcNS3_12basic_stringIcSt11char_traitsIcESaIcEEEEEEESaISE_EEES2_ISH_SaISH_EEEEbRKNS5_IT_T0_EESP_
FNDA:58075,_ZN9__gnu_cxxneIPKcNSt7__cxx1112basic_stringIcSt11char_traitsIcESaIcEEEEEbRKNS_17__normal_iteratorIT_T0_EESE_
FNDA:91613,_ZN9__gnu_cxxneIPNSt7__cxx119sub_matchINS_17__normal_iteratorIPKcNS1_12basic_stringIcSt11char_traitsIcESaIcEEEEEEESt6vectorISC_SaISC_EEEEbRKNS3_IT_T0_EESL_
FNDA:58,_ZN9__gnu_cxxneIPNSt7__cxx1112basic_stringIcSt11char_traitsIcESaIcEEESt6vectorIS6_SaIS6_EEEEbRKNS_17__normal_iteratorIT_T0_EESG_
FNDA:0,_ZN9__gnu_cxxltIPcSt6vectorIcSaIcEEEEbRKNS_17__normal_iteratorIT_T0_EESA_
FNDA:0,_ZN9__gnu_cxxmiIPcNSt7__cxx1112basic_stringIcSt11char_traitsIcESaIcEEEEENS_17__normal_iteratorIT_T0_E15difference_typeERKSB_SE_
FNDA:0,_ZN9__gnu_cxxmiIPSt4pairINSt7__cxx1112basic_stringIcSt11char_traitsIcESaIcEEES7_ESt6vectorIS8_SaIS8_EEEENS_17__normal_iteratorIT_T0_E15difference_typeERKSG_SJ_
FNDA:0,_ZN9__gnu_cxxmiIPSt4pairIccESt6vectorIS2_SaIS2_EEEENS_17__normal_iteratorIT_T0_E15difference_typeERKSA_SD_
FNDA:1183750,_ZN9__gnu_cxxmiIPKNSt7__cxx1112basic_stringIcSt11char_traitsIcESaIcEEESt6vectorIS6_SaIS6_EEEENS_17__normal_iteratorIT_T0_E15difference_typeERKSF_SI_
FNDA:16093,_ZN9__gnu_cxxmiIPcSt6vectorIcSaIcEEEENS_17__normal_iteratorIT_T0_E15difference_typeERKS8_SB_
FNDA:0,_ZN9__gnu_cxxmiIPNSt7__cxx1112regex_traitsIcE10_RegexMaskESt6vectorIS4_SaIS4_EEEENS_17__normal_iteratorIT_T0_E15difference_typeERKSC_SF_
FNDA:614814,_ZN9__gnu_cxxmiIPKcSt6vectorIcSaIcEEEENS_17__normal_iteratorIT_T0_E15difference_typeERKS9_SC_
FNDA:11719,_ZN9__gnu_cxxmiIPNSt8__detail6_StateIcEESt6vectorIS3_SaIS3_EEEENS_17__normal_iteratorIT_T0_E15difference_typeERKSB_SE_
FNDA:0,_ZN9__gnu_cxxmiIPSt4pairIlSt6vectorINSt7__cxx119sub_matchINS_17__normal_iteratorIPKcNS3_12basic_stringIcSt11char_traitsIcESaIcEEEEEEESaISE_EEES2_ISH_SaISH_EEEENS5_IT_T0_E15difference_typeERKSN_SQ_
FNDA:2343,_ZN9__gnu_cxxmiIPmSt6vectorImSaImEEEENS_17__normal_iteratorIT_T0_E15difference_typeERKS8_SB_
FNDA:58372,_ZN9__gnu_cxxmiIPKcNSt7__cxx1112basic_stringIcSt11char_traitsIcESaIcEEEEENS_17__normal_iteratorIT_T0_E15difference_typeERKSC_SF_
FNDA:50,_ZN9__gnu_cxxmiIPNSt7__cxx1112basic_stringIcSt11char_traitsIcESaIcEEESt6vectorIS6_SaIS6_EEEENS_17__normal_iteratorIT_T0_E15difference_typeERKSE_SH_
FNDA:5614,_ZSt12__niter_baseIPKcSt6vectorIcSaIcEEET_N9__gnu_cxx17__normal_iteratorIS5_T0_EE
FNDA:6897,_ZSt12__niter_baseIPcSt6vectorIcSaIcEEET_N9__gnu_cxx17__normal_iteratorIS4_T0_EE
FNDA:48474,_ZSt12__niter_baseIPNSt7__cxx119sub_matchIN9__gnu_cxx17__normal_iteratorIPKcNS0_12basic_stringIcSt11char_traitsIcESaIcEEEEEEESt6vectorISC_SaISC_EEET_NS3_ISH_T0_EE
FNDA:96948,_ZSt12__niter_baseIPKNSt7__cxx119sub_matchIN9__gnu_cxx17__normal_iteratorIPKcNS0_12basic_stringIcSt11char_traitsIcESaIcEEEEEEESt6vectorISC_SaISC_EEET_NS3_ISI_T0_EE
FNDA:0,_ZNSt13move_iteratorIPSt4pairINSt7__cxx1112basic_stringIcSt11char_traitsIcESaIcEEES6_EEC2ES8_
FNDA:0,_ZNSt13move_iteratorIPSt4pairIccEEC2ES2_
FNDA:36784,_ZNSt13move_iteratorIPcEC2ES0_
FNDA:0,_ZNSt13move_iteratorIPNSt7__cxx1112regex_traitsIcE10_RegexMaskEEC2ES4_
FNDA:0,_ZNSt13move_iteratorIPSt4pairIlSt6vectorINSt7__cxx119sub_matchIN9__gnu_cxx17__normal_iteratorIPKcNS2_12basic_stringIcSt11char_traitsIcESaIcEEEEEEESaISE_EEEEC2ESI_
FNDA:9372,_ZNSt13move_iteratorIPmEC2ES0_
FNDA:4732,_ZNSt13move_iteratorIPNSt7__cxx119sub_matchIN9__gnu_cxx17__normal_iteratorIPKcNS0_12basic_stringIcSt11char_traitsIcESaIcEEEEEEEEC2ESD_
FNDA:200,_ZNSt13move_iteratorIPNSt7__cxx1112basic_stringIcSt11char_traitsIcESaIcEEEEC2ES6_
FNDA:0,_ZNKSt13move_iteratorIPSt4pairINSt7__cxx1112basic_stringIcSt11char_traitsIcESaIcEEES6_EE4baseEv
FNDA:0,_ZNKSt13move_iteratorIPSt4pairIccEE4baseEv
FNDA:36784,_ZNKSt13move_iteratorIPcE4baseEv
FNDA:0,_ZNKSt13move_iteratorIPNSt7__cxx1112regex_traitsIcE10_RegexMaskEE4baseEv
FNDA:0,_ZNKSt13move_iteratorIPSt4pairIlSt6vectorINSt7__cxx119sub_matchIN9__gnu_cxx17__normal_iteratorIPKcNS2_12basic_stringIcSt11char_traitsIcESaIcEEEEEEESaISE_EEEE4baseEv
FNDA:9372,_ZNKSt13move_iteratorIPmE4baseEv
FNDA:4804,_ZNKSt13move_iteratorIPNSt7__cxx119sub_matchIN9__gnu_cxx17__normal_iteratorIPKcNS0_12basic_stringIcSt11char_traitsIcESaIcEEEEEEEE4baseEv
FNDA:372,_ZNKSt13move_iteratorIPNSt7__cxx1112basic_stringIcSt11char_traitsIcESaIcEEEE4baseEv
FNDA:0,_ZNKSt13move_iteratorIPSt4pairINSt7__cxx1112basic_stringIcSt11char_traitsIcESaIcEEES6_EEdeEv
FNDA:0,_ZNKSt13move_iteratorIPSt4pairIccEEdeEv
FNDA:0,_ZNKSt13move_iteratorIPNSt7__cxx1112regex_traitsIcE10_RegexMaskEEdeEv
FNDA:0,_ZNKSt13move_iteratorIPSt4pairIlSt6vectorINSt7__cxx119sub_matchIN9__gnu_cxx17__normal_iteratorIPKcNS2_12basic_stringIcSt11char_traitsIcESaIcEEEEEEESaISE_EEEEdeEv
FNDA:36,_ZNKSt13move_iteratorIPNSt7__cxx119sub_matchIN9__gnu_cxx17__normal_iteratorIPKcNS0_12basic_stringIcSt11char_traitsIcESaIcEEEEEEEEdeEv
FNDA:86,_ZNKSt13move_iteratorIPNSt7__cxx1112basic_stringIcSt11char_traitsIcESaIcEEEEdeEv
FNDA:0,_ZNSt13move_iteratorIPSt4pairINSt7__cxx1112basic_stringIcSt11char_traitsIcESaIcEEES6_EEppEv
FNDA:0,_ZNSt13move_iteratorIPSt4pairIccEEppEv
FNDA:0,_ZNSt13move_iteratorIPNSt7__cxx1112regex_traitsIcE10_RegexMaskEEppEv
FNDA:0,_ZNSt13move_iteratorIPSt4pairIlSt6vectorINSt7__cxx119sub_matchIN9__gnu_cxx17__normal_iteratorIPKcNS2_12basic_stringIcSt11char_traitsIcESaIcEEEEEEESaISE_EEEEppEv
FNDA:36,_ZNSt13move_iteratorIPNSt7__cxx119sub_matchIN9__gnu_cxx17__normal_iteratorIPKcNS0_12basic_stringIcSt11char_traitsIcESaIcEEEEEEEEppEv
FNDA:86,_ZNSt13move_iteratorIPNSt7__cxx1112basic_stringIcSt11char_traitsIcESaIcEEEEppEv
FNDA:0,_ZSteqIPSt4pairINSt7__cxx1112basic_stringIcSt11char_traitsIcESaIcEEES6_EEbRKSt13move_iteratorIT_ESD_
FNDA:0,_ZSteqIPSt4pairIccEEbRKSt13move_iteratorIT_ES7_
FNDA:0,_ZSteqIPNSt7__cxx1112regex_traitsIcE10_RegexMaskEEbRKSt13move_iteratorIT_ES9_
FNDA:0,_ZSteqIPSt4pairIlSt6vectorINSt7__cxx119sub_matchIN9__gnu_cxx17__normal_iteratorIPKcNS2_12basic_stringIcSt11char_traitsIcESaIcEEEEEEESaISE_EEEEbRKSt13move_iteratorIT_ESN_
FNDA:2402,_ZSteqIPNSt7__cxx119sub_matchIN9__gnu_cxx17__normal_iteratorIPKcNS0_12basic_stringIcSt11char_traitsIcESaIcEEEEEEEEbRKSt13move_iteratorIT_ESI_
FNDA:186,_ZSteqIPNSt7__cxx1112basic_stringIcSt11char_traitsIcESaIcEEEEbRKSt13move_iteratorIT_ESB_
FNDA:0,_ZStneIPSt4pairINSt7__cxx1112basic_stringIcSt11char_traitsIcESaIcEEES6_EEbRKSt13move_iteratorIT_ESD_
FNDA:0,_ZStneIPSt4pairIccEEbRKSt13move_iteratorIT_ES7_
FNDA:0,_ZStneIPNSt7__cxx1112regex_traitsIcE10_RegexMaskEEbRKSt13move_iteratorIT_ES9_
FNDA:0,_ZStneIPSt4pairIlSt6vectorINSt7__cxx119sub_matchIN9__gnu_cxx17__normal_iteratorIPKcNS2_12basic_stringIcSt11char_traitsIcESaIcEEEEEEESaISE_EEEEbRKSt13move_iteratorIT_ESN_
FNDA:2402,_ZStneIPNSt7__cxx119sub_matchIN9__gnu_cxx17__normal_iteratorIPKcNS0_12basic_stringIcSt11char_traitsIcESaIcEEEEEEEEbRKSt13move_iteratorIT_ESI_
FNDA:186,_ZStneIPNSt7__cxx1112basic_stringIcSt11char_traitsIcESaIcEEEEbRKSt13move_iteratorIT_ESB_
FNDA:0,_ZSt32__make_move_if_noexcept_iteratorISt4pairINSt7__cxx1112basic_stringIcSt11char_traitsIcESaIcEEES6_ESt13move_iteratorIPS7_EET0_PT_
FNDA:0,_ZSt32__make_move_if_noexcept_iteratorISt4pairIccESt13move_iteratorIPS1_EET0_PT_
FNDA:36784,_ZSt32__make_move_if_noexcept_iteratorIcSt13move_iteratorIPcEET0_PT_
FNDA:0,_ZSt32__make_move_if_noexcept_iteratorINSt7__cxx1112regex_traitsIcE10_RegexMaskESt13move_iteratorIPS3_EET0_PT_
FNDA:46876,_ZSt32__make_move_if_noexcept_iteratorINSt8__detail6_StateIcEEPKS2_ET0_PT_
FNDA:0,_ZSt32__make_move_if_noexcept_iteratorISt4pairIlSt6vectorINSt7__cxx119sub_matchIN9__gnu_cxx17__normal_iteratorIPKcNS2_12basic_stringIcSt11char_traitsIcESaIcEEEEEEESaISE_EEESt13move_iteratorIPSH_EET0_PT_
FNDA:9372,_ZSt32__make_move_if_noexcept_iteratorImSt13move_iteratorIPmEET0_PT_
FNDA:4732,_ZSt32__make_move_if_noexcept_iteratorINSt7__cxx119sub_matchIN9__gnu_cxx17__normal_iteratorIPKcNS0_12basic_stringIcSt11char_traitsIcESaIcEEEEEEESt13move_iteratorIPSC_EET0_PT_
FNDA:200,_ZSt32__make_move_if_noexcept_iteratorINSt7__cxx1112basic_stringIcSt11char_traitsIcESaIcEEESt13move_iteratorIPS5_EET0_PT_
FNDA:36784,_ZSt12__miter_baseIPcEDTcl12__miter_basecldtfp_4baseEEESt13move_iteratorIT_E
FNDA:9372,_ZSt12__miter_baseIPmEDTcl12__miter_basecldtfp_4baseEEESt13move_iteratorIT_E
FNF:165
FNH:103
DA:132,312
DA:138,288
DA:139,288
DA:154,600
DA:155,600
DA:168,288
DA:170,288
DA:171,288
DA:180,288
DA:181,288
DA:201,288
DA:203,288
DA:204,288
DA:205,288
DA:299,300
DA:301,300
DA:311,300
DA:313,300
DA:775,225181
DA:776,225181
DA:779,5874105
DA:780,5874105
DA:784,4766
DA:788,4766
DA:792,3259243
DA:793,3259243
DA:800,517546
DA:802,517546
DA:803,517546
DA:812,89487
DA:814,89487
DA:815,89487
DA:828,2248484
DA:829,2248484
DA:832,16323
DA:833,16323
DA:840,2421
DA:841,2421
DA:844,9767129
DA:845,9767129
DA:866,226092
DA:869,226092
DA:880,2665674
DA:883,2665674
DA:895,0
DA:898,0
DA:962,1887141
DA:965,1887141
DA:983,157933
DA:984,157933
DA:1036,51088
DA:1037,51088
DA:1045,51332
DA:1046,51332
DA:1049,122
DA:1050,122
DA:1057,122
DA:1059,122
DA:1060,122
DA:1124,2588
DA:1126,2588
DA:1136,2588
DA:1138,2588
DA:1221,97964
DA:1222,97964
DA:1241,46156
DA:1243,46156
LF:67
LH:65
end_of_record
SF:/usr/include/c++/7/bits/stl_iterator_base_funcs.h
FN:98,_ZSt10__distanceIN9__gnu_cxx17__normal_iteratorIPKcSt6vectorIcSaIcEEEEENSt15iterator_traitsIT_E15difference_typeES9_S9_St26random_access_iterator_tag
FN:98,_ZSt10__distanceIN9__gnu_cxx17__normal_iteratorIPcNSt7__cxx1112basic_stringIcSt11char_traitsIcESaIcEEEEEENSt15iterator_traitsIT_E15difference_typeESB_SB_St26random_access_iterator_tag
FN:98,_ZSt10__distanceIPKcENSt15iterator_traitsIT_E15difference_typeES3_S3_St26random_access_iterator_tag
FN:98,_ZSt10__distanceIPcENSt15iterator_traitsIT_E15difference_typeES2_S2_St26random_access_iterator_tag
FN:98,_ZSt10__distanceIN9__gnu_cxx17__normal_iteratorIPKcNSt7__cxx1112basic_stringIcSt11char_traitsIcESaIcEEEEEENSt15iterator_traitsIT_E15difference_typeESC_SC_St26random_access_iterator_tag
FN:138,_ZSt8distanceIPKcENSt15iterator_traitsIT_E15difference_typeES3_S3_
FN:138,_ZSt8distanceIN9__gnu_cxx17__normal_iteratorIPKcSt6vectorIcSaIcEEEEENSt15iterator_traitsIT_E15difference_typeES9_S9_
FN:138,_ZSt8distanceIPcENSt15iterator_traitsIT_E15difference_typeES2_S2_
FN:138,_ZSt8distanceIN9__gnu_cxx17__normal_iteratorIPKcNSt7__cxx1112basic_stringIcSt11char_traitsIcESaIcEEEEEENSt15iterator_traitsIT_E15difference_typeESC_SC_
FN:138,_ZSt8distanceIN9__gnu_cxx17__normal_iteratorIPcNSt7__cxx1112basic_stringIcSt11char_traitsIcESaIcEEEEEENSt15iterator_traitsIT_E15difference_typeESB_SB_
FN:174,_ZSt9__advanceIN9__gnu_cxx17__normal_iteratorIPKcSt6vectorIcSaIcEEEElEvRT_T0_St26random_access_iterator_tag
FN:174,_ZSt9__advanceIN9__gnu_cxx17__normal_iteratorIPKcNSt7__cxx1112basic_stringIcSt11char_traitsIcESaIcEEEEElEvRT_T0_St26random_access_iterator_tag
FN:197,_ZSt7advanceIN9__gnu_cxx17__normal_iteratorIPKcSt6vectorIcSaIcEEEElEvRT_T0_
FN:197,_ZSt7advanceIN9__gnu_cxx17__normal_iteratorIPKcNSt7__cxx1112basic_stringIcSt11char_traitsIcESaIcEEEEElEvRT_T0_
FN:220,_ZSt4prevIN9__gnu_cxx17__normal_iteratorIPKcNSt7__cxx1112basic_stringIcSt11char_traitsIcESaIcEEEEEET_SB_NSt15iterator_traitsISB_E15difference_typeE
FNDA:0,_ZSt10__distanceIN9__gnu_cxx17__normal_iteratorIPcNSt7__cxx1112basic_stringIcSt11char_traitsIcESaIcEEEEEENSt15iterator_traitsIT_E15difference_typeESB_SB_St26random_access_iterator_tag
FNDA:610048,_ZSt10__distanceIN9__gnu_cxx17__normal_iteratorIPKcSt6vectorIcSaIcEEEEENSt15iterator_traitsIT_E15difference_typeES9_S9_St26random_access_iterator_tag
FNDA:0,_ZSt10__distanceIPcENSt15iterator_traitsIT_E15difference_typeES2_S2_St26random_access_iterator_tag
FNDA:1217303,_ZSt10__distanceIPKcENSt15iterator_traitsIT_E15difference_typeES3_S3_St26random_access_iterator_tag
FNDA:58372,_ZSt10__distanceIN9__gnu_cxx17__normal_iteratorIPKcNSt7__cxx1112basic_stringIcSt11char_traitsIcESaIcEEEEEENSt15iterator_traitsIT_E15difference_typeESC_SC_St26random_access_iterator_tag
FNDA:0,_ZSt8distanceIN9__gnu_cxx17__normal_iteratorIPcNSt7__cxx1112basic_stringIcSt11char_traitsIcESaIcEEEEEENSt15iterator_traitsIT_E15difference_typeESB_SB_
FNDA:610048,_ZSt8distanceIN9__gnu_cxx17__normal_iteratorIPKcSt6vectorIcSaIcEEEEENSt15iterator_traitsIT_E15difference_typeES9_S9_
FNDA:0,_ZSt8distanceIPcENSt15iterator_traitsIT_E15difference_typeES2_S2_
FNDA:1217303,_ZSt8distanceIPKcENSt15iterator_traitsIT_E15difference_typeES3_S3_
FNDA:58372,_ZSt8distanceIN9__gnu_cxx17__normal_iteratorIPKcNSt7__cxx1112basic_stringIcSt11char_traitsIcESaIcEEEEEENSt15iterator_traitsIT_E15difference_typeESC_SC_
FNDA:2241525,_ZSt9__advanceIN9__gnu_cxx17__normal_iteratorIPKcSt6vectorIcSaIcEEEElEvRT_T0_St26random_access_iterator_tag
FNDA:0,_ZSt9__advanceIN9__gnu_cxx17__normal_iteratorIPKcNSt7__cxx1112basic_stringIcSt11char_traitsIcESaIcEEEEElEvRT_T0_St26random_access_iterator_tag
FNDA:2241525,_ZSt7advanceIN9__gnu_cxx17__normal_iteratorIPKcSt6vectorIcSaIcEEEElEvRT_T0_
FNDA:0,_ZSt7advanceIN9__gnu_cxx17__normal_iteratorIPKcNSt7__cxx1112basic_stringIcSt11char_traitsIcESaIcEEEEElEvRT_T0_
FNDA:0,_ZSt4prevIN9__gnu_cxx17__normal_iteratorIPKcNSt7__cxx1112basic_stringIcSt11char_traitsIcESaIcEEEEEET_SB_NSt15iterator_traitsISB_E15difference_typeE
FNF:15
FNH:8
DA:98,1885723
DA:104,1885723
DA:138,1885723
DA:141,1217303
DA:142,3103026
DA:174,2241525
DA:180,2241525
DA:181,2241525
DA:197,2241525
DA:200,2241525
DA:201,2241525
DA:202,2241525
DA:220,0
DA:226,0
DA:227,0
LF:15
LH:12
end_of_record
SF:/usr/include/c++/7/bits/stl_iterator_base_types.h
FN:205,_ZSt19__iterator_categoryIN9__gnu_cxx17__normal_iteratorIPKcNSt7__cxx1112basic_stringIcSt11char_traitsIcESaIcEEEEEENSt15iterator_traitsIT_E17iterator_categoryERKSC_
FN:205,_ZSt19__iterator_categoryIN9__gnu_cxx17__normal_iteratorIPKcSt6vectorIcSaIcEEEEENSt15iterator_traitsIT_E17iterator_categoryERKS9_
FN:205,_ZSt19__iterator_categoryIPKcENSt15iterator_traitsIT_E17iterator_categoryERKS3_
FN:205,_ZSt19__iterator_categoryIN9__gnu_cxx17__normal_iteratorIPcNSt7__cxx1112basic_stringIcSt11char_traitsIcESaIcEEEEEENSt15iterator_traitsIT_E17iterator_categoryERKSB_
FN:205,_ZSt19__iterator_categoryIPcENSt15iterator_traitsIT_E17iterator_categoryERKS2_
FN:205,_ZSt19__iterator_categoryIN9__gnu_cxx17__normal_iteratorIPKNSt7__cxx1112basic_stringIcSt11char_traitsIcESaIcEEESt6vectorIS7_SaIS7_EEEEENSt15iterator_traitsIT_E17iterator_categoryERKSF_
FNDA:0,_ZSt19__iterator_categoryIN9__gnu_cxx17__normal_iteratorIPcNSt7__cxx1112basic_stringIcSt11char_traitsIcESaIcEEEEEENSt15iterator_traitsIT_E17iterator_categoryERKSB_
FNDA:2851573,_ZSt19__iterator_categoryIN9__gnu_cxx17__normal_iteratorIPKcSt6vectorIcSaIcEEEEENSt15iterator_traitsIT_E17iterator_categoryERKS9_
FNDA:592882,_ZSt19__iterator_categoryIN9__gnu_cxx17__normal_iteratorIPKNSt7__cxx1112basic_stringIcSt11char_traitsIcESaIcEEESt6vectorIS7_SaIS7_EEEEENSt15iterator_traitsIT_E17iterator_categoryERKSF_
FNDA:0,_ZSt19__iterator_categoryIPcENSt15iterator_traitsIT_E17iterator_categoryERKS2_
FNDA:1217303,_ZSt19__iterator_categoryIPKcENSt15iterator_traitsIT_E17iterator_categoryERKS3_
FNDA:58372,_ZSt19__iterator_categoryIN9__gnu_cxx17__normal_iteratorIPKcNSt7__cxx1112basic_stringIcSt11char_traitsIcESaIcEEEEEENSt15iterator_traitsIT_E17iterator_categoryERKSC_
FNF:6
FNH:4
DA:205,4720130
DA:206,4720130
LF:2
LH:2
end_of_record
SF:/usr/include/c++/7/bits/stl_map.h
FN:177,_ZNSt3mapINSt7__cxx1112basic_stringIcSt11char_traitsIcESaIcEEES5_St4lessIS5_ESaISt4pairIKS5_S5_EEEC2Ev
FN:177,_ZNSt3mapIllSt4lessIlESaISt4pairIKllEEEC2Ev
FN:294,_ZNSt3mapIllSt4lessIlESaISt4pairIKllEEED2Ev
FN:294,_ZNSt3mapINSt7__cxx1112basic_stringIcSt11char_traitsIcESaIcEEES5_St4lessIS5_ESaISt4pairIKS5_S5_EEED2Ev
FN:348,_ZNSt3mapIllSt4lessIlESaISt4pairIKllEEE5beginEv
FN:366,_ZNSt3mapIllSt4lessIlESaISt4pairIKllEEE3endEv
FN:366,_ZNSt3mapINSt7__cxx1112basic_stringIcSt11char_traitsIcESaIcEEES5_St4lessIS5_ESaISt4pairIKS5_S5_EEE3endEv
FN:384,_ZNSt3mapINSt7__cxx1112basic_stringIcSt11char_traitsIcESaIcEEES5_St4lessIS5_ESaISt4pairIKS5_S5_EEE6rbeginEv
FN:402,_ZNSt3mapINSt7__cxx1112basic_stringIcSt11char_traitsIcESaIcEEES5_St4lessIS5_ESaISt4pairIKS5_S5_EEE4rendEv
FN:484,_ZNSt3mapIllSt4lessIlESaISt4pairIKllEEEixERS3_
FN:568,_ZNSt3mapINSt7__cxx1112basic_stringIcSt11char_traitsIcESaIcEEES5_St4lessIS5_ESaISt4pairIKS5_S5_EEE7emplaceIJRA3_KcRA9_SE_EEES8_ISt17_Rb_tree_iteratorISA_EbEDpOT_
FN:568,_ZNSt3mapINSt7__cxx1112basic_stringIcSt11char_traitsIcESaIcEEES5_St4lessIS5_ESaISt4pairIKS5_S5_EEE7emplaceIJRA3_KcRA29_SE_EEES8_ISt17_Rb_tree_iteratorISA_EbEDpOT_
FN:568,_ZNSt3mapINSt7__cxx1112basic_stringIcSt11char_traitsIcESaIcEEES5_St4lessIS5_ESaISt4pairIKS5_S5_EEE7emplaceIJRA3_KcRA24_SE_EEES8_ISt17_Rb_tree_iteratorISA_EbEDpOT_
FN:568,_ZNSt3mapINSt7__cxx1112basic_stringIcSt11char_traitsIcESaIcEEES5_St4lessIS5_ESaISt4pairIKS5_S5_EEE7emplaceIJRA3_KcRA2_SE_EEES8_ISt17_Rb_tree_iteratorISA_EbEDpOT_
FN:568,_ZNSt3mapINSt7__cxx1112basic_stringIcSt11char_traitsIcESaIcEEES5_St4lessIS5_ESaISt4pairIKS5_S5_EEE7emplaceIJRA3_KcRA11_SE_EEES8_ISt17_Rb_tree_iteratorISA_EbEDpOT_
FN:568,_ZNSt3mapINSt7__cxx1112basic_stringIcSt11char_traitsIcESaIcEEES5_St4lessIS5_ESaISt4pairIKS5_S5_EEE7emplaceIJRA3_KcRA_SE_EEES8_ISt17_Rb_tree_iteratorISA_EbEDpOT_
FN:568,_ZNSt3mapINSt7__cxx1112basic_stringIcSt11char_traitsIcESaIcEEES5_St4lessIS5_ESaISt4pairIKS5_S5_EEE7emplaceIJRA3_KcRA8_SE_EEES8_ISt17_Rb_tree_iteratorISA_EbEDpOT_
FN:568,_ZNSt3mapINSt7__cxx1112basic_stringIcSt11char_traitsIcESaIcEEES5_St4lessIS5_ESaISt4pairIKS5_S5_EEE7emplaceIJRA3_KcRA10_SE_EEES8_ISt17_Rb_tree_iteratorISA_EbEDpOT_
FN:568,_ZNSt3mapINSt7__cxx1112basic_stringIcSt11char_traitsIcESaIcEEES5_St4lessIS5_ESaISt4pairIKS5_S5_EEE7emplaceIJRA4_KcSG_EEES8_ISt17_Rb_tree_iteratorISA_EbEDpOT_
FN:568,_ZNSt3mapINSt7__cxx1112basic_stringIcSt11char_traitsIcESaIcEEES5_St4lessIS5_ESaISt4pairIKS5_S5_EEE7emplaceIJRA3_KcRA27_SE_EEES8_ISt17_Rb_tree_iteratorISA_EbEDpOT_
FN:568,_ZNSt3mapINSt7__cxx1112basic_stringIcSt11char_traitsIcESaIcEEES5_St4lessIS5_ESaISt4pairIKS5_S5_EEE7emplaceIJRA4_KcRA18_SE_EEES8_ISt17_Rb_tree_iteratorISA_EbEDpOT_
FN:1136,_ZNKSt3mapIllSt4lessIlESaISt4pairIKllEEE8key_compEv
FN:1163,_ZNSt3mapINSt7__cxx1112basic_stringIcSt11char_traitsIcESaIcEEES5_St4lessIS5_ESaISt4pairIKS5_S5_EEE4findERS9_
FN:1209,_ZNKSt3mapIllSt4lessIlESaISt4pairIKllEEE5countERS3_
FN:1233,_ZNSt3mapIllSt4lessIlESaISt4pairIKllEEE11lower_boundERS3_
FNDA:140,_ZNSt3mapIllSt4lessIlESaISt4pairIKllEEEC2Ev
FNDA:12,_ZNSt3mapINSt7__cxx1112basic_stringIcSt11char_traitsIcESaIcEEES5_St4lessIS5_ESaISt4pairIKS5_S5_EEEC2Ev
FNDA:140,_ZNSt3mapIllSt4lessIlESaISt4pairIKllEEED2Ev
FNDA:12,_ZNSt3mapINSt7__cxx1112basic_stringIcSt11char_traitsIcESaIcEEES5_St4lessIS5_ESaISt4pairIKS5_S5_EEED2Ev
FNDA:140,_ZNSt3mapIllSt4lessIlESaISt4pairIKllEEE5beginEv
FNDA:560,_ZNSt3mapIllSt4lessIlESaISt4pairIKllEEE3endEv
FNDA:74,_ZNSt3mapINSt7__cxx1112basic_stringIcSt11char_traitsIcESaIcEEES5_St4lessIS5_ESaISt4pairIKS5_S5_EEE3endEv
FNDA:12,_ZNSt3mapINSt7__cxx1112basic_stringIcSt11char_traitsIcESaIcEEES5_St4lessIS5_ESaISt4pairIKS5_S5_EEE6rbeginEv
FNDA:300,_ZNSt3mapINSt7__cxx1112basic_stringIcSt11char_traitsIcESaIcEEES5_St4lessIS5_ESaISt4pairIKS5_S5_EEE4rendEv
FNDA:420,_ZNSt3mapIllSt4lessIlESaISt4pairIKllEEEixERS3_
FNDA:12,_ZNSt3mapINSt7__cxx1112basic_stringIcSt11char_traitsIcESaIcEEES5_St4lessIS5_ESaISt4pairIKS5_S5_EEE7emplaceIJRA3_KcRA27_SE_EEES8_ISt17_Rb_tree_iteratorISA_EbEDpOT_
FNDA:12,_ZNSt3mapINSt7__cxx1112basic_stringIcSt11char_traitsIcESaIcEEES5_St4lessIS5_ESaISt4pairIKS5_S5_EEE7emplaceIJRA3_KcRA29_SE_EEES8_ISt17_Rb_tree_iteratorISA_EbEDpOT_
FNDA:12,_ZNSt3mapINSt7__cxx1112basic_stringIcSt11char_traitsIcESaIcEEES5_St4lessIS5_ESaISt4pairIKS5_S5_EEE7emplaceIJRA3_KcRA24_SE_EEES8_ISt17_Rb_tree_iteratorISA_EbEDpOT_
FNDA:12,_ZNSt3mapINSt7__cxx1112basic_stringIcSt11char_traitsIcESaIcEEES5_St4lessIS5_ESaISt4pairIKS5_S5_EEE7emplaceIJRA3_KcRA10_SE_EEES8_ISt17_Rb_tree_iteratorISA_EbEDpOT_
FNDA:60,_ZNSt3mapINSt7__cxx1112basic_stringIcSt11char_traitsIcESaIcEEES5_St4lessIS5_ESaISt4pairIKS5_S5_EEE7emplaceIJRA3_KcRA8_SE_EEES8_ISt17_Rb_tree_iteratorISA_EbEDpOT_
FNDA:12,_ZNSt3mapINSt7__cxx1112basic_stringIcSt11char_traitsIcESaIcEEES5_St4lessIS5_ESaISt4pairIKS5_S5_EEE7emplaceIJRA3_KcRA9_SE_EEES8_ISt17_Rb_tree_iteratorISA_EbEDpOT_
FNDA:12,_ZNSt3mapINSt7__cxx1112basic_stringIcSt11char_traitsIcESaIcEEES5_St4lessIS5_ESaISt4pairIKS5_S5_EEE7emplaceIJRA3_KcRA11_SE_EEES8_ISt17_Rb_tree_iteratorISA_EbEDpOT_
FNDA:48,_ZNSt3mapINSt7__cxx1112basic_stringIcSt11char_traitsIcESaIcEEES5_St4lessIS5_ESaISt4pairIKS5_S5_EEE7emplaceIJRA3_KcRA_SE_EEES8_ISt17_Rb_tree_iteratorISA_EbEDpOT_
FNDA:48,_ZNSt3mapINSt7__cxx1112basic_stringIcSt11char_traitsIcESaIcEEES5_St4lessIS5_ESaISt4pairIKS5_S5_EEE7emplaceIJRA4_KcRA18_SE_EEES8_ISt17_Rb_tree_iteratorISA_EbEDpOT_
FNDA:48,_ZNSt3mapINSt7__cxx1112basic_stringIcSt11char_traitsIcESaIcEEES5_St4lessIS5_ESaISt4pairIKS5_S5_EEE7emplaceIJRA4_KcSG_EEES8_ISt17_Rb_tree_iteratorISA_EbEDpOT_
FNDA:12,_ZNSt3mapINSt7__cxx1112basic_stringIcSt11char_traitsIcESaIcEEES5_St4lessIS5_ESaISt4pairIKS5_S5_EEE7emplaceIJRA3_KcRA2_SE_EEES8_ISt17_Rb_tree_iteratorISA_EbEDpOT_
FNDA:280,_ZNKSt3mapIllSt4lessIlESaISt4pairIKllEEE8key_compEv
FNDA:74,_ZNSt3mapINSt7__cxx1112basic_stringIcSt11char_traitsIcESaIcEEES5_St4lessIS5_ESaISt4pairIKS5_S5_EEE4findERS9_
FNDA:0,_ZNKSt3mapIllSt4lessIlESaISt4pairIKllEEE5countERS3_
FNDA:420,_ZNSt3mapIllSt4lessIlESaISt4pairIKllEEE11lower_boundERS3_
FNF:25
FNH:24
DA:177,152
DA:294,152
DA:348,140
DA:349,140
DA:366,634
DA:367,634
DA:384,12
DA:385,12
DA:402,300
DA:403,300
DA:484,420
DA:489,420
DA:491,420
DA:493,140
DA:499,420
DA:568,288
DA:569,288
DA:1136,280
DA:1137,280
DA:1163,74
DA:1164,74
DA:1209,0
DA:1210,0
DA:1233,420
DA:1234,420
LF:25
LH:23
end_of_record
SF:/usr/include/c++/7/bits/stl_pair.h
FN:198,_ZNSt4pairINSt7__cxx1112basic_stringIcSt11char_traitsIcESaIcEEES5_ED2Ev
FN:198,_ZNSt4pairIKNSt7__cxx1112basic_stringIcSt11char_traitsIcESaIcEEES5_ED2Ev
FN:198,_ZNSt4pairIlSt6vectorINSt7__cxx119sub_matchIN9__gnu_cxx17__normal_iteratorIPKcNS1_12basic_stringIcSt11char_traitsIcESaIcEEEEEEESaISD_EEED2Ev
FN:218,_ZNSt4pairIN9__gnu_cxx17__normal_iteratorIPKcNSt7__cxx1112basic_stringIcSt11char_traitsIcESaIcEEEEEiEC2ISA_iLb1EEEv
FN:218,_ZNSt4pairIN9__gnu_cxx17__normal_iteratorIPKcNSt7__cxx1112basic_stringIcSt11char_traitsIcESaIcEEEEESA_EC2ISA_SA_Lb1EEEv
FN:292,_ZNSt4pairINSt7__cxx1112basic_stringIcSt11char_traitsIcESaIcEEES5_EC2ERKS6_
FN:293,_ZNSt4pairINSt7__cxx1112basic_stringIcSt11char_traitsIcESaIcEEES5_EC2EOS6_
FN:293,_ZNSt4pairIlSt6vectorINSt7__cxx119sub_matchIN9__gnu_cxx17__normal_iteratorIPKcNS1_12basic_stringIcSt11char_traitsIcESaIcEEEEEEESaISD_EEEC2EOSG_
FN:300,_ZNSt4pairIlSt6vectorINSt7__cxx119sub_matchIN9__gnu_cxx17__normal_iteratorIPKcNS1_12basic_stringIcSt11char_traitsIcESaIcEEEEEEESaISD_EEEC2IRlLb1EEEOT_RKSF_
FN:300,_ZNSt4pairIPSt18_Rb_tree_node_baseS1_EC2IRS1_Lb1EEEOT_RKS1_
FN:314,_ZNSt4pairIPSt18_Rb_tree_node_baseS1_EC2IRS1_Lb1EEERKS1_OT_
FN:330,_ZNSt4pairIPSt18_Rb_tree_node_baseS1_EC2IRS1_S4_Lb1EEEOT_OT0_
FN:330,_ZNSt4pairIKNSt7__cxx1112basic_stringIcSt11char_traitsIcESaIcEEES5_EC2IRA3_KcRA9_S9_Lb1EEEOT_OT0_
FN:330,_ZNSt4pairIKNSt7__cxx1112basic_stringIcSt11char_traitsIcESaIcEEES5_EC2IRA3_KcRA11_S9_Lb1EEEOT_OT0_
FN:330,_ZNSt4pairIccEC1IccLb1EEEOT_OT0_
FN:330,_ZNSt4pairIPSt18_Rb_tree_node_baseS1_EC2IRPSt13_Rb_tree_nodeIS_IKllEERS1_Lb1EEEOT_OT0_
FN:330,_ZNSt4pairIKNSt7__cxx1112basic_stringIcSt11char_traitsIcESaIcEEES5_EC2IRA3_KcRA8_S9_Lb1EEEOT_OT0_
FN:330,_ZNSt4pairIKNSt7__cxx1112basic_stringIcSt11char_traitsIcESaIcEEES5_EC2IRA3_KcRA29_S9_Lb1EEEOT_OT0_
FN:330,_ZNSt4pairIKNSt7__cxx1112basic_stringIcSt11char_traitsIcESaIcEEES5_EC2IRA3_KcRA27_S9_Lb1EEEOT_OT0_
FN:330,_ZNSt4pairISt17_Rb_tree_iteratorIS_IKNSt7__cxx1112basic_stringIcSt11char_traitsIcESaIcEEES6_EEbEC2IS9_bLb1EEEOT_OT0_
FN:330,_ZNSt4pairIPSt18_Rb_tree_node_baseS1_EC2IRPSt13_Rb_tree_nodeIS_IKNSt7__cxx1112basic_stringIcSt11char_traitsIcESaIcEEESA_EERS1_Lb1EEEOT_OT0_
FN:330,_ZNSt4pairIKNSt7__cxx1112basic_stringIcSt11char_traitsIcESaIcEEES5_EC2IRA3_KcRA24_S9_Lb1EEEOT_OT0_
FN:330,_ZNSt4pairINSt7__cxx1112basic_stringIcSt11char_traitsIcESaIcEEES5_EC2IS5_S5_Lb1EEEOT_OT0_
FN:330,_ZNSt4pairIKNSt7__cxx1112basic_stringIcSt11char_traitsIcESaIcEEES5_EC2IRA3_KcRA10_S9_Lb1EEEOT_OT0_
FN:330,_ZNSt4pairIKNSt7__cxx1112basic_stringIcSt11char_traitsIcESaIcEEES5_EC2IRA3_KcRA_S9_Lb1EEEOT_OT0_
FN:330,_ZNSt4pairIKNSt7__cxx1112basic_stringIcSt11char_traitsIcESaIcEEES5_EC2IRA4_KcRA18_S9_Lb1EEEOT_OT0_
FN:330,_ZNSt4pairIKNSt7__cxx1112basic_stringIcSt11char_traitsIcESaIcEEES5_EC2IRA3_KcRA2_S9_Lb1EEEOT_OT0_
FN:330,_ZNSt4pairIKNSt7__cxx1112basic_stringIcSt11char_traitsIcESaIcEEES5_EC2IRA4_KcSB_Lb1EEEOT_OT0_
FN:367,_ZNSt4pairIN9__gnu_cxx17__normal_iteratorIPKcNSt7__cxx1112basic_stringIcSt11char_traitsIcESaIcEEEEEiEaSERKSB_
FN:367,_ZNSt4pairIN9__gnu_cxx17__normal_iteratorIPKcNSt7__cxx1112basic_stringIcSt11char_traitsIcESaIcEEEEESA_EaSERKSB_
FN:519,_ZSt9make_pairINSt7__cxx1112basic_stringIcSt11char_traitsIcESaIcEEES5_ESt4pairINSt17__decay_and_stripIT_E6__typeENS7_IT0_E6__typeEEOS8_OSB_
FN:519,_ZSt9make_pairIccESt4pairINSt17__decay_and_stripIT_E6__typeENS1_IT0_E6__typeEEOS2_OS5_
FNDA:0,_ZNSt4pairINSt7__cxx1112basic_stringIcSt11char_traitsIcESaIcEEES5_ED2Ev
FNDA:0,_ZNSt4pairIlSt6vectorINSt7__cxx119sub_matchIN9__gnu_cxx17__normal_iteratorIPKcNS1_12basic_stringIcSt11char_traitsIcESaIcEEEEEEESaISD_EEED2Ev
FNDA:288,_ZNSt4pairIKNSt7__cxx1112basic_stringIcSt11char_traitsIcESaIcEEES5_ED2Ev
FNDA:9787,_ZNSt4pairIN9__gnu_cxx17__normal_iteratorIPKcNSt7__cxx1112basic_stringIcSt11char_traitsIcESaIcEEEEESA_EC2ISA_SA_Lb1EEEv
FNDA:133812,_ZNSt4pairIN9__gnu_cxx17__normal_iteratorIPKcNSt7__cxx1112basic_stringIcSt11char_traitsIcESaIcEEEEEiEC2ISA_iLb1EEEv
FNDA:0,_ZNSt4pairINSt7__cxx1112basic_stringIcSt11char_traitsIcESaIcEEES5_EC2ERKS6_
FNDA:0,_ZNSt4pairINSt7__cxx1112basic_stringIcSt11char_traitsIcESaIcEEES5_EC2EOS6_
FNDA:0,_ZNSt4pairIlSt6vectorINSt7__cxx119sub_matchIN9__gnu_cxx17__normal_iteratorIPKcNS1_12basic_stringIcSt11char_traitsIcESaIcEEEEEEESaISD_EEEC2EOSG_
FNDA:0,_ZNSt4pairIlSt6vectorINSt7__cxx119sub_matchIN9__gnu_cxx17__normal_iteratorIPKcNS1_12basic_stringIcSt11char_traitsIcESaIcEEEEEEESaISD_EEEC2IRlLb1EEEOT_RKSF_
FNDA:0,_ZNSt4pairIPSt18_Rb_tree_node_baseS1_EC2IRS1_Lb1EEEOT_RKS1_
FNDA:0,_ZNSt4pairIPSt18_Rb_tree_node_baseS1_EC2IRS1_Lb1EEERKS1_OT_
FNDA:0,_ZNSt4pairINSt7__cxx1112basic_stringIcSt11char_traitsIcESaIcEEES5_EC2IS5_S5_Lb1EEEOT_OT0_
FNDA:140,_ZNSt4pairIPSt18_Rb_tree_node_baseS1_EC2IRPSt13_Rb_tree_nodeIS_IKllEERS1_Lb1EEEOT_OT0_
FNDA:0,_ZNSt4pairIPSt18_Rb_tree_node_baseS1_EC2IRS1_S4_Lb1EEEOT_OT0_
FNDA:12,_ZNSt4pairIKNSt7__cxx1112basic_stringIcSt11char_traitsIcESaIcEEES5_EC2IRA3_KcRA27_S9_Lb1EEEOT_OT0_
FNDA:12,_ZNSt4pairIKNSt7__cxx1112basic_stringIcSt11char_traitsIcESaIcEEES5_EC2IRA3_KcRA29_S9_Lb1EEEOT_OT0_
FNDA:12,_ZNSt4pairIKNSt7__cxx1112basic_stringIcSt11char_traitsIcESaIcEEES5_EC2IRA3_KcRA24_S9_Lb1EEEOT_OT0_
FNDA:12,_ZNSt4pairIKNSt7__cxx1112basic_stringIcSt11char_traitsIcESaIcEEES5_EC2IRA3_KcRA10_S9_Lb1EEEOT_OT0_
FNDA:60,_ZNSt4pairIKNSt7__cxx1112basic_stringIcSt11char_traitsIcESaIcEEES5_EC2IRA3_KcRA8_S9_Lb1EEEOT_OT0_
FNDA:12,_ZNSt4pairIKNSt7__cxx1112basic_stringIcSt11char_traitsIcESaIcEEES5_EC2IRA3_KcRA9_S9_Lb1EEEOT_OT0_
FNDA:12,_ZNSt4pairIKNSt7__cxx1112basic_stringIcSt11char_traitsIcESaIcEEES5_EC2IRA3_KcRA11_S9_Lb1EEEOT_OT0_
FNDA:48,_ZNSt4pairIKNSt7__cxx1112basic_stringIcSt11char_traitsIcESaIcEEES5_EC2IRA3_KcRA_S9_Lb1EEEOT_OT0_
FNDA:48,_ZNSt4pairIKNSt7__cxx1112basic_stringIcSt11char_traitsIcESaIcEEES5_EC2IRA4_KcRA18_S9_Lb1EEEOT_OT0_
FNDA:48,_ZNSt4pairIKNSt7__cxx1112basic_stringIcSt11char_traitsIcESaIcEEES5_EC2IRA4_KcSB_Lb1EEEOT_OT0_
FNDA:12,_ZNSt4pairIKNSt7__cxx1112basic_stringIcSt11char_traitsIcESaIcEEES5_EC2IRA3_KcRA2_S9_Lb1EEEOT_OT0_
FNDA:288,_ZNSt4pairISt17_Rb_tree_iteratorIS_IKNSt7__cxx1112basic_stringIcSt11char_traitsIcESaIcEEES6_EEbEC2IS9_bLb1EEEOT_OT0_
FNDA:288,_ZNSt4pairIPSt18_Rb_tree_node_baseS1_EC2IRPSt13_Rb_tree_nodeIS_IKNSt7__cxx1112basic_stringIcSt11char_traitsIcESaIcEEESA_EERS1_Lb1EEEOT_OT0_
FNDA:0,_ZNSt4pairIccEC1IccLb1EEEOT_OT0_
FNDA:955,_ZNSt4pairIN9__gnu_cxx17__normal_iteratorIPKcNSt7__cxx1112basic_stringIcSt11char_traitsIcESaIcEEEEEiEaSERKSB_
FNDA:202404,_ZNSt4pairIN9__gnu_cxx17__normal_iteratorIPKcNSt7__cxx1112basic_stringIcSt11char_traitsIcESaIcEEEEESA_EaSERKSB_
FNDA:0,_ZSt9make_pairINSt7__cxx1112basic_stringIcSt11char_traitsIcESaIcEEES5_ESt4pairINSt17__decay_and_stripIT_E6__typeENS7_IT0_E6__typeEEOS8_OSB_
FNDA:0,_ZSt9make_pairIccESt4pairINSt17__decay_and_stripIT_E6__typeENS1_IT0_E6__typeEEOS2_OS5_
FNF:32
FNH:19
DA:198,288
DA:218,143599
DA:219,143599
DA:292,0
DA:293,0
DA:300,0
DA:301,0
DA:314,0
DA:315,0
DA:330,1004
DA:331,1004
DA:367,203359
DA:372,203359
DA:373,203359
DA:374,203359
DA:519,0
DA:524,0
LF:17
LH:9
end_of_record
SF:/usr/include/c++/7/bits/stl_stack.h
FN:99,_ZNSt5stackIlSt5dequeIlSaIlEEED2Ev
FN:99,_ZNSt5stackINSt8__detail9_StateSeqINSt7__cxx1112regex_traitsIcEEEESt5dequeIS5_SaIS5_EEED2Ev
FN:148,_ZNSt5stackIlSt5dequeIlSaIlEEEC2IS2_vEEv
FN:148,_ZNSt5stackINSt8__detail9_StateSeqINSt7__cxx1112regex_traitsIcEEEESt5dequeIS5_SaIS5_EEEC2IS8_vEEv
FN:185,_ZNKSt5stackIlSt5dequeIlSaIlEEE5emptyEv
FN:185,_ZNKSt5stackINSt8__detail9_StateSeqINSt7__cxx1112regex_traitsIcEEEESt5dequeIS5_SaIS5_EEE5emptyEv
FN:198,_ZNSt5stackIlSt5dequeIlSaIlEEE3topEv
FN:198,_ZNSt5stackINSt8__detail9_StateSeqINSt7__cxx1112regex_traitsIcEEEESt5dequeIS5_SaIS5_EEE3topEv
FN:225,_ZNSt5stackIlSt5dequeIlSaIlEEE4pushERKl
FN:225,_ZNSt5stackINSt8__detail9_StateSeqINSt7__cxx1112regex_traitsIcEEEESt5dequeIS5_SaIS5_EEE4pushERKS5_
FN:230,_ZNSt5stackINSt8__detail9_StateSeqINSt7__cxx1112regex_traitsIcEEEESt5dequeIS5_SaIS5_EEE4pushEOS5_
FN:258,_ZNSt5stackINSt8__detail9_StateSeqINSt7__cxx1112regex_traitsIcEEEESt5dequeIS5_SaIS5_EEE3popEv
FN:258,_ZNSt5stackIlSt5dequeIlSaIlEEE3popEv
FNDA:200,_ZNSt5stackIlSt5dequeIlSaIlEEED2Ev
FNDA:2327,_ZNSt5stackINSt8__detail9_StateSeqINSt7__cxx1112regex_traitsIcEEEESt5dequeIS5_SaIS5_EEED2Ev
FNDA:200,_ZNSt5stackIlSt5dequeIlSaIlEEEC2IS2_vEEv
FNDA:2327,_ZNSt5stackINSt8__detail9_StateSeqINSt7__cxx1112regex_traitsIcEEEESt5dequeIS5_SaIS5_EEEC2IS8_vEEv
FNDA:420,_ZNKSt5stackIlSt5dequeIlSaIlEEE5emptyEv
FNDA:96,_ZNKSt5stackINSt8__detail9_StateSeqINSt7__cxx1112regex_traitsIcEEEESt5dequeIS5_SaIS5_EEE5emptyEv
FNDA:220,_ZNSt5stackIlSt5dequeIlSaIlEEE3topEv
FNDA:33737,_ZNSt5stackINSt8__detail9_StateSeqINSt7__cxx1112regex_traitsIcEEEESt5dequeIS5_SaIS5_EEE3topEv
FNDA:220,_ZNSt5stackIlSt5dequeIlSaIlEEE4pushERKl
FNDA:12925,_ZNSt5stackINSt8__detail9_StateSeqINSt7__cxx1112regex_traitsIcEEEESt5dequeIS5_SaIS5_EEE4pushERKS5_
FNDA:20812,_ZNSt5stackINSt8__detail9_StateSeqINSt7__cxx1112regex_traitsIcEEEESt5dequeIS5_SaIS5_EEE4pushEOS5_
FNDA:220,_ZNSt5stackIlSt5dequeIlSaIlEEE3popEv
FNDA:33737,_ZNSt5stackINSt8__detail9_StateSeqINSt7__cxx1112regex_traitsIcEEEESt5dequeIS5_SaIS5_EEE3popEv
FNF:13
FNH:13
DA:99,2527
DA:148,2527
DA:149,2527
DA:185,516
DA:186,516
DA:198,33957
DA:201,33957
DA:225,13145
DA:226,13145
DA:230,20812
DA:231,20812
DA:258,33957
DA:261,33957
DA:262,33957
LF:14
LH:14
end_of_record
SF:/usr/include/c++/7/bits/stl_tree.h
FN:146,_ZNSt20_Rb_tree_key_compareISt4lessIlEEC2Ev
FN:146,_ZNSt20_Rb_tree_key_compareISt4lessINSt7__cxx1112basic_stringIcSt11char_traitsIcESaIcEEEEEC2Ev
FN:173,_ZNSt15_Rb_tree_headerC2Ev
FN:206,_ZNSt15_Rb_tree_header8_M_resetEv
FN:234,_ZNSt13_Rb_tree_nodeISt4pairIKllEE9_M_valptrEv
FN:234,_ZNSt13_Rb_tree_nodeISt4pairIKNSt7__cxx1112basic_stringIcSt11char_traitsIcESaIcEEES6_EE9_M_valptrEv
FN:238,_ZNKSt13_Rb_tree_nodeISt4pairIKNSt7__cxx1112basic_stringIcSt11char_traitsIcESaIcEEES6_EE9_M_valptrEv
FN:238,_ZNKSt13_Rb_tree_nodeISt4pairIKllEE9_M_valptrEv
FN:273,_ZNSt17_Rb_tree_iteratorISt4pairIKNSt7__cxx1112basic_stringIcSt11char_traitsIcESaIcEEES6_EEC2EPSt18_Rb_tree_node_base
FN:273,_ZNSt17_Rb_tree_iteratorISt4pairIKllEEC2EPSt18_Rb_tree_node_base
FN:277,_ZNKSt17_Rb_tree_iteratorISt4pairIKllEEdeEv
FN:277,_ZNKSt17_Rb_tree_iteratorISt4pairIKNSt7__cxx1112basic_stringIcSt11char_traitsIcESaIcEEES6_EEdeEv
FN:281,_ZNKSt17_Rb_tree_iteratorISt4pairIKNSt7__cxx1112basic_stringIcSt11char_traitsIcESaIcEEES6_EEptEv
FN:285,_ZNSt17_Rb_tree_iteratorISt4pairIKllEEppEv
FN:300,_ZNSt17_Rb_tree_iteratorISt4pairIKNSt7__cxx1112basic_stringIcSt11char_traitsIcESaIcEEES6_EEmmEv
FN:300,_ZNSt17_Rb_tree_iteratorISt4pairIKllEEmmEv
FN:315,_ZNKSt17_Rb_tree_iteratorISt4pairIKllEEeqERKS3_
FN:315,_ZNKSt17_Rb_tree_iteratorISt4pairIKNSt7__cxx1112basic_stringIcSt11char_traitsIcESaIcEEES6_EEeqERKS9_
FN:319,_ZNKSt17_Rb_tree_iteratorISt4pairIKllEEneERKS3_
FN:345,_ZNSt23_Rb_tree_const_iteratorISt4pairIKllEEC2EPKSt18_Rb_tree_node_base
FN:348,_ZNSt23_Rb_tree_const_iteratorISt4pairIKllEEC2ERKSt17_Rb_tree_iteratorIS2_E
FN:352,_ZNKSt23_Rb_tree_const_iteratorISt4pairIKllEE13_M_const_castEv
FN:394,_ZNKSt23_Rb_tree_const_iteratorISt4pairIKllEEeqERKS3_
FN:574,_ZNSt8_Rb_treeIlSt4pairIKllESt10_Select1stIS2_ESt4lessIlESaIS2_EE21_M_get_Node_allocatorEv
FN:574,_ZNSt8_Rb_treeINSt7__cxx1112basic_stringIcSt11char_traitsIcESaIcEEESt4pairIKS5_S5_ESt10_Select1stIS8_ESt4lessIS5_ESaIS8_EE21_M_get_Node_allocatorEv
FN:587,_ZNSt8_Rb_treeINSt7__cxx1112basic_stringIcSt11char_traitsIcESaIcEEESt4pairIKS5_S5_ESt10_Select1stIS8_ESt4lessIS5_ESaIS8_EE11_M_get_nodeEv
FN:587,_ZNSt8_Rb_treeIlSt4pairIKllESt10_Select1stIS2_ESt4lessIlESaIS2_EE11_M_get_nodeEv
FN:591,_ZNSt8_Rb_treeIlSt4pairIKllESt10_Select1stIS2_ESt4lessIlESaIS2_EE11_M_put_nodeEPSt13_Rb_tree_nodeIS2_E
FN:591,_ZNSt8_Rb_treeINSt7__cxx1112basic_stringIcSt11char_traitsIcESaIcEEESt4pairIKS5_S5_ESt10_Select1stIS8_ESt4lessIS5_ESaIS8_EE11_M_put_nodeEPSt13_Rb_tree_nodeIS8_E
FN:621,_ZNSt8_Rb_treeINSt7__cxx1112basic_stringIcSt11char_traitsIcESaIcEEESt4pairIKS5_S5_ESt10_Select1stIS8_ESt4lessIS5_ESaIS8_EE17_M_construct_nodeIJRA3_KcRA_SG_EEEvPSt13_Rb_tree_nodeIS8_EDpOT_
FN:621,_ZNSt8_Rb_treeINSt7__cxx1112basic_stringIcSt11char_traitsIcESaIcEEESt4pairIKS5_S5_ESt10_Select1stIS8_ESt4lessIS5_ESaIS8_EE17_M_construct_nodeIJRA3_KcRA27_SG_EEEvPSt13_Rb_tree_nodeIS8_EDpOT_
FN:621,_ZNSt8_Rb_treeINSt7__cxx1112basic_stringIcSt11char_traitsIcESaIcEEESt4pairIKS5_S5_ESt10_Select1stIS8_ESt4lessIS5_ESaIS8_EE17_M_construct_nodeIJRA3_KcRA2_SG_EEEvPSt13_Rb_tree_nodeIS8_EDpOT_
FN:621,_ZNSt8_Rb_treeINSt7__cxx1112basic_stringIcSt11char_traitsIcESaIcEEESt4pairIKS5_S5_ESt10_Select1stIS8_ESt4lessIS5_ESaIS8_EE17_M_construct_nodeIJRA3_KcRA8_SG_EEEvPSt13_Rb_tree_nodeIS8_EDpOT_
